 CourseworkBase2020

 Timestamp is 60a8b810 (Sat May 22 08:51:44 2021)

 Preferred load address is 00400000

 Start         Length     Name                   Class
 0001:00000000 000078a0H .text$di                CODE
 0001:000078a0 0004a710H .text$mn                CODE
 0001:00051fb0 00004e50H .text$x                 CODE
 0001:00056e00 00001012H .text$yd                CODE
 0002:00000000 00000104H .CRT$XCA                DATA
 0002:00000104 00000104H .CRT$XCAA               DATA
 0002:00000208 00000104H .CRT$XCL                DATA
 0002:0000030c 00000104H .CRT$XCZ                DATA
 0002:00000410 00000104H .CRT$XIA                DATA
 0002:00000514 00000104H .CRT$XIAA               DATA
 0002:00000618 00000104H .CRT$XIAC               DATA
 0002:0000071c 00000104H .CRT$XIZ                DATA
 0002:00000820 00000104H .CRT$XPA                DATA
 0002:00000924 00000104H .CRT$XPZ                DATA
 0002:00000a28 00000104H .CRT$XTA                DATA
 0002:00000b2c 00000104H .CRT$XTZ                DATA
 0002:00000c30 00011d10H .rdata                  DATA
 0002:00012940 00000104H .rdata$CastGuardVftablesA DATA
 0002:00012a44 00000104H .rdata$CastGuardVftablesC DATA
 0002:00012b48 000019c8H .rdata$r                DATA
 0002:00014510 000004e4H .rdata$sxdata           DATA
 0002:000149f4 00000190H .rdata$zzzdbg           DATA
 0002:00014b84 00000104H .rtc$IAA                DATA
 0002:00014c88 00000104H .rtc$IZZ                DATA
 0002:00014d8c 00000104H .rtc$TAA                DATA
 0002:00014e90 00000108H .rtc$TZZ                DATA
 0002:00014f98 000036e2H .xdata$x                DATA
 0002:0001867a 00000000H .edata                  DATA
 0003:00000000 00000134H .data                   DATA
 0003:00000134 000001b8H .data$r                 DATA
 0003:000002ec 00000accH .data$rs                DATA
 0003:00000db8 00000460H .bss                    DATA
 0004:00000000 00000540H .idata$5                DATA
 0004:00000540 000000a0H .idata$2                DATA
 0004:000005e0 00000014H .idata$3                DATA
 0004:000005f4 00000540H .idata$4                DATA
 0004:00000b34 00001d81H .idata$6                DATA
 0005:00000000 00000109H .00cfg                  DATA
 0006:00000000 00000170H .rsrc$01                DATA
 0006:00000170 000002ccH .rsrc$02                DATA

  Address         Publics by Value              Rva+Base       Lib:Object

 0000:00000000       ___guard_longjmp_table     00000000     <absolute>
 0000:00000000       ___x64_code_ranges_to_entry_points 00000000     <absolute>
 0000:00000000       ___guard_eh_cont_table     00000000     <absolute>
 0000:00000000       ___guard_fids_count        00000000     <absolute>
 0000:00000000       ___guard_eh_cont_count     00000000     <absolute>
 0000:00000000       ___dynamic_value_reloc_table 00000000     <absolute>
 0000:00000000       ___hybrid_code_map         00000000     <absolute>
 0000:00000000       ___x64_code_ranges_to_entry_points_count 00000000     <absolute>
 0000:00000000       ___guard_iat_table         00000000     <absolute>
 0000:00000000       ___guard_fids_table        00000000     <absolute>
 0000:00000000       ___arm64x_extra_rfe_table_size 00000000     <absolute>
 0000:00000000       ___AbsoluteZero            00000000     <absolute>
 0000:00000000       ___hybrid_auxiliary_iat    00000000     <absolute>
 0000:00000000       ___guard_longjmp_count     00000000     <absolute>
 0000:00000000       ___arm64x_redirection_metadata_count 00000000     <absolute>
 0000:00000000       ___arm64x_native_entrypoint 00000000     <absolute>
 0000:00000000       ___arm64x_redirection_metadata 00000000     <absolute>
 0000:00000000       ___guard_iat_count         00000000     <absolute>
 0000:00000000       ___arm64x_extra_rfe_table  00000000     <absolute>
 0000:00000000       ___volatile_metadata       00000000     <absolute>
 0000:00000000       ___hybrid_code_map_count   00000000     <absolute>
 0000:00000000       ___enclave_config          00000000     <absolute>
 0000:000000cf       ___safe_se_handler_count   000000cf     <absolute>
 0000:00000100       ___guard_flags             00000100     <absolute>
 0000:00000000       ___ImageBase               00400000     <linker-defined>
 0001:000078a0       ??0Bgm@@QAE@XZ             004088a0 f   Bgm.obj
 0001:00007900       ??1Bgm@@QAE@XZ             00408900 f   Bgm.obj
 0001:00007920       ?playMusic@Bgm@@SAXH@Z     00408920 f   Bgm.obj
 0001:000079f0       ?stopMusic@Bgm@@SAXXZ      004089f0 f   Bgm.obj
 0001:00007a00       ?pauseMusic@Bgm@@SAXXZ     00408a00 f   Bgm.obj
 0001:00007a20       ?resumeMusic@Bgm@@SAXXZ    00408a20 f   Bgm.obj
 0001:00007a40       ?pauseChunk@Bgm@@QAEXXZ    00408a40 f   Bgm.obj
 0001:00007a60       ?playChunk@Bgm@@QAEXXZ     00408a60 f   Bgm.obj
 0001:00007a80       ?createChunk@Bgm@@QAEXXZ   00408a80 f   Bgm.obj
 0001:00007b30       ??$?6U?$char_traits@D@std@@@std@@YAAAV?$basic_ostream@DU?$char_traits@D@std@@@0@AAV10@PBD@Z 00408b30 f i Bgm.obj
 0001:00007f30       ??$endl@DU?$char_traits@D@std@@@std@@YAAAV?$basic_ostream@DU?$char_traits@D@std@@@0@AAV10@@Z 00408f30 f i Bgm.obj
 0001:00007f70       ??0_Sentry_base@?$basic_ostream@DU?$char_traits@D@std@@@std@@QAE@AAV12@@Z 00408f70 f i Bgm.obj
 0001:00007fd0       ??0sentry@?$basic_ostream@DU?$char_traits@D@std@@@std@@QAE@AAV12@@Z 00408fd0 f i Bgm.obj
 0001:000080d0       ??1_Sentry_base@?$basic_ostream@DU?$char_traits@D@std@@@std@@QAE@XZ 004090d0 f i Bgm.obj
 0001:00008160       ??1sentry@?$basic_ostream@DU?$char_traits@D@std@@@std@@QAE@XZ 00409160 f i Bgm.obj
 0001:000081f0       ??Bsentry@?$basic_ostream@DU?$char_traits@D@std@@@std@@QBE_NXZ 004091f0 f i Bgm.obj
 0001:00008210       ?__empty_global_delete@@YAXPAX@Z 00409210 f i Bgm.obj
 0001:00008220       ?__empty_global_delete@@YAXPAXI@Z 00409220 f i Bgm.obj
 0001:00008220       ?__global_delete@@YAXPAXI@Z 00409220 f i Bgm.obj
 0001:00008230       ?eof@?$_Narrow_char_traits@DH@std@@SAHXZ 00409230 f i Bgm.obj
 0001:00008240       ?eq_int_type@?$_Narrow_char_traits@DH@std@@SA_NABH0@Z 00409240 f i Bgm.obj
 0001:00008270       ?length@?$_Narrow_char_traits@DH@std@@SAIQBD@Z 00409270 f i Bgm.obj
 0001:00008290       ??0bullet@@QAE@PAVScyzc3Engine@@PAVRunningState@@PBDPAVScyzc3Object@@H@Z 00409290 f   bullet.obj
 0001:00008520       ?detectBound@bullet@@UAE_NXZ 00409520 f   bullet.obj
 0001:00008610       ?virtDraw@bullet@@UAEXXZ   00409610 f   bullet.obj
 0001:000086d0       ?virtDoUpdate@bullet@@UAEXH@Z 004096d0 f   bullet.obj
 0001:00009220       ??$?0$$V@?$_Compressed_pair@V?$allocator@D@std@@V?$_String_val@U?$_Simple_types@D@std@@@2@$00@std@@QAE@U_Zero_then_variadic_args_t@1@@Z 0040a220 f i bullet.obj
 0001:00009250       ??$?0$$V@?$_Compressed_pair@V?$allocator@U?$_Tree_node@U?$pair@$$CBV?$basic_string@DU?$char_traits@D@std@@V?$allocator@D@2@@std@@V?$shared_ptr@VRawImageData@@@2@@std@@PAX@std@@@std@@V?$_Tree_val@U?$_Tree_simple_types@U?$pair@$$CBV?$basic_string@DU?$char_traits@D@std@@V?$allocator@D@2@@std@@V?$shared_ptr@VRawImageData@@@2@@std@@@std@@@2@$00@std@@QAE@U_Zero_then_variadic_args_t@1@@Z 0040a250 f i bullet.obj
 0001:00009280       ??$?0$$V@?$_Compressed_pair@V?$allocator@U?$_Tree_node@U?$pair@$$CBV?$basic_string@DU?$char_traits@D@std@@V?$allocator@D@2@@std@@V?$weak_ptr@VRawImageData@@@2@@std@@PAX@std@@@std@@V?$_Tree_val@U?$_Tree_simple_types@U?$pair@$$CBV?$basic_string@DU?$char_traits@D@std@@V?$allocator@D@2@@std@@V?$weak_ptr@VRawImageData@@@2@@std@@@std@@@2@$00@std@@QAE@U_Zero_then_variadic_args_t@1@@Z 0040a280 f i bullet.obj
 0001:000092b0       ??$?0AAPAU?$_Tree_node@U?$pair@$$CBV?$basic_string@DU?$char_traits@D@std@@V?$allocator@D@2@@std@@V?$shared_ptr@VRawImageData@@@2@@std@@PAX@std@@_N$0A@@?$pair@PAU?$_Tree_node@U?$pair@$$CBV?$basic_string@DU?$char_traits@D@std@@V?$allocator@D@2@@std@@V?$shared_ptr@VRawImageData@@@2@@std@@PAX@std@@_N@std@@QAE@AAPAU?$_Tree_node@U?$pair@$$CBV?$basic_string@DU?$char_traits@D@std@@V?$allocator@D@2@@std@@V?$shared_ptr@VRawImageData@@@2@@std@@PAX@1@$$QA_N@Z 0040a2b0 f i bullet.obj
 0001:00009300       ??$?0AAPAU?$_Tree_node@U?$pair@$$CBV?$basic_string@DU?$char_traits@D@std@@V?$allocator@D@2@@std@@V?$weak_ptr@VRawImageData@@@2@@std@@PAX@std@@_N$0A@@?$pair@PAU?$_Tree_node@U?$pair@$$CBV?$basic_string@DU?$char_traits@D@std@@V?$allocator@D@2@@std@@V?$weak_ptr@VRawImageData@@@2@@std@@PAX@std@@_N@std@@QAE@AAPAU?$_Tree_node@U?$pair@$$CBV?$basic_string@DU?$char_traits@D@std@@V?$allocator@D@2@@std@@V?$weak_ptr@VRawImageData@@@2@@std@@PAX@1@$$QA_N@Z 0040a300 f i bullet.obj
 0001:00009350       ??$?0AAV?$basic_string@DU?$char_traits@D@std@@V?$allocator@D@2@@std@@AAV?$shared_ptr@VRawImageData@@@1@$0A@@?$pair@V?$basic_string@DU?$char_traits@D@std@@V?$allocator@D@2@@std@@V?$shared_ptr@VRawImageData@@@2@@std@@QAE@AAV?$basic_string@DU?$char_traits@D@std@@V?$allocator@D@2@@1@AAV?$shared_ptr@VRawImageData@@@1@@Z 0040a350 f i bullet.obj
 0001:000093a0       ??$?0AAV?$basic_string@DU?$char_traits@D@std@@V?$allocator@D@2@@std@@AAV?$weak_ptr@VRawImageData@@@1@$0A@@?$pair@V?$basic_string@DU?$char_traits@D@std@@V?$allocator@D@2@@std@@V?$weak_ptr@VRawImageData@@@2@@std@@QAE@AAV?$basic_string@DU?$char_traits@D@std@@V?$allocator@D@2@@1@AAV?$weak_ptr@VRawImageData@@@1@@Z 0040a3a0 f i bullet.obj
 0001:000093f0       ??$?0ABU?$less@V?$basic_string@DU?$char_traits@D@std@@V?$allocator@D@2@@std@@@std@@U_Zero_then_variadic_args_t@1@@?$_Compressed_pair@U?$less@V?$basic_string@DU?$char_traits@D@std@@V?$allocator@D@2@@std@@@std@@V?$_Compressed_pair@V?$allocator@U?$_Tree_node@U?$pair@$$CBV?$basic_string@DU?$char_traits@D@std@@V?$allocator@D@2@@std@@V?$shared_ptr@VRawImageData@@@2@@std@@PAX@std@@@std@@V?$_Tree_val@U?$_Tree_simple_types@U?$pair@$$CBV?$basic_string@DU?$char_traits@D@std@@V?$allocator@D@2@@std@@V?$shared_ptr@VRawImageData@@@2@@std@@@std@@@2@$00@2@$00@std@@QAE@U_One_then_variadic_args_t@1@ABU?$less@V?$basic_string@DU?$char_traits@D@std@@V?$allocator@D@2@@std@@@1@$$QAU_Zero_then_variadic_args_t@1@@Z 0040a3f0 f i bullet.obj
 0001:00009440       ??$?0ABU?$less@V?$basic_string@DU?$char_traits@D@std@@V?$allocator@D@2@@std@@@std@@U_Zero_then_variadic_args_t@1@@?$_Compressed_pair@U?$less@V?$basic_string@DU?$char_traits@D@std@@V?$allocator@D@2@@std@@@std@@V?$_Compressed_pair@V?$allocator@U?$_Tree_node@U?$pair@$$CBV?$basic_string@DU?$char_traits@D@std@@V?$allocator@D@2@@std@@V?$weak_ptr@VRawImageData@@@2@@std@@PAX@std@@@std@@V?$_Tree_val@U?$_Tree_simple_types@U?$pair@$$CBV?$basic_string@DU?$char_traits@D@std@@V?$allocator@D@2@@std@@V?$weak_ptr@VRawImageData@@@2@@std@@@std@@@2@$00@2@$00@std@@QAE@U_One_then_variadic_args_t@1@ABU?$less@V?$basic_string@DU?$char_traits@D@std@@V?$allocator@D@2@@std@@@1@$$QAU_Zero_then_variadic_args_t@1@@Z 0040a440 f i bullet.obj
 0001:00009490       ??$?0D@?$allocator@U_Container_proxy@std@@@std@@QAE@ABV?$allocator@D@1@@Z 0040a490 f i bullet.obj
 0001:000094b0       ??$?0PAU?$_Tree_node@U?$pair@$$CBV?$basic_string@DU?$char_traits@D@std@@V?$allocator@D@2@@std@@V?$shared_ptr@VRawImageData@@@2@@std@@PAX@std@@_N$0A@@?$pair@PAU?$_Tree_node@U?$pair@$$CBV?$basic_string@DU?$char_traits@D@std@@V?$allocator@D@2@@std@@V?$shared_ptr@VRawImageData@@@2@@std@@PAX@std@@_N@std@@QAE@$$QAPAU?$_Tree_node@U?$pair@$$CBV?$basic_string@DU?$char_traits@D@std@@V?$allocator@D@2@@std@@V?$shared_ptr@VRawImageData@@@2@@std@@PAX@1@$$QA_N@Z 0040a4b0 f i bullet.obj
 0001:00009500       ??$?0PAU?$_Tree_node@U?$pair@$$CBV?$basic_string@DU?$char_traits@D@std@@V?$allocator@D@2@@std@@V?$weak_ptr@VRawImageData@@@2@@std@@PAX@std@@_N$0A@@?$pair@PAU?$_Tree_node@U?$pair@$$CBV?$basic_string@DU?$char_traits@D@std@@V?$allocator@D@2@@std@@V?$weak_ptr@VRawImageData@@@2@@std@@PAX@std@@_N@std@@QAE@$$QAPAU?$_Tree_node@U?$pair@$$CBV?$basic_string@DU?$char_traits@D@std@@V?$allocator@D@2@@std@@V?$weak_ptr@VRawImageData@@@2@@std@@PAX@1@$$QA_N@Z 0040a500 f i bullet.obj
 0001:00009550       ??$?0U?$_Tree_node@U?$pair@$$CBV?$basic_string@DU?$char_traits@D@std@@V?$allocator@D@2@@std@@V?$shared_ptr@VRawImageData@@@2@@std@@PAX@std@@@?$allocator@U_Container_proxy@std@@@std@@QAE@ABV?$allocator@U?$_Tree_node@U?$pair@$$CBV?$basic_string@DU?$char_traits@D@std@@V?$allocator@D@2@@std@@V?$shared_ptr@VRawImageData@@@2@@std@@PAX@std@@@1@@Z 0040a550 f i bullet.obj
 0001:00009570       ??$?0U?$_Tree_node@U?$pair@$$CBV?$basic_string@DU?$char_traits@D@std@@V?$allocator@D@2@@std@@V?$weak_ptr@VRawImageData@@@2@@std@@PAX@std@@@?$allocator@U_Container_proxy@std@@@std@@QAE@ABV?$allocator@U?$_Tree_node@U?$pair@$$CBV?$basic_string@DU?$char_traits@D@std@@V?$allocator@D@2@@std@@V?$weak_ptr@VRawImageData@@@2@@std@@PAX@std@@@1@@Z 0040a570 f i bullet.obj
 0001:00009590       ??$?0U?$pair@V?$basic_string@DU?$char_traits@D@std@@V?$allocator@D@2@@std@@V?$shared_ptr@VRawImageData@@@2@@std@@@?$_Tree_temp_node@V?$allocator@U?$_Tree_node@U?$pair@$$CBV?$basic_string@DU?$char_traits@D@std@@V?$allocator@D@2@@std@@V?$shared_ptr@VRawImageData@@@2@@std@@PAX@std@@@std@@@std@@QAE@AAV?$allocator@U?$_Tree_node@U?$pair@$$CBV?$basic_string@DU?$char_traits@D@std@@V?$allocator@D@2@@std@@V?$shared_ptr@VRawImageData@@@2@@std@@PAX@std@@@1@PAU?$_Tree_node@U?$pair@$$CBV?$basic_string@DU?$char_traits@D@std@@V?$allocator@D@2@@std@@V?$shared_ptr@VRawImageData@@@2@@std@@PAX@1@$$QAU?$pair@V?$basic_string@DU?$char_traits@D@std@@V?$allocator@D@2@@std@@V?$shared_ptr@VRawImageData@@@2@@1@@Z 0040a590 f i bullet.obj
 0001:000096a0       ??$?0U?$pair@V?$basic_string@DU?$char_traits@D@std@@V?$allocator@D@2@@std@@V?$weak_ptr@VRawImageData@@@2@@std@@@?$_Tree_temp_node@V?$allocator@U?$_Tree_node@U?$pair@$$CBV?$basic_string@DU?$char_traits@D@std@@V?$allocator@D@2@@std@@V?$weak_ptr@VRawImageData@@@2@@std@@PAX@std@@@std@@@std@@QAE@AAV?$allocator@U?$_Tree_node@U?$pair@$$CBV?$basic_string@DU?$char_traits@D@std@@V?$allocator@D@2@@std@@V?$weak_ptr@VRawImageData@@@2@@std@@PAX@std@@@1@PAU?$_Tree_node@U?$pair@$$CBV?$basic_string@DU?$char_traits@D@std@@V?$allocator@D@2@@std@@V?$weak_ptr@VRawImageData@@@2@@std@@PAX@1@$$QAU?$pair@V?$basic_string@DU?$char_traits@D@std@@V?$allocator@D@2@@std@@V?$weak_ptr@VRawImageData@@@2@@1@@Z 0040a6a0 f i bullet.obj
 0001:000097b0       ??$?0USDL_Rect@@@?$allocator@U_Container_proxy@std@@@std@@QAE@ABV?$allocator@USDL_Rect@@@1@@Z 0040a7b0 f i bullet.obj
 0001:000097d0       ??$?0V?$_Tree_iterator@V?$_Tree_val@U?$_Tree_simple_types@U?$pair@$$CBV?$basic_string@DU?$char_traits@D@std@@V?$allocator@D@2@@std@@V?$shared_ptr@VRawImageData@@@2@@std@@@std@@@std@@@std@@AB_N$0A@@?$pair@V?$_Tree_iterator@V?$_Tree_val@U?$_Tree_simple_types@U?$pair@$$CBV?$basic_string@DU?$char_traits@D@std@@V?$allocator@D@2@@std@@V?$shared_ptr@VRawImageData@@@2@@std@@@std@@@std@@@std@@_N@std@@QAE@$$QAV?$_Tree_iterator@V?$_Tree_val@U?$_Tree_simple_types@U?$pair@$$CBV?$basic_string@DU?$char_traits@D@std@@V?$allocator@D@2@@std@@V?$shared_ptr@VRawImageData@@@2@@std@@@std@@@std@@@1@AB_N@Z 0040a7d0 f i bullet.obj
 0001:00009820       ??$?0V?$_Tree_iterator@V?$_Tree_val@U?$_Tree_simple_types@U?$pair@$$CBV?$basic_string@DU?$char_traits@D@std@@V?$allocator@D@2@@std@@V?$weak_ptr@VRawImageData@@@2@@std@@@std@@@std@@@std@@AB_N$0A@@?$pair@V?$_Tree_iterator@V?$_Tree_val@U?$_Tree_simple_types@U?$pair@$$CBV?$basic_string@DU?$char_traits@D@std@@V?$allocator@D@2@@std@@V?$weak_ptr@VRawImageData@@@2@@std@@@std@@@std@@@std@@_N@std@@QAE@$$QAV?$_Tree_iterator@V?$_Tree_val@U?$_Tree_simple_types@U?$pair@$$CBV?$basic_string@DU?$char_traits@D@std@@V?$allocator@D@2@@std@@V?$weak_ptr@VRawImageData@@@2@@std@@@std@@@std@@@1@AB_N@Z 0040a820 f i bullet.obj
 0001:00009870       ??$?0V?$allocator@D@std@@$$V@?$_Compressed_pair@V?$allocator@D@std@@V?$_String_val@U?$_Simple_types@D@std@@@2@$00@std@@QAE@U_One_then_variadic_args_t@1@$$QAV?$allocator@D@1@@Z 0040a870 f i bullet.obj
 0001:000098a0       ??$?0V?$allocator@USDL_Rect@@@std@@$$V@?$_Compressed_pair@V?$allocator@USDL_Rect@@@std@@V?$_Vector_val@U?$_Simple_types@USDL_Rect@@@std@@@2@$00@std@@QAE@U_One_then_variadic_args_t@1@$$QAV?$allocator@USDL_Rect@@@1@@Z 0040a8a0 f i bullet.obj
 0001:000098d0       ??$?0V?$basic_string@DU?$char_traits@D@std@@V?$allocator@D@2@@std@@V?$shared_ptr@VRawImageData@@@1@$0A@@?$pair@$$CBV?$basic_string@DU?$char_traits@D@std@@V?$allocator@D@2@@std@@V?$shared_ptr@VRawImageData@@@2@@std@@QAE@$$QAU?$pair@V?$basic_string@DU?$char_traits@D@std@@V?$allocator@D@2@@std@@V?$shared_ptr@VRawImageData@@@2@@1@@Z 0040a8d0 f i bullet.obj
 0001:00009920       ??$?0V?$basic_string@DU?$char_traits@D@std@@V?$allocator@D@2@@std@@V?$weak_ptr@VRawImageData@@@1@$0A@@?$pair@$$CBV?$basic_string@DU?$char_traits@D@std@@V?$allocator@D@2@@std@@V?$weak_ptr@VRawImageData@@@2@@std@@QAE@$$QAU?$pair@V?$basic_string@DU?$char_traits@D@std@@V?$allocator@D@2@@std@@V?$weak_ptr@VRawImageData@@@2@@1@@Z 0040a920 f i bullet.obj
 0001:00009970       ??$?0VRawImageData@@$0A@@?$shared_ptr@VRawImageData@@@std@@QAE@PAVRawImageData@@@Z 0040a970 f i bullet.obj
 0001:00009a60       ??$?0VRawImageData@@$0A@@?$weak_ptr@VRawImageData@@@std@@QAE@ABV?$shared_ptr@VRawImageData@@@1@@Z 0040aa60 f i bullet.obj
 0001:00009a90       ??$?6DU?$char_traits@D@std@@V?$allocator@D@1@@std@@YAAAV?$basic_ostream@DU?$char_traits@D@std@@@0@AAV10@ABV?$basic_string@DU?$char_traits@D@std@@V?$allocator@D@2@@0@@Z 0040aa90 f i bullet.obj
 0001:00009ac0       ??$?9VRawImageData@@@std@@YA_NABV?$shared_ptr@VRawImageData@@@0@$$T@Z 0040aac0 f i bullet.obj
 0001:00009af0       ??$?CVRawImageData@@$0A@@?$shared_ptr@VRawImageData@@@std@@QBEPAVRawImageData@@XZ 0040aaf0 f i bullet.obj
 0001:00009b10       ??$?MDU?$char_traits@D@std@@V?$allocator@D@1@@std@@YA_NABV?$basic_string@DU?$char_traits@D@std@@V?$allocator@D@2@@0@0@Z 0040ab10 f i bullet.obj
 0001:00009b50       ??$_Alloc_proxy@V?$allocator@U_Container_proxy@std@@@std@@@_Container_base12@std@@QAEX$$QAV?$allocator@U_Container_proxy@std@@@1@@Z 0040ab50 f i bullet.obj
 0001:00009bb0       ??$_Allocate@$07U_Default_allocate_traits@std@@$0A@@std@@YAPAXI@Z 0040abb0 f i bullet.obj
 0001:00009bf0       ??$_Allocate_manually_vector_aligned@U_Default_allocate_traits@std@@@std@@YAPAXI@Z 0040abf0 f i bullet.obj
 0001:00009cd0       ??$_Buyheadnode@V?$allocator@U?$_Tree_node@U?$pair@$$CBV?$basic_string@DU?$char_traits@D@std@@V?$allocator@D@2@@std@@V?$shared_ptr@VRawImageData@@@2@@std@@PAX@std@@@std@@@?$_Tree_node@U?$pair@$$CBV?$basic_string@DU?$char_traits@D@std@@V?$allocator@D@2@@std@@V?$shared_ptr@VRawImageData@@@2@@std@@PAX@std@@SAPAU01@AAV?$allocator@U?$_Tree_node@U?$pair@$$CBV?$basic_string@DU?$char_traits@D@std@@V?$allocator@D@2@@std@@V?$shared_ptr@VRawImageData@@@2@@std@@PAX@std@@@1@@Z 0040acd0 f i bullet.obj
 0001:00009d50       ??$_Buyheadnode@V?$allocator@U?$_Tree_node@U?$pair@$$CBV?$basic_string@DU?$char_traits@D@std@@V?$allocator@D@2@@std@@V?$weak_ptr@VRawImageData@@@2@@std@@PAX@std@@@std@@@?$_Tree_node@U?$pair@$$CBV?$basic_string@DU?$char_traits@D@std@@V?$allocator@D@2@@std@@V?$weak_ptr@VRawImageData@@@2@@std@@PAX@std@@SAPAU01@AAV?$allocator@U?$_Tree_node@U?$pair@$$CBV?$basic_string@DU?$char_traits@D@std@@V?$allocator@D@2@@std@@V?$weak_ptr@VRawImageData@@@2@@std@@PAX@std@@@1@@Z 0040ad50 f i bullet.obj
 0001:00009dd0       ??$_Construct_from_weak@VRawImageData@@@?$_Ptr_base@VRawImageData@@@std@@IAE_NABV?$weak_ptr@VRawImageData@@@1@@Z 0040add0 f i bullet.obj
 0001:00009e30       ??$_Construct_in_place@PADABQAD@std@@YAXAAPADABQAD@Z 0040ae30 f i bullet.obj
 0001:00009e80       ??$_Construct_in_place@PAU?$_Tree_node@U?$pair@$$CBV?$basic_string@DU?$char_traits@D@std@@V?$allocator@D@2@@std@@V?$shared_ptr@VRawImageData@@@2@@std@@PAX@std@@AAPAU12@@std@@YAXAAPAU?$_Tree_node@U?$pair@$$CBV?$basic_string@DU?$char_traits@D@std@@V?$allocator@D@2@@std@@V?$shared_ptr@VRawImageData@@@2@@std@@PAX@0@0@Z 0040ae80 f i bullet.obj
 0001:00009ed0       ??$_Construct_in_place@PAU?$_Tree_node@U?$pair@$$CBV?$basic_string@DU?$char_traits@D@std@@V?$allocator@D@2@@std@@V?$shared_ptr@VRawImageData@@@2@@std@@PAX@std@@ABQAU12@@std@@YAXAAPAU?$_Tree_node@U?$pair@$$CBV?$basic_string@DU?$char_traits@D@std@@V?$allocator@D@2@@std@@V?$shared_ptr@VRawImageData@@@2@@std@@PAX@0@ABQAU10@@Z 0040aed0 f i bullet.obj
 0001:00009f20       ??$_Construct_in_place@PAU?$_Tree_node@U?$pair@$$CBV?$basic_string@DU?$char_traits@D@std@@V?$allocator@D@2@@std@@V?$weak_ptr@VRawImageData@@@2@@std@@PAX@std@@AAPAU12@@std@@YAXAAPAU?$_Tree_node@U?$pair@$$CBV?$basic_string@DU?$char_traits@D@std@@V?$allocator@D@2@@std@@V?$weak_ptr@VRawImageData@@@2@@std@@PAX@0@0@Z 0040af20 f i bullet.obj
 0001:00009f70       ??$_Construct_in_place@PAU?$_Tree_node@U?$pair@$$CBV?$basic_string@DU?$char_traits@D@std@@V?$allocator@D@2@@std@@V?$weak_ptr@VRawImageData@@@2@@std@@PAX@std@@ABQAU12@@std@@YAXAAPAU?$_Tree_node@U?$pair@$$CBV?$basic_string@DU?$char_traits@D@std@@V?$allocator@D@2@@std@@V?$weak_ptr@VRawImageData@@@2@@std@@PAX@0@ABQAU10@@Z 0040af70 f i bullet.obj
 0001:00009fc0       ??$_Construct_in_place@U_Container_proxy@std@@PAU_Container_base12@2@@std@@YAXAAU_Container_proxy@0@$$QAPAU_Container_base12@0@@Z 0040afc0 f i bullet.obj
 0001:0000a010       ??$_Convert_size@I@std@@YAII@Z 0040b010 f i bullet.obj
 0001:0000a020       ??$_Copy_construct_from@VRawImageData@@@?$_Ptr_base@VRawImageData@@@std@@IAEXABV?$shared_ptr@VRawImageData@@@1@@Z 0040b020 f i bullet.obj
 0001:0000a060       ??$_Copy_memmove@PAUSDL_Rect@@PAU1@@std@@YAPAUSDL_Rect@@PAU1@00@Z 0040b060 f i bullet.obj
 0001:0000a0b0       ??$_Deallocate@$07$0A@@std@@YAXPAXI@Z 0040b0b0 f i bullet.obj
 0001:0000a130       ??$_Deallocate_plain@V?$allocator@U_Container_proxy@std@@@std@@@std@@YAXAAV?$allocator@U_Container_proxy@std@@@0@QAU_Container_proxy@0@@Z 0040b130 f i bullet.obj
 0001:0000a190       ??$_Debug_lt_pred@ABU?$less@V?$basic_string@DU?$char_traits@D@std@@V?$allocator@D@2@@std@@@std@@ABV?$basic_string@DU?$char_traits@D@std@@V?$allocator@D@2@@2@ABV32@$0A@@std@@YA_NABU?$less@V?$basic_string@DU?$char_traits@D@std@@V?$allocator@D@2@@std@@@0@ABV?$basic_string@DU?$char_traits@D@std@@V?$allocator@D@2@@0@1@Z 0040b190 f i bullet.obj
 0001:0000a240       ??$_Delete_plain_internal@V?$allocator@U_Container_proxy@std@@@std@@@std@@YAXAAV?$allocator@U_Container_proxy@std@@@0@QAU_Container_proxy@0@@Z 0040b240 f i bullet.obj
 0001:0000a260       ??$_Destroy_in_place@PAD@std@@YAXAAPAD@Z 0040b260 f i bullet.obj
 0001:0000a270       ??$_Destroy_in_place@PAU?$_Tree_node@U?$pair@$$CBV?$basic_string@DU?$char_traits@D@std@@V?$allocator@D@2@@std@@V?$shared_ptr@VRawImageData@@@2@@std@@PAX@std@@@std@@YAXAAPAU?$_Tree_node@U?$pair@$$CBV?$basic_string@DU?$char_traits@D@std@@V?$allocator@D@2@@std@@V?$shared_ptr@VRawImageData@@@2@@std@@PAX@0@@Z 0040b270 f i bullet.obj
 0001:0000a280       ??$_Destroy_in_place@PAU?$_Tree_node@U?$pair@$$CBV?$basic_string@DU?$char_traits@D@std@@V?$allocator@D@2@@std@@V?$weak_ptr@VRawImageData@@@2@@std@@PAX@std@@@std@@YAXAAPAU?$_Tree_node@U?$pair@$$CBV?$basic_string@DU?$char_traits@D@std@@V?$allocator@D@2@@std@@V?$weak_ptr@VRawImageData@@@2@@std@@PAX@0@@Z 0040b280 f i bullet.obj
 0001:0000a290       ??$_Destroy_range@V?$allocator@USDL_Rect@@@std@@@std@@YAXPAUSDL_Rect@@QAU1@AAV?$allocator@USDL_Rect@@@0@@Z 0040b290 f i bullet.obj
 0001:0000a2a0       ??$_Emplace@U?$pair@V?$basic_string@DU?$char_traits@D@std@@V?$allocator@D@2@@std@@V?$shared_ptr@VRawImageData@@@2@@std@@@?$_Tree@V?$_Tmap_traits@V?$basic_string@DU?$char_traits@D@std@@V?$allocator@D@2@@std@@V?$shared_ptr@VRawImageData@@@2@U?$less@V?$basic_string@DU?$char_traits@D@std@@V?$allocator@D@2@@std@@@2@V?$allocator@U?$pair@$$CBV?$basic_string@DU?$char_traits@D@std@@V?$allocator@D@2@@std@@V?$shared_ptr@VRawImageData@@@2@@std@@@2@$0A@@std@@@std@@IAE?AU?$pair@PAU?$_Tree_node@U?$pair@$$CBV?$basic_string@DU?$char_traits@D@std@@V?$allocator@D@2@@std@@V?$shared_ptr@VRawImageData@@@2@@std@@PAX@std@@_N@1@$$QAU?$pair@V?$basic_string@DU?$char_traits@D@std@@V?$allocator@D@2@@std@@V?$shared_ptr@VRawImageData@@@2@@1@@Z 0040b2a0 f i bullet.obj
 0001:0000a3d0       ??$_Emplace@U?$pair@V?$basic_string@DU?$char_traits@D@std@@V?$allocator@D@2@@std@@V?$weak_ptr@VRawImageData@@@2@@std@@@?$_Tree@V?$_Tmap_traits@V?$basic_string@DU?$char_traits@D@std@@V?$allocator@D@2@@std@@V?$weak_ptr@VRawImageData@@@2@U?$less@V?$basic_string@DU?$char_traits@D@std@@V?$allocator@D@2@@std@@@2@V?$allocator@U?$pair@$$CBV?$basic_string@DU?$char_traits@D@std@@V?$allocator@D@2@@std@@V?$weak_ptr@VRawImageData@@@2@@std@@@2@$0A@@std@@@std@@IAE?AU?$pair@PAU?$_Tree_node@U?$pair@$$CBV?$basic_string@DU?$char_traits@D@std@@V?$allocator@D@2@@std@@V?$weak_ptr@VRawImageData@@@2@@std@@PAX@std@@_N@1@$$QAU?$pair@V?$basic_string@DU?$char_traits@D@std@@V?$allocator@D@2@@std@@V?$weak_ptr@VRawImageData@@@2@@1@@Z 0040b3d0 f i bullet.obj
 0001:0000a500       ??$_Emplace_back_with_unused_capacity@ABUSDL_Rect@@@?$vector@USDL_Rect@@V?$allocator@USDL_Rect@@@std@@@std@@AAE@ABUSDL_Rect@@@Z 0040b500 f i bullet.obj
 0001:0000a5a0       ??$_Emplace_reallocate@ABUSDL_Rect@@@?$vector@USDL_Rect@@V?$allocator@USDL_Rect@@@std@@@std@@QAEPAUSDL_Rect@@QAU2@ABU2@@Z 0040b5a0 f i bullet.obj
 0001:0000a7f0       ??$_Erase_head@V?$allocator@U?$_Tree_node@U?$pair@$$CBV?$basic_string@DU?$char_traits@D@std@@V?$allocator@D@2@@std@@V?$weak_ptr@VRawImageData@@@2@@std@@PAX@std@@@std@@@?$_Tree_val@U?$_Tree_simple_types@U?$pair@$$CBV?$basic_string@DU?$char_traits@D@std@@V?$allocator@D@2@@std@@V?$weak_ptr@VRawImageData@@@2@@std@@@std@@@std@@QAEXAAV?$allocator@U?$_Tree_node@U?$pair@$$CBV?$basic_string@DU?$char_traits@D@std@@V?$allocator@D@2@@std@@V?$weak_ptr@VRawImageData@@@2@@std@@PAX@std@@@1@@Z 0040b7f0 f i bullet.obj
 0001:0000a840       ??$_Erase_tree@V?$allocator@U?$_Tree_node@U?$pair@$$CBV?$basic_string@DU?$char_traits@D@std@@V?$allocator@D@2@@std@@V?$weak_ptr@VRawImageData@@@2@@std@@PAX@std@@@std@@@?$_Tree_val@U?$_Tree_simple_types@U?$pair@$$CBV?$basic_string@DU?$char_traits@D@std@@V?$allocator@D@2@@std@@V?$weak_ptr@VRawImageData@@@2@@std@@@std@@@std@@QAEXAAV?$allocator@U?$_Tree_node@U?$pair@$$CBV?$basic_string@DU?$char_traits@D@std@@V?$allocator@D@2@@std@@V?$weak_ptr@VRawImageData@@@2@@std@@PAX@std@@@1@PAU?$_Tree_node@U?$pair@$$CBV?$basic_string@DU?$char_traits@D@std@@V?$allocator@D@2@@std@@V?$weak_ptr@VRawImageData@@@2@@std@@PAX@1@@Z 0040b840 f i bullet.obj
 0001:0000a8a0       ??$_Find@V?$basic_string@DU?$char_traits@D@std@@V?$allocator@D@2@@std@@@?$_Tree@V?$_Tmap_traits@V?$basic_string@DU?$char_traits@D@std@@V?$allocator@D@2@@std@@V?$weak_ptr@VRawImageData@@@2@U?$less@V?$basic_string@DU?$char_traits@D@std@@V?$allocator@D@2@@std@@@2@V?$allocator@U?$pair@$$CBV?$basic_string@DU?$char_traits@D@std@@V?$allocator@D@2@@std@@V?$weak_ptr@VRawImageData@@@2@@std@@@2@$0A@@std@@@std@@ABEPAU?$_Tree_node@U?$pair@$$CBV?$basic_string@DU?$char_traits@D@std@@V?$allocator@D@2@@std@@V?$weak_ptr@VRawImageData@@@2@@std@@PAX@1@ABV?$basic_string@DU?$char_traits@D@std@@V?$allocator@D@2@@1@@Z 0040b8a0 f i bullet.obj
 0001:0000a900       ??$_Find_lower_bound@V?$basic_string@DU?$char_traits@D@std@@V?$allocator@D@2@@std@@@?$_Tree@V?$_Tmap_traits@V?$basic_string@DU?$char_traits@D@std@@V?$allocator@D@2@@std@@V?$shared_ptr@VRawImageData@@@2@U?$less@V?$basic_string@DU?$char_traits@D@std@@V?$allocator@D@2@@std@@@2@V?$allocator@U?$pair@$$CBV?$basic_string@DU?$char_traits@D@std@@V?$allocator@D@2@@std@@V?$shared_ptr@VRawImageData@@@2@@std@@@2@$0A@@std@@@std@@IBE?AU?$_Tree_find_result@PAU?$_Tree_node@U?$pair@$$CBV?$basic_string@DU?$char_traits@D@std@@V?$allocator@D@2@@std@@V?$shared_ptr@VRawImageData@@@2@@std@@PAX@std@@@1@ABV?$basic_string@DU?$char_traits@D@std@@V?$allocator@D@2@@1@@Z 0040b900 f i bullet.obj
 0001:0000a9f0       ??$_Find_lower_bound@V?$basic_string@DU?$char_traits@D@std@@V?$allocator@D@2@@std@@@?$_Tree@V?$_Tmap_traits@V?$basic_string@DU?$char_traits@D@std@@V?$allocator@D@2@@std@@V?$weak_ptr@VRawImageData@@@2@U?$less@V?$basic_string@DU?$char_traits@D@std@@V?$allocator@D@2@@std@@@2@V?$allocator@U?$pair@$$CBV?$basic_string@DU?$char_traits@D@std@@V?$allocator@D@2@@std@@V?$weak_ptr@VRawImageData@@@2@@std@@@2@$0A@@std@@@std@@IBE?AU?$_Tree_find_result@PAU?$_Tree_node@U?$pair@$$CBV?$basic_string@DU?$char_traits@D@std@@V?$allocator@D@2@@std@@V?$weak_ptr@VRawImageData@@@2@@std@@PAX@std@@@1@ABV?$basic_string@DU?$char_traits@D@std@@V?$allocator@D@2@@1@@Z 0040b9f0 f i bullet.obj
 0001:0000aae0       ??$_Freenode0@V?$allocator@U?$_Tree_node@U?$pair@$$CBV?$basic_string@DU?$char_traits@D@std@@V?$allocator@D@2@@std@@V?$weak_ptr@VRawImageData@@@2@@std@@PAX@std@@@std@@@?$_Tree_node@U?$pair@$$CBV?$basic_string@DU?$char_traits@D@std@@V?$allocator@D@2@@std@@V?$weak_ptr@VRawImageData@@@2@@std@@PAX@std@@SAXAAV?$allocator@U?$_Tree_node@U?$pair@$$CBV?$basic_string@DU?$char_traits@D@std@@V?$allocator@D@2@@std@@V?$weak_ptr@VRawImageData@@@2@@std@@PAX@std@@@1@PAU01@@Z 0040bae0 f i bullet.obj
 0001:0000ab70       ??$_Freenode@V?$allocator@U?$_Tree_node@U?$pair@$$CBV?$basic_string@DU?$char_traits@D@std@@V?$allocator@D@2@@std@@V?$weak_ptr@VRawImageData@@@2@@std@@PAX@std@@@std@@@?$_Tree_node@U?$pair@$$CBV?$basic_string@DU?$char_traits@D@std@@V?$allocator@D@2@@std@@V?$weak_ptr@VRawImageData@@@2@@std@@PAX@std@@SAXAAV?$allocator@U?$_Tree_node@U?$pair@$$CBV?$basic_string@DU?$char_traits@D@std@@V?$allocator@D@2@@std@@V?$weak_ptr@VRawImageData@@@2@@std@@PAX@std@@@1@PAU01@@Z 0040bb70 f i bullet.obj
 0001:0000abf0       ??$_Get_size_of_n@$00@std@@YAII@Z 0040bbf0 f i bullet.obj
 0001:0000ac10       ??$_Get_size_of_n@$07@std@@YAII@Z 0040bc10 f i bullet.obj
 0001:0000ac50       ??$_Get_size_of_n@$0BA@@std@@YAII@Z 0040bc50 f i bullet.obj
 0001:0000ac90       ??$_Get_size_of_n@$0DE@@std@@YAII@Z 0040bc90 f i bullet.obj
 0001:0000acc0       ??$_Get_unwrapped@ABQAUSDL_Rect@@@std@@YA@ABQAUSDL_Rect@@@Z 0040bcc0 f i bullet.obj
 0001:0000acd0       ??$_Insert_string@DU?$char_traits@D@std@@I@std@@YAAAV?$basic_ostream@DU?$char_traits@D@std@@@0@AAV10@QBDI@Z 0040bcd0 f i bullet.obj
 0001:0000b050       ??$_Kfn@$$CBV?$basic_string@DU?$char_traits@D@std@@V?$allocator@D@2@@std@@V?$shared_ptr@VRawImageData@@@2@@?$_Tmap_traits@V?$basic_string@DU?$char_traits@D@std@@V?$allocator@D@2@@std@@V?$shared_ptr@VRawImageData@@@2@U?$less@V?$basic_string@DU?$char_traits@D@std@@V?$allocator@D@2@@std@@@2@V?$allocator@U?$pair@$$CBV?$basic_string@DU?$char_traits@D@std@@V?$allocator@D@2@@std@@V?$shared_ptr@VRawImageData@@@2@@std@@@2@$0A@@std@@SAABV?$basic_string@DU?$char_traits@D@std@@V?$allocator@D@2@@1@ABU?$pair@$$CBV?$basic_string@DU?$char_traits@D@std@@V?$allocator@D@2@@std@@V?$shared_ptr@VRawImageData@@@2@@1@@Z 0040c050 f i bullet.obj
 0001:0000b060       ??$_Kfn@$$CBV?$basic_string@DU?$char_traits@D@std@@V?$allocator@D@2@@std@@V?$weak_ptr@VRawImageData@@@2@@?$_Tmap_traits@V?$basic_string@DU?$char_traits@D@std@@V?$allocator@D@2@@std@@V?$weak_ptr@VRawImageData@@@2@U?$less@V?$basic_string@DU?$char_traits@D@std@@V?$allocator@D@2@@std@@@2@V?$allocator@U?$pair@$$CBV?$basic_string@DU?$char_traits@D@std@@V?$allocator@D@2@@std@@V?$weak_ptr@VRawImageData@@@2@@std@@@2@$0A@@std@@SAABV?$basic_string@DU?$char_traits@D@std@@V?$allocator@D@2@@1@ABU?$pair@$$CBV?$basic_string@DU?$char_traits@D@std@@V?$allocator@D@2@@std@@V?$weak_ptr@VRawImageData@@@2@@1@@Z 0040c060 f i bullet.obj
 0001:0000b070       ??$_Lower_bound_duplicate@V?$basic_string@DU?$char_traits@D@std@@V?$allocator@D@2@@std@@@?$_Tree@V?$_Tmap_traits@V?$basic_string@DU?$char_traits@D@std@@V?$allocator@D@2@@std@@V?$shared_ptr@VRawImageData@@@2@U?$less@V?$basic_string@DU?$char_traits@D@std@@V?$allocator@D@2@@std@@@2@V?$allocator@U?$pair@$$CBV?$basic_string@DU?$char_traits@D@std@@V?$allocator@D@2@@std@@V?$shared_ptr@VRawImageData@@@2@@std@@@2@$0A@@std@@@std@@IBE_NQAU?$_Tree_node@U?$pair@$$CBV?$basic_string@DU?$char_traits@D@std@@V?$allocator@D@2@@std@@V?$shared_ptr@VRawImageData@@@2@@std@@PAX@1@ABV?$basic_string@DU?$char_traits@D@std@@V?$allocator@D@2@@1@@Z 0040c070 f i bullet.obj
 0001:0000b0e0       ??$_Lower_bound_duplicate@V?$basic_string@DU?$char_traits@D@std@@V?$allocator@D@2@@std@@@?$_Tree@V?$_Tmap_traits@V?$basic_string@DU?$char_traits@D@std@@V?$allocator@D@2@@std@@V?$weak_ptr@VRawImageData@@@2@U?$less@V?$basic_string@DU?$char_traits@D@std@@V?$allocator@D@2@@std@@@2@V?$allocator@U?$pair@$$CBV?$basic_string@DU?$char_traits@D@std@@V?$allocator@D@2@@std@@V?$weak_ptr@VRawImageData@@@2@@std@@@2@$0A@@std@@@std@@IBE_NQAU?$_Tree_node@U?$pair@$$CBV?$basic_string@DU?$char_traits@D@std@@V?$allocator@D@2@@std@@V?$weak_ptr@VRawImageData@@@2@@std@@PAX@1@ABV?$basic_string@DU?$char_traits@D@std@@V?$allocator@D@2@@1@@Z 0040c0e0 f i bullet.obj
 0001:0000b150       ??$_Move_construct_from@VRawImageData@@@?$_Ptr_base@VRawImageData@@@std@@IAEX$$QAV01@@Z 0040c150 f i bullet.obj
 0001:0000b1a0       ??$_Reallocate_for@V<lambda_9366063389c5f42a00a5088cf24e69de>@@PBD@?$basic_string@DU?$char_traits@D@std@@V?$allocator@D@2@@std@@AAEAAV01@IV<lambda_9366063389c5f42a00a5088cf24e69de>@@PBD@Z 0040c1a0 f i bullet.obj
 0001:0000b2a0       ??$_Set_ptr_rep_and_enable_shared@VRawImageData@@@?$shared_ptr@VRawImageData@@@std@@AAEXQAVRawImageData@@QAV_Ref_count_base@1@@Z 0040c2a0 f i bullet.obj
 0001:0000b2d0       ??$_Traits_compare@U?$char_traits@D@std@@@std@@YAHQBDI0I@Z 0040c2d0 f i bullet.obj
 0001:0000b340       ??$_Ucopy@PAUSDL_Rect@@@?$vector@USDL_Rect@@V?$allocator@USDL_Rect@@@std@@@std@@AAEPAUSDL_Rect@@PAU2@00@Z 0040c340 f i bullet.obj
 0001:0000b380       ??$_Unfancy@D@std@@YAPADPAD@Z 0040c380 f i bullet.obj
 0001:0000b390       ??$_Unfancy@USDL_Rect@@@std@@YAPAUSDL_Rect@@PAU1@@Z 0040c390 f i bullet.obj
 0001:0000b3a0       ??$_Unfancy@U_Container_proxy@std@@@std@@YAPAU_Container_proxy@0@PAU10@@Z 0040c3a0 f i bullet.obj
 0001:0000b3b0       ??$_Uninitialized_copy@PAUSDL_Rect@@V?$allocator@USDL_Rect@@@std@@@std@@YAPAUSDL_Rect@@QAU1@0PAU1@AAV?$allocator@USDL_Rect@@@0@@Z 0040c3b0 f i bullet.obj
 0001:0000b420       ??$_Uninitialized_move@PAUSDL_Rect@@V?$allocator@USDL_Rect@@@std@@@std@@YAPAUSDL_Rect@@QAU1@0PAU1@AAV?$allocator@USDL_Rect@@@0@@Z 0040c420 f i bullet.obj
 0001:0000b490       ??$_Weakly_construct_from@VRawImageData@@@?$_Ptr_base@VRawImageData@@@std@@IAEXABV01@@Z 0040c490 f i bullet.obj
 0001:0000b4e0       ??$addressof@$$CBV?$_String_val@U?$_Simple_types@D@std@@@std@@@std@@YAPBV?$_String_val@U?$_Simple_types@D@std@@@0@ABV10@@Z 0040c4e0 f i bullet.obj
 0001:0000b4f0       ??$addressof@$$CBV?$_Tree_val@U?$_Tree_simple_types@U?$pair@$$CBV?$basic_string@DU?$char_traits@D@std@@V?$allocator@D@2@@std@@V?$shared_ptr@VRawImageData@@@2@@std@@@std@@@std@@@std@@YAPBV?$_Tree_val@U?$_Tree_simple_types@U?$pair@$$CBV?$basic_string@DU?$char_traits@D@std@@V?$allocator@D@2@@std@@V?$shared_ptr@VRawImageData@@@2@@std@@@std@@@0@ABV10@@Z 0040c4f0 f i bullet.obj
 0001:0000b500       ??$addressof@$$CBV?$_Tree_val@U?$_Tree_simple_types@U?$pair@$$CBV?$basic_string@DU?$char_traits@D@std@@V?$allocator@D@2@@std@@V?$weak_ptr@VRawImageData@@@2@@std@@@std@@@std@@@std@@YAPBV?$_Tree_val@U?$_Tree_simple_types@U?$pair@$$CBV?$basic_string@DU?$char_traits@D@std@@V?$allocator@D@2@@std@@V?$weak_ptr@VRawImageData@@@2@@std@@@std@@@0@ABV10@@Z 0040c500 f i bullet.obj
 0001:0000b510       ??$addressof@PAD@std@@YAPAPADAAPAD@Z 0040c510 f i bullet.obj
 0001:0000b520       ??$addressof@PAU?$_Tree_node@U?$pair@$$CBV?$basic_string@DU?$char_traits@D@std@@V?$allocator@D@2@@std@@V?$shared_ptr@VRawImageData@@@2@@std@@PAX@std@@@std@@YAPAPAU?$_Tree_node@U?$pair@$$CBV?$basic_string@DU?$char_traits@D@std@@V?$allocator@D@2@@std@@V?$shared_ptr@VRawImageData@@@2@@std@@PAX@0@AAPAU10@@Z 0040c520 f i bullet.obj
 0001:0000b530       ??$addressof@PAU?$_Tree_node@U?$pair@$$CBV?$basic_string@DU?$char_traits@D@std@@V?$allocator@D@2@@std@@V?$weak_ptr@VRawImageData@@@2@@std@@PAX@std@@@std@@YAPAPAU?$_Tree_node@U?$pair@$$CBV?$basic_string@DU?$char_traits@D@std@@V?$allocator@D@2@@std@@V?$weak_ptr@VRawImageData@@@2@@std@@PAX@0@AAPAU10@@Z 0040c530 f i bullet.obj
 0001:0000b540       ??$addressof@U?$pair@$$CBV?$basic_string@DU?$char_traits@D@std@@V?$allocator@D@2@@std@@V?$shared_ptr@VRawImageData@@@2@@std@@@std@@YAPAU?$pair@$$CBV?$basic_string@DU?$char_traits@D@std@@V?$allocator@D@2@@std@@V?$shared_ptr@VRawImageData@@@2@@0@AAU10@@Z 0040c540 f i bullet.obj
 0001:0000b550       ??$addressof@U?$pair@$$CBV?$basic_string@DU?$char_traits@D@std@@V?$allocator@D@2@@std@@V?$weak_ptr@VRawImageData@@@2@@std@@@std@@YAPAU?$pair@$$CBV?$basic_string@DU?$char_traits@D@std@@V?$allocator@D@2@@std@@V?$weak_ptr@VRawImageData@@@2@@0@AAU10@@Z 0040c550 f i bullet.obj
 0001:0000b560       ??$addressof@U_Container_base12@std@@@std@@YAPAU_Container_base12@0@AAU10@@Z 0040c560 f i bullet.obj
 0001:0000b570       ??$addressof@U_Container_proxy@std@@@std@@YAPAU_Container_proxy@0@AAU10@@Z 0040c570 f i bullet.obj
 0001:0000b580       ??$addressof@V?$_String_val@U?$_Simple_types@D@std@@@std@@@std@@YAPAV?$_String_val@U?$_Simple_types@D@std@@@0@AAV10@@Z 0040c580 f i bullet.obj
 0001:0000b590       ??$addressof@V?$_Tree_val@U?$_Tree_simple_types@U?$pair@$$CBV?$basic_string@DU?$char_traits@D@std@@V?$allocator@D@2@@std@@V?$shared_ptr@VRawImageData@@@2@@std@@@std@@@std@@@std@@YAPAV?$_Tree_val@U?$_Tree_simple_types@U?$pair@$$CBV?$basic_string@DU?$char_traits@D@std@@V?$allocator@D@2@@std@@V?$shared_ptr@VRawImageData@@@2@@std@@@std@@@0@AAV10@@Z 0040c590 f i bullet.obj
 0001:0000b5a0       ??$addressof@V?$_Tree_val@U?$_Tree_simple_types@U?$pair@$$CBV?$basic_string@DU?$char_traits@D@std@@V?$allocator@D@2@@std@@V?$weak_ptr@VRawImageData@@@2@@std@@@std@@@std@@@std@@YAPAV?$_Tree_val@U?$_Tree_simple_types@U?$pair@$$CBV?$basic_string@DU?$char_traits@D@std@@V?$allocator@D@2@@std@@V?$weak_ptr@VRawImageData@@@2@@std@@@std@@@0@AAV10@@Z 0040c5a0 f i bullet.obj
 0001:0000b5b0       ??$construct@U?$pair@$$CBV?$basic_string@DU?$char_traits@D@std@@V?$allocator@D@2@@std@@V?$shared_ptr@VRawImageData@@@2@@std@@U?$pair@V?$basic_string@DU?$char_traits@D@std@@V?$allocator@D@2@@std@@V?$shared_ptr@VRawImageData@@@2@@2@@?$_Default_allocator_traits@V?$allocator@U?$_Tree_node@U?$pair@$$CBV?$basic_string@DU?$char_traits@D@std@@V?$allocator@D@2@@std@@V?$shared_ptr@VRawImageData@@@2@@std@@PAX@std@@@std@@@std@@SAXAAV?$allocator@U?$_Tree_node@U?$pair@$$CBV?$basic_string@DU?$char_traits@D@std@@V?$allocator@D@2@@std@@V?$shared_ptr@VRawImageData@@@2@@std@@PAX@std@@@1@QAU?$pair@$$CBV?$basic_string@DU?$char_traits@D@std@@V?$allocator@D@2@@std@@V?$shared_ptr@VRawImageData@@@2@@1@$$QAU?$pair@V?$basic_string@DU?$char_traits@D@std@@V?$allocator@D@2@@std@@V?$shared_ptr@VRawImageData@@@2@@1@@Z 0040c5b0 f i bullet.obj
 0001:0000b5f0       ??$construct@U?$pair@$$CBV?$basic_string@DU?$char_traits@D@std@@V?$allocator@D@2@@std@@V?$weak_ptr@VRawImageData@@@2@@std@@U?$pair@V?$basic_string@DU?$char_traits@D@std@@V?$allocator@D@2@@std@@V?$weak_ptr@VRawImageData@@@2@@2@@?$_Default_allocator_traits@V?$allocator@U?$_Tree_node@U?$pair@$$CBV?$basic_string@DU?$char_traits@D@std@@V?$allocator@D@2@@std@@V?$weak_ptr@VRawImageData@@@2@@std@@PAX@std@@@std@@@std@@SAXAAV?$allocator@U?$_Tree_node@U?$pair@$$CBV?$basic_string@DU?$char_traits@D@std@@V?$allocator@D@2@@std@@V?$weak_ptr@VRawImageData@@@2@@std@@PAX@std@@@1@QAU?$pair@$$CBV?$basic_string@DU?$char_traits@D@std@@V?$allocator@D@2@@std@@V?$weak_ptr@VRawImageData@@@2@@1@$$QAU?$pair@V?$basic_string@DU?$char_traits@D@std@@V?$allocator@D@2@@std@@V?$weak_ptr@VRawImageData@@@2@@1@@Z 0040c5f0 f i bullet.obj
 0001:0000b630       ??$construct@USDL_Rect@@ABU1@@?$_Default_allocator_traits@V?$allocator@USDL_Rect@@@std@@@std@@SAXAAV?$allocator@USDL_Rect@@@1@QAUSDL_Rect@@ABU3@@Z 0040c630 f i bullet.obj
 0001:0000b680       ??$destroy@U?$pair@$$CBV?$basic_string@DU?$char_traits@D@std@@V?$allocator@D@2@@std@@V?$shared_ptr@VRawImageData@@@2@@std@@@?$_Default_allocator_traits@V?$allocator@U?$_Tree_node@U?$pair@$$CBV?$basic_string@DU?$char_traits@D@std@@V?$allocator@D@2@@std@@V?$shared_ptr@VRawImageData@@@2@@std@@PAX@std@@@std@@@std@@SAXAAV?$allocator@U?$_Tree_node@U?$pair@$$CBV?$basic_string@DU?$char_traits@D@std@@V?$allocator@D@2@@std@@V?$shared_ptr@VRawImageData@@@2@@std@@PAX@std@@@1@QAU?$pair@$$CBV?$basic_string@DU?$char_traits@D@std@@V?$allocator@D@2@@std@@V?$shared_ptr@VRawImageData@@@2@@1@@Z 0040c680 f i bullet.obj
 0001:0000b6a0       ??$destroy@U?$pair@$$CBV?$basic_string@DU?$char_traits@D@std@@V?$allocator@D@2@@std@@V?$weak_ptr@VRawImageData@@@2@@std@@@?$_Default_allocator_traits@V?$allocator@U?$_Tree_node@U?$pair@$$CBV?$basic_string@DU?$char_traits@D@std@@V?$allocator@D@2@@std@@V?$weak_ptr@VRawImageData@@@2@@std@@PAX@std@@@std@@@std@@SAXAAV?$allocator@U?$_Tree_node@U?$pair@$$CBV?$basic_string@DU?$char_traits@D@std@@V?$allocator@D@2@@std@@V?$weak_ptr@VRawImageData@@@2@@std@@PAX@std@@@1@QAU?$pair@$$CBV?$basic_string@DU?$char_traits@D@std@@V?$allocator@D@2@@std@@V?$weak_ptr@VRawImageData@@@2@@1@@Z 0040c6a0 f i bullet.obj
 0001:0000b6c0       ??$emplace@U?$pair@V?$basic_string@DU?$char_traits@D@std@@V?$allocator@D@2@@std@@V?$shared_ptr@VRawImageData@@@2@@std@@@?$_Tree@V?$_Tmap_traits@V?$basic_string@DU?$char_traits@D@std@@V?$allocator@D@2@@std@@V?$shared_ptr@VRawImageData@@@2@U?$less@V?$basic_string@DU?$char_traits@D@std@@V?$allocator@D@2@@std@@@2@V?$allocator@U?$pair@$$CBV?$basic_string@DU?$char_traits@D@std@@V?$allocator@D@2@@std@@V?$shared_ptr@VRawImageData@@@2@@std@@@2@$0A@@std@@@std@@QAE?AU?$pair@V?$_Tree_iterator@V?$_Tree_val@U?$_Tree_simple_types@U?$pair@$$CBV?$basic_string@DU?$char_traits@D@std@@V?$allocator@D@2@@std@@V?$shared_ptr@VRawImageData@@@2@@std@@@std@@@std@@@std@@_N@1@$$QAU?$pair@V?$basic_string@DU?$char_traits@D@std@@V?$allocator@D@2@@std@@V?$shared_ptr@VRawImageData@@@2@@1@@Z 0040c6c0 f i bullet.obj
 0001:0000b750       ??$emplace@U?$pair@V?$basic_string@DU?$char_traits@D@std@@V?$allocator@D@2@@std@@V?$weak_ptr@VRawImageData@@@2@@std@@@?$_Tree@V?$_Tmap_traits@V?$basic_string@DU?$char_traits@D@std@@V?$allocator@D@2@@std@@V?$weak_ptr@VRawImageData@@@2@U?$less@V?$basic_string@DU?$char_traits@D@std@@V?$allocator@D@2@@std@@@2@V?$allocator@U?$pair@$$CBV?$basic_string@DU?$char_traits@D@std@@V?$allocator@D@2@@std@@V?$weak_ptr@VRawImageData@@@2@@std@@@2@$0A@@std@@@std@@QAE?AU?$pair@V?$_Tree_iterator@V?$_Tree_val@U?$_Tree_simple_types@U?$pair@$$CBV?$basic_string@DU?$char_traits@D@std@@V?$allocator@D@2@@std@@V?$weak_ptr@VRawImageData@@@2@@std@@@std@@@std@@@std@@_N@1@$$QAU?$pair@V?$basic_string@DU?$char_traits@D@std@@V?$allocator@D@2@@std@@V?$weak_ptr@VRawImageData@@@2@@1@@Z 0040c750 f i bullet.obj
 0001:0000b7e0       ??$emplace_back@ABUSDL_Rect@@@?$vector@USDL_Rect@@V?$allocator@USDL_Rect@@@std@@@std@@QAE@ABUSDL_Rect@@@Z 0040c7e0 f i bullet.obj
 0001:0000b860       ??$erase@V?$_Tree_iterator@V?$_Tree_val@U?$_Tree_simple_types@U?$pair@$$CBV?$basic_string@DU?$char_traits@D@std@@V?$allocator@D@2@@std@@V?$weak_ptr@VRawImageData@@@2@@std@@@std@@@std@@@std@@$0A@@?$_Tree@V?$_Tmap_traits@V?$basic_string@DU?$char_traits@D@std@@V?$allocator@D@2@@std@@V?$weak_ptr@VRawImageData@@@2@U?$less@V?$basic_string@DU?$char_traits@D@std@@V?$allocator@D@2@@std@@@2@V?$allocator@U?$pair@$$CBV?$basic_string@DU?$char_traits@D@std@@V?$allocator@D@2@@std@@V?$weak_ptr@VRawImageData@@@2@@std@@@2@$0A@@std@@@std@@QAE?AV?$_Tree_iterator@V?$_Tree_val@U?$_Tree_simple_types@U?$pair@$$CBV?$basic_string@DU?$char_traits@D@std@@V?$allocator@D@2@@std@@V?$weak_ptr@VRawImageData@@@2@@std@@@std@@@std@@@1@V21@@Z 0040c860 f i bullet.obj
 0001:0000b9b0       ??$exchange@PAU?$_Tree_node@U?$pair@$$CBV?$basic_string@DU?$char_traits@D@std@@V?$allocator@D@2@@std@@V?$shared_ptr@VRawImageData@@@2@@std@@PAX@std@@$$T@std@@YAPAU?$_Tree_node@U?$pair@$$CBV?$basic_string@DU?$char_traits@D@std@@V?$allocator@D@2@@std@@V?$shared_ptr@VRawImageData@@@2@@std@@PAX@0@AAPAU10@$$QA$$T@Z 0040c9b0 f i bullet.obj
 0001:0000b9e0       ??$exchange@PAU?$_Tree_node@U?$pair@$$CBV?$basic_string@DU?$char_traits@D@std@@V?$allocator@D@2@@std@@V?$weak_ptr@VRawImageData@@@2@@std@@PAX@std@@$$T@std@@YAPAU?$_Tree_node@U?$pair@$$CBV?$basic_string@DU?$char_traits@D@std@@V?$allocator@D@2@@std@@V?$weak_ptr@VRawImageData@@@2@@std@@PAX@0@AAPAU10@$$QA$$T@Z 0040c9e0 f i bullet.obj
 0001:0000ba10       ??$exchange@PAU?$_Tree_node@U?$pair@$$CBV?$basic_string@DU?$char_traits@D@std@@V?$allocator@D@2@@std@@V?$weak_ptr@VRawImageData@@@2@@std@@PAX@std@@AAPAU12@@std@@YAPAU?$_Tree_node@U?$pair@$$CBV?$basic_string@DU?$char_traits@D@std@@V?$allocator@D@2@@std@@V?$weak_ptr@VRawImageData@@@2@@std@@PAX@0@AAPAU10@0@Z 0040ca10 f i bullet.obj
 0001:0000ba40       ??$exchange@PAU_Container_proxy@std@@$$T@std@@YAPAU_Container_proxy@0@AAPAU10@$$QA$$T@Z 0040ca40 f i bullet.obj
 0001:0000ba70       ??$forward@AAPAU?$_Tree_node@U?$pair@$$CBV?$basic_string@DU?$char_traits@D@std@@V?$allocator@D@2@@std@@V?$shared_ptr@VRawImageData@@@2@@std@@PAX@std@@@std@@YAAAPAU?$_Tree_node@U?$pair@$$CBV?$basic_string@DU?$char_traits@D@std@@V?$allocator@D@2@@std@@V?$shared_ptr@VRawImageData@@@2@@std@@PAX@0@AAPAU10@@Z 0040ca70 f i bullet.obj
 0001:0000ba80       ??$forward@AAPAU?$_Tree_node@U?$pair@$$CBV?$basic_string@DU?$char_traits@D@std@@V?$allocator@D@2@@std@@V?$weak_ptr@VRawImageData@@@2@@std@@PAX@std@@@std@@YAAAPAU?$_Tree_node@U?$pair@$$CBV?$basic_string@DU?$char_traits@D@std@@V?$allocator@D@2@@std@@V?$weak_ptr@VRawImageData@@@2@@std@@PAX@0@AAPAU10@@Z 0040ca80 f i bullet.obj
 0001:0000ba90       ??$forward@AAV?$basic_string@DU?$char_traits@D@std@@V?$allocator@D@2@@std@@@std@@YAAAV?$basic_string@DU?$char_traits@D@std@@V?$allocator@D@2@@0@AAV10@@Z 0040ca90 f i bullet.obj
 0001:0000baa0       ??$forward@AAV?$shared_ptr@VRawImageData@@@std@@@std@@YAAAV?$shared_ptr@VRawImageData@@@0@AAV10@@Z 0040caa0 f i bullet.obj
 0001:0000bab0       ??$forward@AAV?$weak_ptr@VRawImageData@@@std@@@std@@YAAAV?$weak_ptr@VRawImageData@@@0@AAV10@@Z 0040cab0 f i bullet.obj
 0001:0000bac0       ??$forward@ABQAD@std@@YAABQADABQAD@Z 0040cac0 f i bullet.obj
 0001:0000bad0       ??$forward@ABQAU?$_Tree_node@U?$pair@$$CBV?$basic_string@DU?$char_traits@D@std@@V?$allocator@D@2@@std@@V?$shared_ptr@VRawImageData@@@2@@std@@PAX@std@@@std@@YAABQAU?$_Tree_node@U?$pair@$$CBV?$basic_string@DU?$char_traits@D@std@@V?$allocator@D@2@@std@@V?$shared_ptr@VRawImageData@@@2@@std@@PAX@0@ABQAU10@@Z 0040cad0 f i bullet.obj
 0001:0000bae0       ??$forward@ABQAU?$_Tree_node@U?$pair@$$CBV?$basic_string@DU?$char_traits@D@std@@V?$allocator@D@2@@std@@V?$weak_ptr@VRawImageData@@@2@@std@@PAX@std@@@std@@YAABQAU?$_Tree_node@U?$pair@$$CBV?$basic_string@DU?$char_traits@D@std@@V?$allocator@D@2@@std@@V?$weak_ptr@VRawImageData@@@2@@std@@PAX@0@ABQAU10@@Z 0040cae0 f i bullet.obj
 0001:0000baf0       ??$forward@ABU?$less@V?$basic_string@DU?$char_traits@D@std@@V?$allocator@D@2@@std@@@std@@@std@@YAABU?$less@V?$basic_string@DU?$char_traits@D@std@@V?$allocator@D@2@@std@@@0@ABU10@@Z 0040caf0 f i bullet.obj
 0001:0000bb00       ??$forward@ABUSDL_Rect@@@std@@YAABUSDL_Rect@@ABU1@@Z 0040cb00 f i bullet.obj
 0001:0000bb10       ??$forward@AB_N@std@@YAAB_NAB_N@Z 0040cb10 f i bullet.obj
 0001:0000bb20       ??$forward@PAU?$_Tree_node@U?$pair@$$CBV?$basic_string@DU?$char_traits@D@std@@V?$allocator@D@2@@std@@V?$shared_ptr@VRawImageData@@@2@@std@@PAX@std@@@std@@YA$$QAPAU?$_Tree_node@U?$pair@$$CBV?$basic_string@DU?$char_traits@D@std@@V?$allocator@D@2@@std@@V?$shared_ptr@VRawImageData@@@2@@std@@PAX@0@AAPAU10@@Z 0040cb20 f i bullet.obj
 0001:0000bb30       ??$forward@PAU?$_Tree_node@U?$pair@$$CBV?$basic_string@DU?$char_traits@D@std@@V?$allocator@D@2@@std@@V?$weak_ptr@VRawImageData@@@2@@std@@PAX@std@@@std@@YA$$QAPAU?$_Tree_node@U?$pair@$$CBV?$basic_string@DU?$char_traits@D@std@@V?$allocator@D@2@@std@@V?$weak_ptr@VRawImageData@@@2@@std@@PAX@0@AAPAU10@@Z 0040cb30 f i bullet.obj
 0001:0000bb40       ??$forward@PAU_Container_base12@std@@@std@@YA$$QAPAU_Container_base12@0@AAPAU10@@Z 0040cb40 f i bullet.obj
 0001:0000bb50       ??$forward@U?$pair@V?$basic_string@DU?$char_traits@D@std@@V?$allocator@D@2@@std@@V?$shared_ptr@VRawImageData@@@2@@std@@@std@@YA$$QAU?$pair@V?$basic_string@DU?$char_traits@D@std@@V?$allocator@D@2@@std@@V?$shared_ptr@VRawImageData@@@2@@0@AAU10@@Z 0040cb50 f i bullet.obj
 0001:0000bb60       ??$forward@U?$pair@V?$basic_string@DU?$char_traits@D@std@@V?$allocator@D@2@@std@@V?$weak_ptr@VRawImageData@@@2@@std@@@std@@YA$$QAU?$pair@V?$basic_string@DU?$char_traits@D@std@@V?$allocator@D@2@@std@@V?$weak_ptr@VRawImageData@@@2@@0@AAU10@@Z 0040cb60 f i bullet.obj
 0001:0000bb70       ??$forward@U_Zero_then_variadic_args_t@std@@@std@@YA$$QAU_Zero_then_variadic_args_t@0@AAU10@@Z 0040cb70 f i bullet.obj
 0001:0000bb80       ??$forward@V?$_Tree_iterator@V?$_Tree_val@U?$_Tree_simple_types@U?$pair@$$CBV?$basic_string@DU?$char_traits@D@std@@V?$allocator@D@2@@std@@V?$shared_ptr@VRawImageData@@@2@@std@@@std@@@std@@@std@@@std@@YA$$QAV?$_Tree_iterator@V?$_Tree_val@U?$_Tree_simple_types@U?$pair@$$CBV?$basic_string@DU?$char_traits@D@std@@V?$allocator@D@2@@std@@V?$shared_ptr@VRawImageData@@@2@@std@@@std@@@std@@@0@AAV10@@Z 0040cb80 f i bullet.obj
 0001:0000bb90       ??$forward@V?$_Tree_iterator@V?$_Tree_val@U?$_Tree_simple_types@U?$pair@$$CBV?$basic_string@DU?$char_traits@D@std@@V?$allocator@D@2@@std@@V?$weak_ptr@VRawImageData@@@2@@std@@@std@@@std@@@std@@@std@@YA$$QAV?$_Tree_iterator@V?$_Tree_val@U?$_Tree_simple_types@U?$pair@$$CBV?$basic_string@DU?$char_traits@D@std@@V?$allocator@D@2@@std@@V?$weak_ptr@VRawImageData@@@2@@std@@@std@@@std@@@0@AAV10@@Z 0040cb90 f i bullet.obj
 0001:0000bba0       ??$forward@V?$allocator@D@std@@@std@@YA$$QAV?$allocator@D@0@AAV10@@Z 0040cba0 f i bullet.obj
 0001:0000bbb0       ??$forward@V?$allocator@USDL_Rect@@@std@@@std@@YA$$QAV?$allocator@USDL_Rect@@@0@AAV10@@Z 0040cbb0 f i bullet.obj
 0001:0000bbc0       ??$forward@V?$basic_string@DU?$char_traits@D@std@@V?$allocator@D@2@@std@@@std@@YA$$QAV?$basic_string@DU?$char_traits@D@std@@V?$allocator@D@2@@0@AAV10@@Z 0040cbc0 f i bullet.obj
 0001:0000bbd0       ??$forward@V?$shared_ptr@VRawImageData@@@std@@@std@@YA$$QAV?$shared_ptr@VRawImageData@@@0@AAV10@@Z 0040cbd0 f i bullet.obj
 0001:0000bbe0       ??$forward@V?$weak_ptr@VRawImageData@@@std@@@std@@YA$$QAV?$weak_ptr@VRawImageData@@@0@AAV10@@Z 0040cbe0 f i bullet.obj
 0001:0000bbf0       ??$forward@_N@std@@YA$$QA_NAA_N@Z 0040cbf0 f i bullet.obj
 0001:0000bc00       ??$insert@U?$pair@V?$basic_string@DU?$char_traits@D@std@@V?$allocator@D@2@@std@@V?$shared_ptr@VRawImageData@@@2@@std@@$0A@@?$map@V?$basic_string@DU?$char_traits@D@std@@V?$allocator@D@2@@std@@V?$shared_ptr@VRawImageData@@@2@U?$less@V?$basic_string@DU?$char_traits@D@std@@V?$allocator@D@2@@std@@@2@V?$allocator@U?$pair@$$CBV?$basic_string@DU?$char_traits@D@std@@V?$allocator@D@2@@std@@V?$shared_ptr@VRawImageData@@@2@@std@@@2@@std@@QAE?AU?$pair@V?$_Tree_iterator@V?$_Tree_val@U?$_Tree_simple_types@U?$pair@$$CBV?$basic_string@DU?$char_traits@D@std@@V?$allocator@D@2@@std@@V?$shared_ptr@VRawImageData@@@2@@std@@@std@@@std@@@std@@_N@1@$$QAU?$pair@V?$basic_string@DU?$char_traits@D@std@@V?$allocator@D@2@@std@@V?$shared_ptr@VRawImageData@@@2@@1@@Z 0040cc00 f i bullet.obj
 0001:0000bc50       ??$insert@U?$pair@V?$basic_string@DU?$char_traits@D@std@@V?$allocator@D@2@@std@@V?$weak_ptr@VRawImageData@@@2@@std@@$0A@@?$map@V?$basic_string@DU?$char_traits@D@std@@V?$allocator@D@2@@std@@V?$weak_ptr@VRawImageData@@@2@U?$less@V?$basic_string@DU?$char_traits@D@std@@V?$allocator@D@2@@std@@@2@V?$allocator@U?$pair@$$CBV?$basic_string@DU?$char_traits@D@std@@V?$allocator@D@2@@std@@V?$weak_ptr@VRawImageData@@@2@@std@@@2@@std@@QAE?AU?$pair@V?$_Tree_iterator@V?$_Tree_val@U?$_Tree_simple_types@U?$pair@$$CBV?$basic_string@DU?$char_traits@D@std@@V?$allocator@D@2@@std@@V?$weak_ptr@VRawImageData@@@2@@std@@@std@@@std@@@std@@_N@1@$$QAU?$pair@V?$basic_string@DU?$char_traits@D@std@@V?$allocator@D@2@@std@@V?$weak_ptr@VRawImageData@@@2@@1@@Z 0040cc50 f i bullet.obj
 0001:0000bca0       ??$max@I@std@@YAABIABI0@Z  0040cca0 f i bullet.obj
 0001:0000bce0       ??$min@I@std@@YAABIABI0@Z  0040cce0 f i bullet.obj
 0001:0000bd20       ??$move@AAD@std@@YA$$QADAAD@Z 0040cd20 f i bullet.obj
 0001:0000bd30       ??$move@AAPAVRawImageData@@@std@@YA$$QAPAVRawImageData@@AAPAV1@@Z 0040cd30 f i bullet.obj
 0001:0000bd40       ??$move@AAPAV_Ref_count_base@std@@@std@@YA$$QAPAV_Ref_count_base@0@AAPAV10@@Z 0040cd40 f i bullet.obj
 0001:0000bd50       ??$move@AAV?$allocator@D@std@@@std@@YA$$QAV?$allocator@D@0@AAV10@@Z 0040cd50 f i bullet.obj
 0001:0000bd60       ??$move@AAV?$shared_ptr@VRawImageData@@@std@@@std@@YA$$QAV?$shared_ptr@VRawImageData@@@0@AAV10@@Z 0040cd60 f i bullet.obj
 0001:0000bd70       ??$move@AAV?$weak_ptr@VRawImageData@@@std@@@std@@YA$$QAV?$weak_ptr@VRawImageData@@@0@AAV10@@Z 0040cd70 f i bullet.obj
 0001:0000bd80       ??$swap@D$0A@@std@@YAXAAD0@Z 0040cd80 f i bullet.obj
 0001:0000bdd0       ??$swap@PAVRawImageData@@$0A@@std@@YAXAAPAVRawImageData@@0@Z 0040cdd0 f i bullet.obj
 0001:0000be20       ??$swap@PAV_Ref_count_base@std@@$0A@@std@@YAXAAPAV_Ref_count_base@0@0@Z 0040ce20 f i bullet.obj
 0001:0000be70       ??0?$_Alloc_construct_ptr@V?$allocator@U?$_Tree_node@U?$pair@$$CBV?$basic_string@DU?$char_traits@D@std@@V?$allocator@D@2@@std@@V?$shared_ptr@VRawImageData@@@2@@std@@PAX@std@@@std@@@std@@QAE@AAV?$allocator@U?$_Tree_node@U?$pair@$$CBV?$basic_string@DU?$char_traits@D@std@@V?$allocator@D@2@@std@@V?$shared_ptr@VRawImageData@@@2@@std@@PAX@std@@@1@@Z 0040ce70 f i bullet.obj
 0001:0000bea0       ??0?$_Alloc_construct_ptr@V?$allocator@U?$_Tree_node@U?$pair@$$CBV?$basic_string@DU?$char_traits@D@std@@V?$allocator@D@2@@std@@V?$weak_ptr@VRawImageData@@@2@@std@@PAX@std@@@std@@@std@@QAE@AAV?$allocator@U?$_Tree_node@U?$pair@$$CBV?$basic_string@DU?$char_traits@D@std@@V?$allocator@D@2@@std@@V?$weak_ptr@VRawImageData@@@2@@std@@PAX@std@@@1@@Z 0040cea0 f i bullet.obj
 0001:0000bed0       ??0?$_Container_proxy_ptr12@V?$allocator@U_Container_proxy@std@@@std@@@std@@QAE@AAV?$allocator@U_Container_proxy@std@@@1@AAU_Container_base12@1@@Z 0040ced0 f i bullet.obj
 0001:0000bf50       ??0?$_Ptr_base@VRawImageData@@@std@@IAE@XZ 0040cf50 f i bullet.obj
 0001:0000bf80       ??0?$_Ref_count@VRawImageData@@@std@@QAE@PAVRawImageData@@@Z 0040cf80 f i bullet.obj
 0001:0000bfd0       ??0?$_String_val@U?$_Simple_types@D@std@@@std@@QAE@XZ 0040cfd0 f i bullet.obj
 0001:0000c020       ??0?$_Temporary_owner@VRawImageData@@@std@@QAE@QAVRawImageData@@@Z 0040d020 f i bullet.obj
 0001:0000c040       ??0?$_Tree@V?$_Tmap_traits@V?$basic_string@DU?$char_traits@D@std@@V?$allocator@D@2@@std@@V?$shared_ptr@VRawImageData@@@2@U?$less@V?$basic_string@DU?$char_traits@D@std@@V?$allocator@D@2@@std@@@2@V?$allocator@U?$pair@$$CBV?$basic_string@DU?$char_traits@D@std@@V?$allocator@D@2@@std@@V?$shared_ptr@VRawImageData@@@2@@std@@@2@$0A@@std@@@std@@QAE@ABU?$less@V?$basic_string@DU?$char_traits@D@std@@V?$allocator@D@2@@std@@@1@@Z 0040d040 f i bullet.obj
 0001:0000c080       ??0?$_Tree@V?$_Tmap_traits@V?$basic_string@DU?$char_traits@D@std@@V?$allocator@D@2@@std@@V?$weak_ptr@VRawImageData@@@2@U?$less@V?$basic_string@DU?$char_traits@D@std@@V?$allocator@D@2@@std@@@2@V?$allocator@U?$pair@$$CBV?$basic_string@DU?$char_traits@D@std@@V?$allocator@D@2@@std@@V?$weak_ptr@VRawImageData@@@2@@std@@@2@$0A@@std@@@std@@QAE@ABU?$less@V?$basic_string@DU?$char_traits@D@std@@V?$allocator@D@2@@std@@@1@@Z 0040d080 f i bullet.obj
 0001:0000c0c0       ??0?$_Tree_const_iterator@V?$_Tree_val@U?$_Tree_simple_types@U?$pair@$$CBV?$basic_string@DU?$char_traits@D@std@@V?$allocator@D@2@@std@@V?$shared_ptr@VRawImageData@@@2@@std@@@std@@@std@@@std@@QAE@$$QAV01@@Z 0040d0c0 f i bullet.obj
 0001:0000c0f0       ??0?$_Tree_const_iterator@V?$_Tree_val@U?$_Tree_simple_types@U?$pair@$$CBV?$basic_string@DU?$char_traits@D@std@@V?$allocator@D@2@@std@@V?$shared_ptr@VRawImageData@@@2@@std@@@std@@@std@@@std@@QAE@PAU?$_Tree_node@U?$pair@$$CBV?$basic_string@DU?$char_traits@D@std@@V?$allocator@D@2@@std@@V?$shared_ptr@VRawImageData@@@2@@std@@PAX@1@PBV?$_Tree_val@U?$_Tree_simple_types@U?$pair@$$CBV?$basic_string@DU?$char_traits@D@std@@V?$allocator@D@2@@std@@V?$shared_ptr@VRawImageData@@@2@@std@@@std@@@1@@Z 0040d0f0 f i bullet.obj
 0001:0000c120       ??0?$_Tree_const_iterator@V?$_Tree_val@U?$_Tree_simple_types@U?$pair@$$CBV?$basic_string@DU?$char_traits@D@std@@V?$allocator@D@2@@std@@V?$weak_ptr@VRawImageData@@@2@@std@@@std@@@std@@@std@@QAE@$$QAV01@@Z 0040d120 f i bullet.obj
 0001:0000c150       ??0?$_Tree_const_iterator@V?$_Tree_val@U?$_Tree_simple_types@U?$pair@$$CBV?$basic_string@DU?$char_traits@D@std@@V?$allocator@D@2@@std@@V?$weak_ptr@VRawImageData@@@2@@std@@@std@@@std@@@std@@QAE@ABV01@@Z 0040d150 f i bullet.obj
 0001:0000c180       ??0?$_Tree_const_iterator@V?$_Tree_val@U?$_Tree_simple_types@U?$pair@$$CBV?$basic_string@DU?$char_traits@D@std@@V?$allocator@D@2@@std@@V?$weak_ptr@VRawImageData@@@2@@std@@@std@@@std@@@std@@QAE@PAU?$_Tree_node@U?$pair@$$CBV?$basic_string@DU?$char_traits@D@std@@V?$allocator@D@2@@std@@V?$weak_ptr@VRawImageData@@@2@@std@@PAX@1@PBV?$_Tree_val@U?$_Tree_simple_types@U?$pair@$$CBV?$basic_string@DU?$char_traits@D@std@@V?$allocator@D@2@@std@@V?$weak_ptr@VRawImageData@@@2@@std@@@std@@@1@@Z 0040d180 f i bullet.obj
 0001:0000c1b0       ??0?$_Tree_iterator@V?$_Tree_val@U?$_Tree_simple_types@U?$pair@$$CBV?$basic_string@DU?$char_traits@D@std@@V?$allocator@D@2@@std@@V?$shared_ptr@VRawImageData@@@2@@std@@@std@@@std@@@std@@QAE@$$QAV01@@Z 0040d1b0 f i bullet.obj
 0001:0000c1e0       ??0?$_Tree_iterator@V?$_Tree_val@U?$_Tree_simple_types@U?$pair@$$CBV?$basic_string@DU?$char_traits@D@std@@V?$allocator@D@2@@std@@V?$shared_ptr@VRawImageData@@@2@@std@@@std@@@std@@@std@@QAE@PAU?$_Tree_node@U?$pair@$$CBV?$basic_string@DU?$char_traits@D@std@@V?$allocator@D@2@@std@@V?$shared_ptr@VRawImageData@@@2@@std@@PAX@1@PBV?$_Tree_val@U?$_Tree_simple_types@U?$pair@$$CBV?$basic_string@DU?$char_traits@D@std@@V?$allocator@D@2@@std@@V?$shared_ptr@VRawImageData@@@2@@std@@@std@@@1@@Z 0040d1e0 f i bullet.obj
 0001:0000c210       ??0?$_Tree_iterator@V?$_Tree_val@U?$_Tree_simple_types@U?$pair@$$CBV?$basic_string@DU?$char_traits@D@std@@V?$allocator@D@2@@std@@V?$weak_ptr@VRawImageData@@@2@@std@@@std@@@std@@@std@@QAE@$$QAV01@@Z 0040d210 f i bullet.obj
 0001:0000c240       ??0?$_Tree_iterator@V?$_Tree_val@U?$_Tree_simple_types@U?$pair@$$CBV?$basic_string@DU?$char_traits@D@std@@V?$allocator@D@2@@std@@V?$weak_ptr@VRawImageData@@@2@@std@@@std@@@std@@@std@@QAE@ABV01@@Z 0040d240 f i bullet.obj
 0001:0000c270       ??0?$_Tree_iterator@V?$_Tree_val@U?$_Tree_simple_types@U?$pair@$$CBV?$basic_string@DU?$char_traits@D@std@@V?$allocator@D@2@@std@@V?$weak_ptr@VRawImageData@@@2@@std@@@std@@@std@@@std@@QAE@PAU?$_Tree_node@U?$pair@$$CBV?$basic_string@DU?$char_traits@D@std@@V?$allocator@D@2@@std@@V?$weak_ptr@VRawImageData@@@2@@std@@PAX@1@PBV?$_Tree_val@U?$_Tree_simple_types@U?$pair@$$CBV?$basic_string@DU?$char_traits@D@std@@V?$allocator@D@2@@std@@V?$weak_ptr@VRawImageData@@@2@@std@@@std@@@1@@Z 0040d270 f i bullet.obj
 0001:0000c2a0       ??0?$_Tree_temp_node_alloc@V?$allocator@U?$_Tree_node@U?$pair@$$CBV?$basic_string@DU?$char_traits@D@std@@V?$allocator@D@2@@std@@V?$shared_ptr@VRawImageData@@@2@@std@@PAX@std@@@std@@@std@@QAE@AAV?$allocator@U?$_Tree_node@U?$pair@$$CBV?$basic_string@DU?$char_traits@D@std@@V?$allocator@D@2@@std@@V?$shared_ptr@VRawImageData@@@2@@std@@PAX@std@@@1@@Z 0040d2a0 f i bullet.obj
 0001:0000c320       ??0?$_Tree_temp_node_alloc@V?$allocator@U?$_Tree_node@U?$pair@$$CBV?$basic_string@DU?$char_traits@D@std@@V?$allocator@D@2@@std@@V?$weak_ptr@VRawImageData@@@2@@std@@PAX@std@@@std@@@std@@QAE@AAV?$allocator@U?$_Tree_node@U?$pair@$$CBV?$basic_string@DU?$char_traits@D@std@@V?$allocator@D@2@@std@@V?$weak_ptr@VRawImageData@@@2@@std@@PAX@std@@@1@@Z 0040d320 f i bullet.obj
 0001:0000c3a0       ??0?$_Tree_unchecked_const_iterator@V?$_Tree_val@U?$_Tree_simple_types@U?$pair@$$CBV?$basic_string@DU?$char_traits@D@std@@V?$allocator@D@2@@std@@V?$shared_ptr@VRawImageData@@@2@@std@@@std@@@std@@U_Iterator_base12@2@@std@@QAE@$$QAV01@@Z 0040d3a0 f i bullet.obj
 0001:0000c3e0       ??0?$_Tree_unchecked_const_iterator@V?$_Tree_val@U?$_Tree_simple_types@U?$pair@$$CBV?$basic_string@DU?$char_traits@D@std@@V?$allocator@D@2@@std@@V?$shared_ptr@VRawImageData@@@2@@std@@@std@@@std@@U_Iterator_base12@2@@std@@QAE@PAU?$_Tree_node@U?$pair@$$CBV?$basic_string@DU?$char_traits@D@std@@V?$allocator@D@2@@std@@V?$shared_ptr@VRawImageData@@@2@@std@@PAX@1@PBV?$_Tree_val@U?$_Tree_simple_types@U?$pair@$$CBV?$basic_string@DU?$char_traits@D@std@@V?$allocator@D@2@@std@@V?$shared_ptr@VRawImageData@@@2@@std@@@std@@@1@@Z 0040d3e0 f i bullet.obj
 0001:0000c420       ??0?$_Tree_unchecked_const_iterator@V?$_Tree_val@U?$_Tree_simple_types@U?$pair@$$CBV?$basic_string@DU?$char_traits@D@std@@V?$allocator@D@2@@std@@V?$weak_ptr@VRawImageData@@@2@@std@@@std@@@std@@U_Iterator_base0@2@@std@@QAE@PAU?$_Tree_node@U?$pair@$$CBV?$basic_string@DU?$char_traits@D@std@@V?$allocator@D@2@@std@@V?$weak_ptr@VRawImageData@@@2@@std@@PAX@1@PBV?$_Tree_val@U?$_Tree_simple_types@U?$pair@$$CBV?$basic_string@DU?$char_traits@D@std@@V?$allocator@D@2@@std@@V?$weak_ptr@VRawImageData@@@2@@std@@@std@@@1@@Z 0040d420 f i bullet.obj
 0001:0000c450       ??0?$_Tree_unchecked_const_iterator@V?$_Tree_val@U?$_Tree_simple_types@U?$pair@$$CBV?$basic_string@DU?$char_traits@D@std@@V?$allocator@D@2@@std@@V?$weak_ptr@VRawImageData@@@2@@std@@@std@@@std@@U_Iterator_base12@2@@std@@QAE@$$QAV01@@Z 0040d450 f i bullet.obj
 0001:0000c490       ??0?$_Tree_unchecked_const_iterator@V?$_Tree_val@U?$_Tree_simple_types@U?$pair@$$CBV?$basic_string@DU?$char_traits@D@std@@V?$allocator@D@2@@std@@V?$weak_ptr@VRawImageData@@@2@@std@@@std@@@std@@U_Iterator_base12@2@@std@@QAE@ABV01@@Z 0040d490 f i bullet.obj
 0001:0000c4d0       ??0?$_Tree_unchecked_const_iterator@V?$_Tree_val@U?$_Tree_simple_types@U?$pair@$$CBV?$basic_string@DU?$char_traits@D@std@@V?$allocator@D@2@@std@@V?$weak_ptr@VRawImageData@@@2@@std@@@std@@@std@@U_Iterator_base12@2@@std@@QAE@PAU?$_Tree_node@U?$pair@$$CBV?$basic_string@DU?$char_traits@D@std@@V?$allocator@D@2@@std@@V?$weak_ptr@VRawImageData@@@2@@std@@PAX@1@PBV?$_Tree_val@U?$_Tree_simple_types@U?$pair@$$CBV?$basic_string@DU?$char_traits@D@std@@V?$allocator@D@2@@std@@V?$weak_ptr@VRawImageData@@@2@@std@@@std@@@1@@Z 0040d4d0 f i bullet.obj
 0001:0000c510       ??0?$_Tree_unchecked_iterator@V?$_Tree_val@U?$_Tree_simple_types@U?$pair@$$CBV?$basic_string@DU?$char_traits@D@std@@V?$allocator@D@2@@std@@V?$weak_ptr@VRawImageData@@@2@@std@@@std@@@std@@@std@@QAE@PAU?$_Tree_node@U?$pair@$$CBV?$basic_string@DU?$char_traits@D@std@@V?$allocator@D@2@@std@@V?$weak_ptr@VRawImageData@@@2@@std@@PAX@1@PBV?$_Tree_val@U?$_Tree_simple_types@U?$pair@$$CBV?$basic_string@DU?$char_traits@D@std@@V?$allocator@D@2@@std@@V?$weak_ptr@VRawImageData@@@2@@std@@@std@@@1@@Z 0040d510 f i bullet.obj
 0001:0000c540       ??0?$_Tree_val@U?$_Tree_simple_types@U?$pair@$$CBV?$basic_string@DU?$char_traits@D@std@@V?$allocator@D@2@@std@@V?$shared_ptr@VRawImageData@@@2@@std@@@std@@@std@@QAE@XZ 0040d540 f i bullet.obj
 0001:0000c580       ??0?$_Tree_val@U?$_Tree_simple_types@U?$pair@$$CBV?$basic_string@DU?$char_traits@D@std@@V?$allocator@D@2@@std@@V?$weak_ptr@VRawImageData@@@2@@std@@@std@@@std@@QAE@XZ 0040d580 f i bullet.obj
 0001:0000c5c0       ??0?$_Vector_val@U?$_Simple_types@USDL_Rect@@@std@@@std@@QAE@XZ 0040d5c0 f i bullet.obj
 0001:0000c610       ??0?$allocator@D@std@@QAE@XZ 0040d610 f i bullet.obj
 0001:0000c630       ??0?$allocator@U?$_Tree_node@U?$pair@$$CBV?$basic_string@DU?$char_traits@D@std@@V?$allocator@D@2@@std@@V?$shared_ptr@VRawImageData@@@2@@std@@PAX@std@@@std@@QAE@XZ 0040d630 f i bullet.obj
 0001:0000c650       ??0?$allocator@U?$_Tree_node@U?$pair@$$CBV?$basic_string@DU?$char_traits@D@std@@V?$allocator@D@2@@std@@V?$weak_ptr@VRawImageData@@@2@@std@@PAX@std@@@std@@QAE@XZ 0040d650 f i bullet.obj
 0001:0000c670       ??0?$basic_string@DU?$char_traits@D@std@@V?$allocator@D@2@@std@@QAE@$$QAV01@@Z 0040d670 f i bullet.obj
 0001:0000c730       ??0?$basic_string@DU?$char_traits@D@std@@V?$allocator@D@2@@std@@QAE@ABV01@@Z 0040d730 f i bullet.obj
 0001:0000c820       ??0?$basic_string@DU?$char_traits@D@std@@V?$allocator@D@2@@std@@QAE@QBD@Z 0040d820 f i bullet.obj
 0001:0000c900       ??0?$map@V?$basic_string@DU?$char_traits@D@std@@V?$allocator@D@2@@std@@V?$shared_ptr@VRawImageData@@@2@U?$less@V?$basic_string@DU?$char_traits@D@std@@V?$allocator@D@2@@std@@@2@V?$allocator@U?$pair@$$CBV?$basic_string@DU?$char_traits@D@std@@V?$allocator@D@2@@std@@V?$shared_ptr@VRawImageData@@@2@@std@@@2@@std@@QAE@XZ 0040d900 f i bullet.obj
 0001:0000c930       ??0?$map@V?$basic_string@DU?$char_traits@D@std@@V?$allocator@D@2@@std@@V?$weak_ptr@VRawImageData@@@2@U?$less@V?$basic_string@DU?$char_traits@D@std@@V?$allocator@D@2@@std@@@2@V?$allocator@U?$pair@$$CBV?$basic_string@DU?$char_traits@D@std@@V?$allocator@D@2@@std@@V?$weak_ptr@VRawImageData@@@2@@std@@@2@@std@@QAE@XZ 0040d930 f i bullet.obj
 0001:0000c960       ??0?$shared_ptr@VRawImageData@@@std@@QAE@$$QAV01@@Z 0040d960 f i bullet.obj
 0001:0000c9a0       ??0?$shared_ptr@VRawImageData@@@std@@QAE@$$T@Z 0040d9a0 f i bullet.obj
 0001:0000c9c0       ??0?$shared_ptr@VRawImageData@@@std@@QAE@ABV01@@Z 0040d9c0 f i bullet.obj
 0001:0000c9f0       ??0?$shared_ptr@VRawImageData@@@std@@QAE@XZ 0040d9f0 f i bullet.obj
 0001:0000ca10       ??0?$vector@USDL_Rect@@V?$allocator@USDL_Rect@@@std@@@std@@QAE@ABV01@@Z 0040da10 f i bullet.obj
 0001:0000cb70       ??0?$weak_ptr@VRawImageData@@@std@@QAE@$$QAV01@@Z 0040db70 f i bullet.obj
 0001:0000cbb0       ??0?$weak_ptr@VRawImageData@@@std@@QAE@ABV01@@Z 0040dbb0 f i bullet.obj
 0001:0000cbe0       ??0ImageManager@@QAE@XZ    0040dbe0 f i bullet.obj
 0001:0000cc50       ??0RawImageData@@QAE@V?$basic_string@DU?$char_traits@D@std@@V?$allocator@D@2@@std@@@Z 0040dc50 f i bullet.obj
 0001:0000cd00       ??0SimpleImage@@QAE@ABV0@@Z 0040dd00 f i bullet.obj
 0001:0000cd50       ??0_Bxty@?$_String_val@U?$_Simple_types@D@std@@@std@@QAE@XZ 0040dd50 f i bullet.obj
 0001:0000cd70       ??0_Container_base12@std@@QAE@XZ 0040dd70 f i bullet.obj
 0001:0000cd90       ??0_Container_proxy@std@@QAE@PAU_Container_base12@1@@Z 0040dd90 f i bullet.obj
 0001:0000cdc0       ??0_Iterator_base12@std@@QAE@ABU01@@Z 0040ddc0 f i bullet.obj
 0001:0000ce00       ??0_Iterator_base12@std@@QAE@XZ 0040de00 f i bullet.obj
 0001:0000ce30       ??0_Ref_count_base@std@@IAE@XZ 0040de30 f i bullet.obj
 0001:0000ce60       ??0bad_alloc@std@@AAE@QBD@Z 0040de60 f i bullet.obj
 0001:0000ce90       ??0bad_alloc@std@@QAE@ABV01@@Z 0040de90 f i bullet.obj
 0001:0000cec0       ??0bad_array_new_length@std@@QAE@ABV01@@Z 0040dec0 f i bullet.obj
 0001:0000cef0       ??0bad_array_new_length@std@@QAE@XZ 0040def0 f i bullet.obj
 0001:0000cf20       ??0exception@std@@QAE@ABV01@@Z 0040df20 f i bullet.obj
 0001:0000cf70       ??0exception@std@@QAE@QBDH@Z 0040df70 f i bullet.obj
 0001:0000cfb0       ??1?$_Alloc_construct_ptr@V?$allocator@U?$_Tree_node@U?$pair@$$CBV?$basic_string@DU?$char_traits@D@std@@V?$allocator@D@2@@std@@V?$shared_ptr@VRawImageData@@@2@@std@@PAX@std@@@std@@@std@@QAE@XZ 0040dfb0 f i bullet.obj
 0001:0000d020       ??1?$_Alloc_construct_ptr@V?$allocator@U?$_Tree_node@U?$pair@$$CBV?$basic_string@DU?$char_traits@D@std@@V?$allocator@D@2@@std@@V?$weak_ptr@VRawImageData@@@2@@std@@PAX@std@@@std@@@std@@QAE@XZ 0040e020 f i bullet.obj
 0001:0000d090       ??1?$_Compressed_pair@V?$allocator@D@std@@V?$_String_val@U?$_Simple_types@D@std@@@2@$00@std@@QAE@XZ 0040e090 f i bullet.obj
 0001:0000d0b0       ??1?$_Container_proxy_ptr12@V?$allocator@U_Container_proxy@std@@@std@@@std@@QAE@XZ 0040e0b0 f i bullet.obj
 0001:0000d0f0       ??1?$_Ref_count@VRawImageData@@@std@@UAE@XZ 0040e0f0 f i bullet.obj
 0001:0000d110       ??1?$_String_val@U?$_Simple_types@D@std@@@std@@QAE@XZ 0040e110 f i bullet.obj
 0001:0000d130       ??1?$_Temporary_owner@VRawImageData@@@std@@QAE@XZ 0040e130 f i bullet.obj
 0001:0000d170       ??1?$_Tidy_guard@V?$vector@USDL_Rect@@V?$allocator@USDL_Rect@@@std@@@std@@@std@@QAE@XZ 0040e170 f i bullet.obj
 0001:0000d1a0       ??1?$_Tree@V?$_Tmap_traits@V?$basic_string@DU?$char_traits@D@std@@V?$allocator@D@2@@std@@V?$weak_ptr@VRawImageData@@@2@U?$less@V?$basic_string@DU?$char_traits@D@std@@V?$allocator@D@2@@std@@@2@V?$allocator@U?$pair@$$CBV?$basic_string@DU?$char_traits@D@std@@V?$allocator@D@2@@std@@V?$weak_ptr@VRawImageData@@@2@@std@@@2@$0A@@std@@@std@@QAE@XZ 0040e1a0 f i bullet.obj
 0001:0000d210       ??1?$_Tree_const_iterator@V?$_Tree_val@U?$_Tree_simple_types@U?$pair@$$CBV?$basic_string@DU?$char_traits@D@std@@V?$allocator@D@2@@std@@V?$shared_ptr@VRawImageData@@@2@@std@@@std@@@std@@@std@@QAE@XZ 0040e210 f i bullet.obj
 0001:0000d230       ??1?$_Tree_const_iterator@V?$_Tree_val@U?$_Tree_simple_types@U?$pair@$$CBV?$basic_string@DU?$char_traits@D@std@@V?$allocator@D@2@@std@@V?$weak_ptr@VRawImageData@@@2@@std@@@std@@@std@@@std@@QAE@XZ 0040e230 f i bullet.obj
 0001:0000d250       ??1?$_Tree_iterator@V?$_Tree_val@U?$_Tree_simple_types@U?$pair@$$CBV?$basic_string@DU?$char_traits@D@std@@V?$allocator@D@2@@std@@V?$shared_ptr@VRawImageData@@@2@@std@@@std@@@std@@@std@@QAE@XZ 0040e250 f i bullet.obj
 0001:0000d270       ??1?$_Tree_iterator@V?$_Tree_val@U?$_Tree_simple_types@U?$pair@$$CBV?$basic_string@DU?$char_traits@D@std@@V?$allocator@D@2@@std@@V?$weak_ptr@VRawImageData@@@2@@std@@@std@@@std@@@std@@QAE@XZ 0040e270 f i bullet.obj
 0001:0000d290       ??1?$_Tree_temp_node@V?$allocator@U?$_Tree_node@U?$pair@$$CBV?$basic_string@DU?$char_traits@D@std@@V?$allocator@D@2@@std@@V?$shared_ptr@VRawImageData@@@2@@std@@PAX@std@@@std@@@std@@QAE@XZ 0040e290 f i bullet.obj
 0001:0000d360       ??1?$_Tree_temp_node@V?$allocator@U?$_Tree_node@U?$pair@$$CBV?$basic_string@DU?$char_traits@D@std@@V?$allocator@D@2@@std@@V?$weak_ptr@VRawImageData@@@2@@std@@PAX@std@@@std@@@std@@QAE@XZ 0040e360 f i bullet.obj
 0001:0000d430       ??1?$_Tree_temp_node_alloc@V?$allocator@U?$_Tree_node@U?$pair@$$CBV?$basic_string@DU?$char_traits@D@std@@V?$allocator@D@2@@std@@V?$shared_ptr@VRawImageData@@@2@@std@@PAX@std@@@std@@@std@@QAE@XZ 0040e430 f i bullet.obj
 0001:0000d450       ??1?$_Tree_temp_node_alloc@V?$allocator@U?$_Tree_node@U?$pair@$$CBV?$basic_string@DU?$char_traits@D@std@@V?$allocator@D@2@@std@@V?$weak_ptr@VRawImageData@@@2@@std@@PAX@std@@@std@@@std@@QAE@XZ 0040e450 f i bullet.obj
 0001:0000d470       ??1?$_Tree_unchecked_const_iterator@V?$_Tree_val@U?$_Tree_simple_types@U?$pair@$$CBV?$basic_string@DU?$char_traits@D@std@@V?$allocator@D@2@@std@@V?$shared_ptr@VRawImageData@@@2@@std@@@std@@@std@@U_Iterator_base12@2@@std@@QAE@XZ 0040e470 f i bullet.obj
 0001:0000d490       ??1?$_Tree_unchecked_const_iterator@V?$_Tree_val@U?$_Tree_simple_types@U?$pair@$$CBV?$basic_string@DU?$char_traits@D@std@@V?$allocator@D@2@@std@@V?$weak_ptr@VRawImageData@@@2@@std@@@std@@@std@@U_Iterator_base12@2@@std@@QAE@XZ 0040e490 f i bullet.obj
 0001:0000d4b0       ??1?$basic_string@DU?$char_traits@D@std@@V?$allocator@D@2@@std@@QAE@XZ 0040e4b0 f i bullet.obj
 0001:0000d520       ??1?$map@V?$basic_string@DU?$char_traits@D@std@@V?$allocator@D@2@@std@@V?$weak_ptr@VRawImageData@@@2@U?$less@V?$basic_string@DU?$char_traits@D@std@@V?$allocator@D@2@@std@@@2@V?$allocator@U?$pair@$$CBV?$basic_string@DU?$char_traits@D@std@@V?$allocator@D@2@@std@@V?$weak_ptr@VRawImageData@@@2@@std@@@2@@std@@QAE@XZ 0040e520 f i bullet.obj
 0001:0000d540       ??1?$pair@$$CBV?$basic_string@DU?$char_traits@D@std@@V?$allocator@D@2@@std@@V?$shared_ptr@VRawImageData@@@2@@std@@QAE@XZ 0040e540 f i bullet.obj
 0001:0000d570       ??1?$pair@$$CBV?$basic_string@DU?$char_traits@D@std@@V?$allocator@D@2@@std@@V?$weak_ptr@VRawImageData@@@2@@std@@QAE@XZ 0040e570 f i bullet.obj
 0001:0000d5a0       ??1?$pair@V?$_Tree_iterator@V?$_Tree_val@U?$_Tree_simple_types@U?$pair@$$CBV?$basic_string@DU?$char_traits@D@std@@V?$allocator@D@2@@std@@V?$shared_ptr@VRawImageData@@@2@@std@@@std@@@std@@@std@@_N@std@@QAE@XZ 0040e5a0 f i bullet.obj
 0001:0000d5c0       ??1?$pair@V?$_Tree_iterator@V?$_Tree_val@U?$_Tree_simple_types@U?$pair@$$CBV?$basic_string@DU?$char_traits@D@std@@V?$allocator@D@2@@std@@V?$weak_ptr@VRawImageData@@@2@@std@@@std@@@std@@@std@@_N@std@@QAE@XZ 0040e5c0 f i bullet.obj
 0001:0000d5e0       ??1?$pair@V?$basic_string@DU?$char_traits@D@std@@V?$allocator@D@2@@std@@V?$shared_ptr@VRawImageData@@@2@@std@@QAE@XZ 0040e5e0 f i bullet.obj
 0001:0000d610       ??1?$pair@V?$basic_string@DU?$char_traits@D@std@@V?$allocator@D@2@@std@@V?$weak_ptr@VRawImageData@@@2@@std@@QAE@XZ 0040e610 f i bullet.obj
 0001:0000d640       ??1?$shared_ptr@VRawImageData@@@std@@QAE@XZ 0040e640 f i bullet.obj
 0001:0000d660       ??1?$vector@USDL_Rect@@V?$allocator@USDL_Rect@@@std@@@std@@QAE@XZ 0040e660 f i bullet.obj
 0001:0000d6d0       ??1?$weak_ptr@VRawImageData@@@std@@QAE@XZ 0040e6d0 f i bullet.obj
 0001:0000d6f0       ??1RawImageData@@QAE@XZ    0040e6f0 f i bullet.obj
 0001:0000d750       ??1SimpleImage@@QAE@XZ     0040e750 f i bullet.obj
 0001:0000d7a0       ??1_Bxty@?$_String_val@U?$_Simple_types@D@std@@@std@@QAE@XZ 0040e7a0 f i bullet.obj
 0001:0000d7b0       ??1_Iterator_base12@std@@QAE@XZ 0040e7b0 f i bullet.obj
 0001:0000d7f0       ??1_Ref_count_base@std@@UAE@XZ 0040e7f0 f i bullet.obj
 0001:0000d800       ??1bad_alloc@std@@UAE@XZ   0040e800 f i bullet.obj
 0001:0000d820       ??1bad_array_new_length@std@@UAE@XZ 0040e820 f i bullet.obj
 0001:0000d840       ??1bullet@@UAE@XZ          0040e840 f i bullet.obj
 0001:0000d8e0       ??1exception@std@@UAE@XZ   0040e8e0 f i bullet.obj
 0001:0000d910       ??2@YAPAXIPAX@Z            0040e910 f i bullet.obj
 0001:0000d920       ??4?$shared_ptr@VRawImageData@@@std@@QAEAAV01@ABV01@@Z 0040e920 f i bullet.obj
 0001:0000d960       ??4SimpleImage@@QAEAAV0@ABV0@@Z 0040e960 f i bullet.obj
 0001:0000d9b0       ??4_Iterator_base12@std@@QAEAAU01@ABU01@@Z 0040e9b0 f i bullet.obj
 0001:0000da20       ??8?$_Tree_const_iterator@V?$_Tree_val@U?$_Tree_simple_types@U?$pair@$$CBV?$basic_string@DU?$char_traits@D@std@@V?$allocator@D@2@@std@@V?$weak_ptr@VRawImageData@@@2@@std@@@std@@@std@@@std@@QBE_NABV01@@Z 0040ea20 f i bullet.obj
 0001:0000dae0       ??9?$_Tree_const_iterator@V?$_Tree_val@U?$_Tree_simple_types@U?$pair@$$CBV?$basic_string@DU?$char_traits@D@std@@V?$allocator@D@2@@std@@V?$weak_ptr@VRawImageData@@@2@@std@@@std@@@std@@@std@@QBE_NABV01@@Z 0040eae0 f i bullet.obj
 0001:0000db30       ??A?$vector@PAVDisplayableObject@@V?$allocator@PAVDisplayableObject@@@std@@@std@@QAEAAPAVDisplayableObject@@I@Z 0040eb30 f i bullet.obj
 0001:0000dbe0       ??A?$vector@PAVDisplayableObject@@V?$allocator@PAVDisplayableObject@@@std@@@std@@QBEABQAVDisplayableObject@@I@Z 0040ebe0 f i bullet.obj
 0001:0000dc90       ??C?$_Tree_iterator@V?$_Tree_val@U?$_Tree_simple_types@U?$pair@$$CBV?$basic_string@DU?$char_traits@D@std@@V?$allocator@D@2@@std@@V?$weak_ptr@VRawImageData@@@2@@std@@@std@@@std@@@std@@QBEPAU?$pair@$$CBV?$basic_string@DU?$char_traits@D@std@@V?$allocator@D@2@@std@@V?$weak_ptr@VRawImageData@@@2@@1@XZ 0040ec90 f i bullet.obj
 0001:0000dcc0       ??D?$_Tree_const_iterator@V?$_Tree_val@U?$_Tree_simple_types@U?$pair@$$CBV?$basic_string@DU?$char_traits@D@std@@V?$allocator@D@2@@std@@V?$weak_ptr@VRawImageData@@@2@@std@@@std@@@std@@@std@@QBEABU?$pair@$$CBV?$basic_string@DU?$char_traits@D@std@@V?$allocator@D@2@@std@@V?$weak_ptr@VRawImageData@@@2@@1@XZ 0040ecc0 f i bullet.obj
 0001:0000ddd0       ??D?$_Tree_iterator@V?$_Tree_val@U?$_Tree_simple_types@U?$pair@$$CBV?$basic_string@DU?$char_traits@D@std@@V?$allocator@D@2@@std@@V?$weak_ptr@VRawImageData@@@2@@std@@@std@@@std@@@std@@QBEAAU?$pair@$$CBV?$basic_string@DU?$char_traits@D@std@@V?$allocator@D@2@@std@@V?$weak_ptr@VRawImageData@@@2@@1@XZ 0040edd0 f i bullet.obj
 0001:0000ddf0       ??E?$_Tree_unchecked_const_iterator@V?$_Tree_val@U?$_Tree_simple_types@U?$pair@$$CBV?$basic_string@DU?$char_traits@D@std@@V?$allocator@D@2@@std@@V?$weak_ptr@VRawImageData@@@2@@std@@@std@@@std@@U_Iterator_base0@2@@std@@QAEAAV01@XZ 0040edf0 f i bullet.obj
 0001:0000de80       ??R<lambda_9366063389c5f42a00a5088cf24e69de>@@QBE@QADIQBD@Z 0040ee80 f i bullet.obj
 0001:0000ded0       ??R?$less@V?$basic_string@DU?$char_traits@D@std@@V?$allocator@D@2@@std@@@std@@QBE_NABV?$basic_string@DU?$char_traits@D@std@@V?$allocator@D@2@@1@0@Z 0040eed0 f i bullet.obj
 0001:0000df00       ??_E?$_Ref_count@VRawImageData@@@std@@UAEPAXI@Z 0040ef00 f i bullet.obj
 0001:0000df00       ??_G?$_Ref_count@VRawImageData@@@std@@UAEPAXI@Z 0040ef00 f i bullet.obj
 0001:0000df40       ??_G?$pair@$$CBV?$basic_string@DU?$char_traits@D@std@@V?$allocator@D@2@@std@@V?$shared_ptr@VRawImageData@@@2@@std@@QAEPAXI@Z 0040ef40 f i bullet.obj
 0001:0000df80       ??_G?$pair@$$CBV?$basic_string@DU?$char_traits@D@std@@V?$allocator@D@2@@std@@V?$weak_ptr@VRawImageData@@@2@@std@@QAEPAXI@Z 0040ef80 f i bullet.obj
 0001:0000dfc0       ??_GRawImageData@@QAEPAXI@Z 0040efc0 f i bullet.obj
 0001:0000e000       ??_Ebad_alloc@std@@UAEPAXI@Z 0040f000 f i bullet.obj
 0001:0000e000       ??_Gbad_alloc@std@@UAEPAXI@Z 0040f000 f i bullet.obj
 0001:0000e040       ??_Ebad_array_new_length@std@@UAEPAXI@Z 0040f040 f i bullet.obj
 0001:0000e040       ??_Gbad_array_new_length@std@@UAEPAXI@Z 0040f040 f i bullet.obj
 0001:0000e080       ??_Gbullet@@UAEPAXI@Z      0040f080 f i bullet.obj
 0001:0000e080       ??_Ebullet@@UAEPAXI@Z      0040f080 f i bullet.obj
 0001:0000e0c0       ??_Eexception@std@@UAEPAXI@Z 0040f0c0 f i bullet.obj
 0001:0000e0c0       ??_Gexception@std@@UAEPAXI@Z 0040f0c0 f i bullet.obj
 0001:0000e100       ?_Adjust_manually_vector_aligned@std@@YAXAAPAXAAI@Z 0040f100 f i bullet.obj
 0001:0000e250       ?_Adopt@_Iterator_base0@std@@QAEXPBX@Z 0040f250 f i bullet.obj
 0001:0000e260       ?_Adopt@_Iterator_base12@std@@QAEXPBU_Container_base12@2@@Z 0040f260 f i bullet.obj
 0001:0000e300       ?_Alloc_sentinel_and_proxy@?$_Tree@V?$_Tmap_traits@V?$basic_string@DU?$char_traits@D@std@@V?$allocator@D@2@@std@@V?$shared_ptr@VRawImageData@@@2@U?$less@V?$basic_string@DU?$char_traits@D@std@@V?$allocator@D@2@@std@@@2@V?$allocator@U?$pair@$$CBV?$basic_string@DU?$char_traits@D@std@@V?$allocator@D@2@@std@@V?$shared_ptr@VRawImageData@@@2@@std@@@2@$0A@@std@@@std@@IAEXXZ 0040f300 f i bullet.obj
 0001:0000e3d0       ?_Alloc_sentinel_and_proxy@?$_Tree@V?$_Tmap_traits@V?$basic_string@DU?$char_traits@D@std@@V?$allocator@D@2@@std@@V?$weak_ptr@VRawImageData@@@2@U?$less@V?$basic_string@DU?$char_traits@D@std@@V?$allocator@D@2@@std@@@2@V?$allocator@U?$pair@$$CBV?$basic_string@DU?$char_traits@D@std@@V?$allocator@D@2@@std@@V?$weak_ptr@VRawImageData@@@2@@std@@@2@$0A@@std@@@std@@IAEXXZ 0040f3d0 f i bullet.obj
 0001:0000e4a0       ?_Allocate@?$_Alloc_construct_ptr@V?$allocator@U?$_Tree_node@U?$pair@$$CBV?$basic_string@DU?$char_traits@D@std@@V?$allocator@D@2@@std@@V?$shared_ptr@VRawImageData@@@2@@std@@PAX@std@@@std@@@std@@QAEXXZ 0040f4a0 f i bullet.obj
 0001:0000e4d0       ?_Allocate@?$_Alloc_construct_ptr@V?$allocator@U?$_Tree_node@U?$pair@$$CBV?$basic_string@DU?$char_traits@D@std@@V?$allocator@D@2@@std@@V?$weak_ptr@VRawImageData@@@2@@std@@PAX@std@@@std@@@std@@QAEXXZ 0040f4d0 f i bullet.obj
 0001:0000e500       ?_Allocate@_Default_allocate_traits@std@@SAPAXI@Z 0040f500 f i bullet.obj
 0001:0000e520       ?_Buy_raw@?$vector@USDL_Rect@@V?$allocator@USDL_Rect@@@std@@@std@@AAEXI@Z 0040f520 f i bullet.obj
 0001:0000e5a0       ?_Calculate_growth@?$basic_string@DU?$char_traits@D@std@@V?$allocator@D@2@@std@@ABEII@Z 0040f5a0 f i bullet.obj
 0001:0000e5e0       ?_Calculate_growth@?$basic_string@DU?$char_traits@D@std@@V?$allocator@D@2@@std@@CAIIII@Z 0040f5e0 f i bullet.obj
 0001:0000e650       ?_Calculate_growth@?$vector@USDL_Rect@@V?$allocator@USDL_Rect@@@std@@@std@@ABEII@Z 0040f650 f i bullet.obj
 0001:0000e6c0       ?_Change_array@?$vector@USDL_Rect@@V?$allocator@USDL_Rect@@@std@@@std@@AAEXQAUSDL_Rect@@II@Z 0040f6c0 f i bullet.obj
 0001:0000e790       ?_Check_grow_by_1@?$_Tree@V?$_Tmap_traits@V?$basic_string@DU?$char_traits@D@std@@V?$allocator@D@2@@std@@V?$shared_ptr@VRawImageData@@@2@U?$less@V?$basic_string@DU?$char_traits@D@std@@V?$allocator@D@2@@std@@@2@V?$allocator@U?$pair@$$CBV?$basic_string@DU?$char_traits@D@std@@V?$allocator@D@2@@std@@V?$shared_ptr@VRawImageData@@@2@@std@@@2@$0A@@std@@@std@@IAEXXZ 0040f790 f i bullet.obj
 0001:0000e7d0       ?_Check_grow_by_1@?$_Tree@V?$_Tmap_traits@V?$basic_string@DU?$char_traits@D@std@@V?$allocator@D@2@@std@@V?$weak_ptr@VRawImageData@@@2@U?$less@V?$basic_string@DU?$char_traits@D@std@@V?$allocator@D@2@@std@@@2@V?$allocator@U?$pair@$$CBV?$basic_string@DU?$char_traits@D@std@@V?$allocator@D@2@@std@@V?$weak_ptr@VRawImageData@@@2@@std@@@2@$0A@@std@@@std@@IAEXXZ 0040f7d0 f i bullet.obj
 0001:0000e810       ?_Construct_lv_contents@?$basic_string@DU?$char_traits@D@std@@V?$allocator@D@2@@std@@AAEXABV12@@Z 0040f810 f i bullet.obj
 0001:0000e940       ?_Decref@?$_Ptr_base@VRawImageData@@@std@@IAEXXZ 0040f940 f i bullet.obj
 0001:0000e970       ?_Decref@_Ref_count_base@std@@QAEXXZ 0040f970 f i bullet.obj
 0001:0000e9b0       ?_Decwref@?$_Ptr_base@VRawImageData@@@std@@IAEXXZ 0040f9b0 f i bullet.obj
 0001:0000e9e0       ?_Decwref@_Ref_count_base@std@@QAEXXZ 0040f9e0 f i bullet.obj
 0001:0000ea20       ?_Delete_this@?$_Ref_count@VRawImageData@@@std@@EAEXXZ 0040fa20 f i bullet.obj
 0001:0000ea70       ?_Destroy@?$_Ref_count@VRawImageData@@@std@@EAEXXZ 0040fa70 f i bullet.obj
 0001:0000eab0       ?_Destroy@?$vector@USDL_Rect@@V?$allocator@USDL_Rect@@@std@@@std@@AAEXPAUSDL_Rect@@0@Z 0040fab0 f i bullet.obj
 0001:0000eae0       ?_Erase_unchecked@?$_Tree@V?$_Tmap_traits@V?$basic_string@DU?$char_traits@D@std@@V?$allocator@D@2@@std@@V?$weak_ptr@VRawImageData@@@2@U?$less@V?$basic_string@DU?$char_traits@D@std@@V?$allocator@D@2@@std@@@2@V?$allocator@U?$pair@$$CBV?$basic_string@DU?$char_traits@D@std@@V?$allocator@D@2@@std@@V?$weak_ptr@VRawImageData@@@2@@std@@@2@$0A@@std@@@std@@AAEPAU?$_Tree_node@U?$pair@$$CBV?$basic_string@DU?$char_traits@D@std@@V?$allocator@D@2@@std@@V?$weak_ptr@VRawImageData@@@2@@std@@PAX@2@V?$_Tree_unchecked_const_iterator@V?$_Tree_val@U?$_Tree_simple_types@U?$pair@$$CBV?$basic_string@DU?$char_traits@D@std@@V?$allocator@D@2@@std@@V?$weak_ptr@VRawImageData@@@2@@std@@@std@@@std@@U_Iterator_base0@2@@2@@Z 0040fae0 f i bullet.obj
 0001:0000eb60       ?_Extract@?$_In_place_key_extract_map@V?$basic_string@DU?$char_traits@D@std@@V?$allocator@D@2@@std@@U?$pair@V?$basic_string@DU?$char_traits@D@std@@V?$allocator@D@2@@std@@V?$shared_ptr@VRawImageData@@@2@@2@@std@@SAABV?$basic_string@DU?$char_traits@D@std@@V?$allocator@D@2@@2@ABU?$pair@V?$basic_string@DU?$char_traits@D@std@@V?$allocator@D@2@@std@@V?$shared_ptr@VRawImageData@@@2@@2@@Z 0040fb60 f i bullet.obj
 0001:0000eb70       ?_Extract@?$_In_place_key_extract_map@V?$basic_string@DU?$char_traits@D@std@@V?$allocator@D@2@@std@@U?$pair@V?$basic_string@DU?$char_traits@D@std@@V?$allocator@D@2@@std@@V?$weak_ptr@VRawImageData@@@2@@2@@std@@SAABV?$basic_string@DU?$char_traits@D@std@@V?$allocator@D@2@@2@ABU?$pair@V?$basic_string@DU?$char_traits@D@std@@V?$allocator@D@2@@std@@V?$weak_ptr@VRawImageData@@@2@@2@@Z 0040fb70 f i bullet.obj
 0001:0000eb80       ?_Extract@?$_Tree_val@U?$_Tree_simple_types@U?$pair@$$CBV?$basic_string@DU?$char_traits@D@std@@V?$allocator@D@2@@std@@V?$weak_ptr@VRawImageData@@@2@@std@@@std@@@std@@QAEPAU?$_Tree_node@U?$pair@$$CBV?$basic_string@DU?$char_traits@D@std@@V?$allocator@D@2@@std@@V?$weak_ptr@VRawImageData@@@2@@std@@PAX@2@V?$_Tree_unchecked_const_iterator@V?$_Tree_val@U?$_Tree_simple_types@U?$pair@$$CBV?$basic_string@DU?$char_traits@D@std@@V?$allocator@D@2@@std@@V?$weak_ptr@VRawImageData@@@2@@std@@@std@@@std@@U_Iterator_base0@2@@2@@Z 0040fb80 f i bullet.obj
 0001:0000f0c0       ?_Get_deleter@_Ref_count_base@std@@UBEPAXABVtype_info@@@Z 004100c0 f i bullet.obj
 0001:0000f0e0       ?_Get_first@?$_Compressed_pair@U?$less@V?$basic_string@DU?$char_traits@D@std@@V?$allocator@D@2@@std@@@std@@V?$_Compressed_pair@V?$allocator@U?$_Tree_node@U?$pair@$$CBV?$basic_string@DU?$char_traits@D@std@@V?$allocator@D@2@@std@@V?$shared_ptr@VRawImageData@@@2@@std@@PAX@std@@@std@@V?$_Tree_val@U?$_Tree_simple_types@U?$pair@$$CBV?$basic_string@DU?$char_traits@D@std@@V?$allocator@D@2@@std@@V?$shared_ptr@VRawImageData@@@2@@std@@@std@@@2@$00@2@$00@std@@QBEABU?$less@V?$basic_string@DU?$char_traits@D@std@@V?$allocator@D@2@@std@@@2@XZ 004100e0 f i bullet.obj
 0001:0000f100       ?_Get_first@?$_Compressed_pair@U?$less@V?$basic_string@DU?$char_traits@D@std@@V?$allocator@D@2@@std@@@std@@V?$_Compressed_pair@V?$allocator@U?$_Tree_node@U?$pair@$$CBV?$basic_string@DU?$char_traits@D@std@@V?$allocator@D@2@@std@@V?$weak_ptr@VRawImageData@@@2@@std@@PAX@std@@@std@@V?$_Tree_val@U?$_Tree_simple_types@U?$pair@$$CBV?$basic_string@DU?$char_traits@D@std@@V?$allocator@D@2@@std@@V?$weak_ptr@VRawImageData@@@2@@std@@@std@@@2@$00@2@$00@std@@QBEABU?$less@V?$basic_string@DU?$char_traits@D@std@@V?$allocator@D@2@@std@@@2@XZ 00410100 f i bullet.obj
 0001:0000f120       ?_Get_first@?$_Compressed_pair@V?$allocator@D@std@@V?$_String_val@U?$_Simple_types@D@std@@@2@$00@std@@QAEAAV?$allocator@D@2@XZ 00410120 f i bullet.obj
 0001:0000f140       ?_Get_first@?$_Compressed_pair@V?$allocator@D@std@@V?$_String_val@U?$_Simple_types@D@std@@@2@$00@std@@QBEABV?$allocator@D@2@XZ 00410140 f i bullet.obj
 0001:0000f160       ?_Get_first@?$_Compressed_pair@V?$allocator@U?$_Tree_node@U?$pair@$$CBV?$basic_string@DU?$char_traits@D@std@@V?$allocator@D@2@@std@@V?$shared_ptr@VRawImageData@@@2@@std@@PAX@std@@@std@@V?$_Tree_val@U?$_Tree_simple_types@U?$pair@$$CBV?$basic_string@DU?$char_traits@D@std@@V?$allocator@D@2@@std@@V?$shared_ptr@VRawImageData@@@2@@std@@@std@@@2@$00@std@@QAEAAV?$allocator@U?$_Tree_node@U?$pair@$$CBV?$basic_string@DU?$char_traits@D@std@@V?$allocator@D@2@@std@@V?$shared_ptr@VRawImageData@@@2@@std@@PAX@std@@@2@XZ 00410160 f i bullet.obj
 0001:0000f180       ?_Get_first@?$_Compressed_pair@V?$allocator@U?$_Tree_node@U?$pair@$$CBV?$basic_string@DU?$char_traits@D@std@@V?$allocator@D@2@@std@@V?$shared_ptr@VRawImageData@@@2@@std@@PAX@std@@@std@@V?$_Tree_val@U?$_Tree_simple_types@U?$pair@$$CBV?$basic_string@DU?$char_traits@D@std@@V?$allocator@D@2@@std@@V?$shared_ptr@VRawImageData@@@2@@std@@@std@@@2@$00@std@@QBEABV?$allocator@U?$_Tree_node@U?$pair@$$CBV?$basic_string@DU?$char_traits@D@std@@V?$allocator@D@2@@std@@V?$shared_ptr@VRawImageData@@@2@@std@@PAX@std@@@2@XZ 00410180 f i bullet.obj
 0001:0000f1a0       ?_Get_first@?$_Compressed_pair@V?$allocator@U?$_Tree_node@U?$pair@$$CBV?$basic_string@DU?$char_traits@D@std@@V?$allocator@D@2@@std@@V?$weak_ptr@VRawImageData@@@2@@std@@PAX@std@@@std@@V?$_Tree_val@U?$_Tree_simple_types@U?$pair@$$CBV?$basic_string@DU?$char_traits@D@std@@V?$allocator@D@2@@std@@V?$weak_ptr@VRawImageData@@@2@@std@@@std@@@2@$00@std@@QAEAAV?$allocator@U?$_Tree_node@U?$pair@$$CBV?$basic_string@DU?$char_traits@D@std@@V?$allocator@D@2@@std@@V?$weak_ptr@VRawImageData@@@2@@std@@PAX@std@@@2@XZ 004101a0 f i bullet.obj
 0001:0000f1c0       ?_Get_first@?$_Compressed_pair@V?$allocator@U?$_Tree_node@U?$pair@$$CBV?$basic_string@DU?$char_traits@D@std@@V?$allocator@D@2@@std@@V?$weak_ptr@VRawImageData@@@2@@std@@PAX@std@@@std@@V?$_Tree_val@U?$_Tree_simple_types@U?$pair@$$CBV?$basic_string@DU?$char_traits@D@std@@V?$allocator@D@2@@std@@V?$weak_ptr@VRawImageData@@@2@@std@@@std@@@2@$00@std@@QBEABV?$allocator@U?$_Tree_node@U?$pair@$$CBV?$basic_string@DU?$char_traits@D@std@@V?$allocator@D@2@@std@@V?$weak_ptr@VRawImageData@@@2@@std@@PAX@std@@@2@XZ 004101c0 f i bullet.obj
 0001:0000f1e0       ?_Get_first@?$_Compressed_pair@V?$allocator@USDL_Rect@@@std@@V?$_Vector_val@U?$_Simple_types@USDL_Rect@@@std@@@2@$00@std@@QAEAAV?$allocator@USDL_Rect@@@2@XZ 004101e0 f i bullet.obj
 0001:0000f200       ?_Get_first@?$_Compressed_pair@V?$allocator@USDL_Rect@@@std@@V?$_Vector_val@U?$_Simple_types@USDL_Rect@@@std@@@2@$00@std@@QBEABV?$allocator@USDL_Rect@@@2@XZ 00410200 f i bullet.obj
 0001:0000f220       ?_Get_scary@?$_Tree@V?$_Tmap_traits@V?$basic_string@DU?$char_traits@D@std@@V?$allocator@D@2@@std@@V?$shared_ptr@VRawImageData@@@2@U?$less@V?$basic_string@DU?$char_traits@D@std@@V?$allocator@D@2@@std@@@2@V?$allocator@U?$pair@$$CBV?$basic_string@DU?$char_traits@D@std@@V?$allocator@D@2@@std@@V?$shared_ptr@VRawImageData@@@2@@std@@@2@$0A@@std@@@std@@IAEPAV?$_Tree_val@U?$_Tree_simple_types@U?$pair@$$CBV?$basic_string@DU?$char_traits@D@std@@V?$allocator@D@2@@std@@V?$shared_ptr@VRawImageData@@@2@@std@@@std@@@2@XZ 00410220 f i bullet.obj
 0001:0000f240       ?_Get_scary@?$_Tree@V?$_Tmap_traits@V?$basic_string@DU?$char_traits@D@std@@V?$allocator@D@2@@std@@V?$shared_ptr@VRawImageData@@@2@U?$less@V?$basic_string@DU?$char_traits@D@std@@V?$allocator@D@2@@std@@@2@V?$allocator@U?$pair@$$CBV?$basic_string@DU?$char_traits@D@std@@V?$allocator@D@2@@std@@V?$shared_ptr@VRawImageData@@@2@@std@@@2@$0A@@std@@@std@@IBEPBV?$_Tree_val@U?$_Tree_simple_types@U?$pair@$$CBV?$basic_string@DU?$char_traits@D@std@@V?$allocator@D@2@@std@@V?$shared_ptr@VRawImageData@@@2@@std@@@std@@@2@XZ 00410240 f i bullet.obj
 0001:0000f260       ?_Get_scary@?$_Tree@V?$_Tmap_traits@V?$basic_string@DU?$char_traits@D@std@@V?$allocator@D@2@@std@@V?$weak_ptr@VRawImageData@@@2@U?$less@V?$basic_string@DU?$char_traits@D@std@@V?$allocator@D@2@@std@@@2@V?$allocator@U?$pair@$$CBV?$basic_string@DU?$char_traits@D@std@@V?$allocator@D@2@@std@@V?$weak_ptr@VRawImageData@@@2@@std@@@2@$0A@@std@@@std@@IAEPAV?$_Tree_val@U?$_Tree_simple_types@U?$pair@$$CBV?$basic_string@DU?$char_traits@D@std@@V?$allocator@D@2@@std@@V?$weak_ptr@VRawImageData@@@2@@std@@@std@@@2@XZ 00410260 f i bullet.obj
 0001:0000f280       ?_Get_scary@?$_Tree@V?$_Tmap_traits@V?$basic_string@DU?$char_traits@D@std@@V?$allocator@D@2@@std@@V?$weak_ptr@VRawImageData@@@2@U?$less@V?$basic_string@DU?$char_traits@D@std@@V?$allocator@D@2@@std@@@2@V?$allocator@U?$pair@$$CBV?$basic_string@DU?$char_traits@D@std@@V?$allocator@D@2@@std@@V?$weak_ptr@VRawImageData@@@2@@std@@@2@$0A@@std@@@std@@IBEPBV?$_Tree_val@U?$_Tree_simple_types@U?$pair@$$CBV?$basic_string@DU?$char_traits@D@std@@V?$allocator@D@2@@std@@V?$weak_ptr@VRawImageData@@@2@@std@@@std@@@2@XZ 00410280 f i bullet.obj
 0001:0000f2a0       ?_Getal@?$_Tree@V?$_Tmap_traits@V?$basic_string@DU?$char_traits@D@std@@V?$allocator@D@2@@std@@V?$shared_ptr@VRawImageData@@@2@U?$less@V?$basic_string@DU?$char_traits@D@std@@V?$allocator@D@2@@std@@@2@V?$allocator@U?$pair@$$CBV?$basic_string@DU?$char_traits@D@std@@V?$allocator@D@2@@std@@V?$shared_ptr@VRawImageData@@@2@@std@@@2@$0A@@std@@@std@@IAEAAV?$allocator@U?$_Tree_node@U?$pair@$$CBV?$basic_string@DU?$char_traits@D@std@@V?$allocator@D@2@@std@@V?$shared_ptr@VRawImageData@@@2@@std@@PAX@std@@@2@XZ 004102a0 f i bullet.obj
 0001:0000f2c0       ?_Getal@?$_Tree@V?$_Tmap_traits@V?$basic_string@DU?$char_traits@D@std@@V?$allocator@D@2@@std@@V?$shared_ptr@VRawImageData@@@2@U?$less@V?$basic_string@DU?$char_traits@D@std@@V?$allocator@D@2@@std@@@2@V?$allocator@U?$pair@$$CBV?$basic_string@DU?$char_traits@D@std@@V?$allocator@D@2@@std@@V?$shared_ptr@VRawImageData@@@2@@std@@@2@$0A@@std@@@std@@IBEABV?$allocator@U?$_Tree_node@U?$pair@$$CBV?$basic_string@DU?$char_traits@D@std@@V?$allocator@D@2@@std@@V?$shared_ptr@VRawImageData@@@2@@std@@PAX@std@@@2@XZ 004102c0 f i bullet.obj
 0001:0000f2e0       ?_Getal@?$_Tree@V?$_Tmap_traits@V?$basic_string@DU?$char_traits@D@std@@V?$allocator@D@2@@std@@V?$weak_ptr@VRawImageData@@@2@U?$less@V?$basic_string@DU?$char_traits@D@std@@V?$allocator@D@2@@std@@@2@V?$allocator@U?$pair@$$CBV?$basic_string@DU?$char_traits@D@std@@V?$allocator@D@2@@std@@V?$weak_ptr@VRawImageData@@@2@@std@@@2@$0A@@std@@@std@@IAEAAV?$allocator@U?$_Tree_node@U?$pair@$$CBV?$basic_string@DU?$char_traits@D@std@@V?$allocator@D@2@@std@@V?$weak_ptr@VRawImageData@@@2@@std@@PAX@std@@@2@XZ 004102e0 f i bullet.obj
 0001:0000f300       ?_Getal@?$_Tree@V?$_Tmap_traits@V?$basic_string@DU?$char_traits@D@std@@V?$allocator@D@2@@std@@V?$weak_ptr@VRawImageData@@@2@U?$less@V?$basic_string@DU?$char_traits@D@std@@V?$allocator@D@2@@std@@@2@V?$allocator@U?$pair@$$CBV?$basic_string@DU?$char_traits@D@std@@V?$allocator@D@2@@std@@V?$weak_ptr@VRawImageData@@@2@@std@@@2@$0A@@std@@@std@@IBEABV?$allocator@U?$_Tree_node@U?$pair@$$CBV?$basic_string@DU?$char_traits@D@std@@V?$allocator@D@2@@std@@V?$weak_ptr@VRawImageData@@@2@@std@@PAX@std@@@2@XZ 00410300 f i bullet.obj
 0001:0000f320       ?_Getal@?$basic_string@DU?$char_traits@D@std@@V?$allocator@D@2@@std@@AAEAAV?$allocator@D@2@XZ 00410320 f i bullet.obj
 0001:0000f340       ?_Getal@?$basic_string@DU?$char_traits@D@std@@V?$allocator@D@2@@std@@ABEABV?$allocator@D@2@XZ 00410340 f i bullet.obj
 0001:0000f360       ?_Getal@?$vector@USDL_Rect@@V?$allocator@USDL_Rect@@@std@@@std@@AAEAAV?$allocator@USDL_Rect@@@2@XZ 00410360 f i bullet.obj
 0001:0000f380       ?_Getal@?$vector@USDL_Rect@@V?$allocator@USDL_Rect@@@std@@@std@@ABEABV?$allocator@USDL_Rect@@@2@XZ 00410380 f i bullet.obj
 0001:0000f3a0       ?_Getcomp@?$_Tree@V?$_Tmap_traits@V?$basic_string@DU?$char_traits@D@std@@V?$allocator@D@2@@std@@V?$shared_ptr@VRawImageData@@@2@U?$less@V?$basic_string@DU?$char_traits@D@std@@V?$allocator@D@2@@std@@@2@V?$allocator@U?$pair@$$CBV?$basic_string@DU?$char_traits@D@std@@V?$allocator@D@2@@std@@V?$shared_ptr@VRawImageData@@@2@@std@@@2@$0A@@std@@@std@@IBEABU?$less@V?$basic_string@DU?$char_traits@D@std@@V?$allocator@D@2@@std@@@2@XZ 004103a0 f i bullet.obj
 0001:0000f3c0       ?_Getcomp@?$_Tree@V?$_Tmap_traits@V?$basic_string@DU?$char_traits@D@std@@V?$allocator@D@2@@std@@V?$weak_ptr@VRawImageData@@@2@U?$less@V?$basic_string@DU?$char_traits@D@std@@V?$allocator@D@2@@std@@@2@V?$allocator@U?$pair@$$CBV?$basic_string@DU?$char_traits@D@std@@V?$allocator@D@2@@std@@V?$weak_ptr@VRawImageData@@@2@@std@@@2@$0A@@std@@@std@@IBEABU?$less@V?$basic_string@DU?$char_traits@D@std@@V?$allocator@D@2@@std@@@2@XZ 004103c0 f i bullet.obj
 0001:0000f3e0       ?_Getcont@_Iterator_base12@std@@QBEPBU_Container_base12@2@XZ 004103e0 f i bullet.obj
 0001:0000f420       ?_Incref@?$_Ptr_base@VRawImageData@@@std@@IBEXXZ 00410420 f i bullet.obj
 0001:0000f450       ?_Incref@_Ref_count_base@std@@QAEXXZ 00410450 f i bullet.obj
 0001:0000f470       ?_Incref_nz@_Ref_count_base@std@@QAE_NXZ 00410470 f i bullet.obj
 0001:0000f4e0       ?_Incwref@_Ref_count_base@std@@QAEXXZ 004104e0 f i bullet.obj
 0001:0000f500       ?_Insert_node@?$_Tree_val@U?$_Tree_simple_types@U?$pair@$$CBV?$basic_string@DU?$char_traits@D@std@@V?$allocator@D@2@@std@@V?$shared_ptr@VRawImageData@@@2@@std@@@std@@@std@@QAEPAU?$_Tree_node@U?$pair@$$CBV?$basic_string@DU?$char_traits@D@std@@V?$allocator@D@2@@std@@V?$shared_ptr@VRawImageData@@@2@@std@@PAX@2@U?$_Tree_id@PAU?$_Tree_node@U?$pair@$$CBV?$basic_string@DU?$char_traits@D@std@@V?$allocator@D@2@@std@@V?$shared_ptr@VRawImageData@@@2@@std@@PAX@std@@@2@QAU32@@Z 00410500 f i bullet.obj
 0001:0000f790       ?_Insert_node@?$_Tree_val@U?$_Tree_simple_types@U?$pair@$$CBV?$basic_string@DU?$char_traits@D@std@@V?$allocator@D@2@@std@@V?$weak_ptr@VRawImageData@@@2@@std@@@std@@@std@@QAEPAU?$_Tree_node@U?$pair@$$CBV?$basic_string@DU?$char_traits@D@std@@V?$allocator@D@2@@std@@V?$weak_ptr@VRawImageData@@@2@@std@@PAX@2@U?$_Tree_id@PAU?$_Tree_node@U?$pair@$$CBV?$basic_string@DU?$char_traits@D@std@@V?$allocator@D@2@@std@@V?$weak_ptr@VRawImageData@@@2@@std@@PAX@std@@@2@QAU32@@Z 00410790 f i bullet.obj
 0001:0000fa20       ?_Large_string_engaged@?$_String_val@U?$_Simple_types@D@std@@@std@@QBE_NXZ 00410a20 f i bullet.obj
 0001:0000fa60       ?_Lrotate@?$_Tree_val@U?$_Tree_simple_types@U?$pair@$$CBV?$basic_string@DU?$char_traits@D@std@@V?$allocator@D@2@@std@@V?$shared_ptr@VRawImageData@@@2@@std@@@std@@@std@@QAEXPAU?$_Tree_node@U?$pair@$$CBV?$basic_string@DU?$char_traits@D@std@@V?$allocator@D@2@@std@@V?$shared_ptr@VRawImageData@@@2@@std@@PAX@2@@Z 00410a60 f i bullet.obj
 0001:0000fb20       ?_Lrotate@?$_Tree_val@U?$_Tree_simple_types@U?$pair@$$CBV?$basic_string@DU?$char_traits@D@std@@V?$allocator@D@2@@std@@V?$weak_ptr@VRawImageData@@@2@@std@@@std@@@std@@QAEXPAU?$_Tree_node@U?$pair@$$CBV?$basic_string@DU?$char_traits@D@std@@V?$allocator@D@2@@std@@V?$weak_ptr@VRawImageData@@@2@@std@@PAX@2@@Z 00410b20 f i bullet.obj
 0001:0000fbe0       ?_Max@?$_Tree_val@U?$_Tree_simple_types@U?$pair@$$CBV?$basic_string@DU?$char_traits@D@std@@V?$allocator@D@2@@std@@V?$weak_ptr@VRawImageData@@@2@@std@@@std@@@std@@SAPAU?$_Tree_node@U?$pair@$$CBV?$basic_string@DU?$char_traits@D@std@@V?$allocator@D@2@@std@@V?$weak_ptr@VRawImageData@@@2@@std@@PAX@2@PAU32@@Z 00410be0 f i bullet.obj
 0001:0000fc10       ?_Memcpy_val_from@?$basic_string@DU?$char_traits@D@std@@V?$allocator@D@2@@std@@AAEXABV12@@Z 00410c10 f i bullet.obj
 0001:0000fc70       ?_Min@?$_Tree_val@U?$_Tree_simple_types@U?$pair@$$CBV?$basic_string@DU?$char_traits@D@std@@V?$allocator@D@2@@std@@V?$weak_ptr@VRawImageData@@@2@@std@@@std@@@std@@SAPAU?$_Tree_node@U?$pair@$$CBV?$basic_string@DU?$char_traits@D@std@@V?$allocator@D@2@@std@@V?$weak_ptr@VRawImageData@@@2@@std@@PAX@2@PAU32@@Z 00410c70 f i bullet.obj
 0001:0000fca0       ?_Myptr@?$_String_val@U?$_Simple_types@D@std@@@std@@QAEPADXZ 00410ca0 f i bullet.obj
 0001:0000fcf0       ?_Myptr@?$_String_val@U?$_Simple_types@D@std@@@std@@QBEPBDXZ 00410cf0 f i bullet.obj
 0001:0000fd40       ?_Orphan_all@_Container_base12@std@@QAEXXZ 00410d40 f i bullet.obj
 0001:0000fdc0       ?_Orphan_me@_Iterator_base12@std@@QAEXXZ 00410dc0 f i bullet.obj
 0001:0000fea0       ?_Orphan_ptr@?$_Tree_val@U?$_Tree_simple_types@U?$pair@$$CBV?$basic_string@DU?$char_traits@D@std@@V?$allocator@D@2@@std@@V?$weak_ptr@VRawImageData@@@2@@std@@@std@@@std@@QAEXQAU?$_Tree_node@U?$pair@$$CBV?$basic_string@DU?$char_traits@D@std@@V?$allocator@D@2@@std@@V?$weak_ptr@VRawImageData@@@2@@std@@PAX@2@@Z 00410ea0 f i bullet.obj
 0001:0000ff50       ?_Orphan_range@?$vector@USDL_Rect@@V?$allocator@USDL_Rect@@@std@@@std@@ABEXPAUSDL_Rect@@0@Z 00410f50 f i bullet.obj
 0001:0000fff0       ?_Release@?$_Alloc_construct_ptr@V?$allocator@U?$_Tree_node@U?$pair@$$CBV?$basic_string@DU?$char_traits@D@std@@V?$allocator@D@2@@std@@V?$shared_ptr@VRawImageData@@@2@@std@@PAX@std@@@std@@@std@@QAEPAU?$_Tree_node@U?$pair@$$CBV?$basic_string@DU?$char_traits@D@std@@V?$allocator@D@2@@std@@V?$shared_ptr@VRawImageData@@@2@@std@@PAX@2@XZ 00410ff0 f i bullet.obj
 0001:00010020       ?_Release@?$_Alloc_construct_ptr@V?$allocator@U?$_Tree_node@U?$pair@$$CBV?$basic_string@DU?$char_traits@D@std@@V?$allocator@D@2@@std@@V?$weak_ptr@VRawImageData@@@2@@std@@PAX@std@@@std@@@std@@QAEPAU?$_Tree_node@U?$pair@$$CBV?$basic_string@DU?$char_traits@D@std@@V?$allocator@D@2@@std@@V?$weak_ptr@VRawImageData@@@2@@std@@PAX@2@XZ 00411020 f i bullet.obj
 0001:00010050       ?_Release@_Basic_container_proxy_ptr12@std@@QAEXXZ 00411050 f i bullet.obj
 0001:00010070       ?_Rrotate@?$_Tree_val@U?$_Tree_simple_types@U?$pair@$$CBV?$basic_string@DU?$char_traits@D@std@@V?$allocator@D@2@@std@@V?$shared_ptr@VRawImageData@@@2@@std@@@std@@@std@@QAEXPAU?$_Tree_node@U?$pair@$$CBV?$basic_string@DU?$char_traits@D@std@@V?$allocator@D@2@@std@@V?$shared_ptr@VRawImageData@@@2@@std@@PAX@2@@Z 00411070 f i bullet.obj
 0001:00010140       ?_Rrotate@?$_Tree_val@U?$_Tree_simple_types@U?$pair@$$CBV?$basic_string@DU?$char_traits@D@std@@V?$allocator@D@2@@std@@V?$weak_ptr@VRawImageData@@@2@@std@@@std@@@std@@QAEXPAU?$_Tree_node@U?$pair@$$CBV?$basic_string@DU?$char_traits@D@std@@V?$allocator@D@2@@std@@V?$weak_ptr@VRawImageData@@@2@@std@@PAX@2@@Z 00411140 f i bullet.obj
 0001:00010210       ?_Swap@?$_Ptr_base@VRawImageData@@@std@@IAEXAAV12@@Z 00411210 f i bullet.obj
 0001:00010250       ?_Swap_proxy_and_iterators@?$basic_string@DU?$char_traits@D@std@@V?$allocator@D@2@@std@@AAEXAAV12@@Z 00411250 f i bullet.obj
 0001:00010270       ?_Swap_proxy_and_iterators@_Container_base12@std@@QAEXAAU12@@Z 00411270 f i bullet.obj
 0001:000102f0       ?_Take_contents@?$basic_string@DU?$char_traits@D@std@@V?$allocator@D@2@@std@@AAEXAAV12@U?$integral_constant@_N$00@2@@Z 004112f0 f i bullet.obj
 0001:00010390       ?_Throw_bad_array_new_length@std@@YAXXZ 00411390 f i bullet.obj
 0001:000103c0       ?_Throw_tree_length_error@std@@YAXXZ 004113c0 f i bullet.obj
 0001:000103e0       ?_Tidy@?$vector@USDL_Rect@@V?$allocator@USDL_Rect@@@std@@@std@@AAEXXZ 004113e0 f i bullet.obj
 0001:000104d0       ?_Tidy_deallocate@?$basic_string@DU?$char_traits@D@std@@V?$allocator@D@2@@std@@AAEXXZ 004114d0 f i bullet.obj
 0001:000105c0       ?_Tidy_init@?$basic_string@DU?$char_traits@D@std@@V?$allocator@D@2@@std@@AAEXXZ 004115c0 f i bullet.obj
 0001:00010620       ?_Umove@?$vector@USDL_Rect@@V?$allocator@USDL_Rect@@@std@@@std@@AAEPAUSDL_Rect@@PAU3@00@Z 00411620 f i bullet.obj
 0001:00010660       ?_Umove_if_noexcept1@?$vector@USDL_Rect@@V?$allocator@USDL_Rect@@@std@@@std@@AAEXPAUSDL_Rect@@00U?$integral_constant@_N$00@2@@Z 00411660 f i bullet.obj
 0001:000106a0       ?_Umove_if_noexcept@?$vector@USDL_Rect@@V?$allocator@USDL_Rect@@@std@@@std@@AAEXPAUSDL_Rect@@00@Z 004116a0 f i bullet.obj
 0001:000106e0       ?_Unwrapped@?$_Tree_iterator@V?$_Tree_val@U?$_Tree_simple_types@U?$pair@$$CBV?$basic_string@DU?$char_traits@D@std@@V?$allocator@D@2@@std@@V?$weak_ptr@VRawImageData@@@2@@std@@@std@@@std@@@std@@QBE?AV?$_Tree_unchecked_iterator@V?$_Tree_val@U?$_Tree_simple_types@U?$pair@$$CBV?$basic_string@DU?$char_traits@D@std@@V?$allocator@D@2@@std@@V?$weak_ptr@VRawImageData@@@2@@std@@@std@@@std@@@2@XZ 004116e0 f i bullet.obj
 0001:00010720       ?_Use_count@_Ref_count_base@std@@QBEJXZ 00411720 f i bullet.obj
 0001:00010740       ?_Xlen_string@std@@YAXXZ   00411740 f i bullet.obj
 0001:00010760       ?_Xlength@?$vector@USDL_Rect@@V?$allocator@USDL_Rect@@@std@@@std@@CAXXZ 00411760 f i bullet.obj
 0001:00010780       ?allocate@?$allocator@D@std@@QAEPADI@Z 00411780 f i bullet.obj
 0001:000107b0       ?allocate@?$allocator@U?$_Tree_node@U?$pair@$$CBV?$basic_string@DU?$char_traits@D@std@@V?$allocator@D@2@@std@@V?$shared_ptr@VRawImageData@@@2@@std@@PAX@std@@@std@@QAEPAU?$_Tree_node@U?$pair@$$CBV?$basic_string@DU?$char_traits@D@std@@V?$allocator@D@2@@std@@V?$shared_ptr@VRawImageData@@@2@@std@@PAX@2@I@Z 004117b0 f i bullet.obj
 0001:000107e0       ?allocate@?$allocator@U?$_Tree_node@U?$pair@$$CBV?$basic_string@DU?$char_traits@D@std@@V?$allocator@D@2@@std@@V?$weak_ptr@VRawImageData@@@2@@std@@PAX@std@@@std@@QAEPAU?$_Tree_node@U?$pair@$$CBV?$basic_string@DU?$char_traits@D@std@@V?$allocator@D@2@@std@@V?$weak_ptr@VRawImageData@@@2@@std@@PAX@2@I@Z 004117e0 f i bullet.obj
 0001:00010810       ?allocate@?$allocator@USDL_Rect@@@std@@QAEPAUSDL_Rect@@I@Z 00411810 f i bullet.obj
 0001:00010840       ?allocate@?$allocator@U_Container_proxy@std@@@std@@QAEPAU_Container_proxy@2@I@Z 00411840 f i bullet.obj
 0001:00010870       ?assign@?$_Narrow_char_traits@DH@std@@SAXAADABD@Z 00411870 f i bullet.obj
 0001:00010890       ?assign@?$basic_string@DU?$char_traits@D@std@@V?$allocator@D@2@@std@@QAEAAV12@QBD@Z 00411890 f i bullet.obj
 0001:000108d0       ?assign@?$basic_string@DU?$char_traits@D@std@@V?$allocator@D@2@@std@@QAEAAV12@QBDI@Z 004118d0 f i bullet.obj
 0001:00010970       ?c_str@?$basic_string@DU?$char_traits@D@std@@V?$allocator@D@2@@std@@QBEPBDXZ 00411970 f i bullet.obj
 0001:00010990       ?capacity@?$vector@USDL_Rect@@V?$allocator@USDL_Rect@@@std@@@std@@QBEIXZ 00411990 f i bullet.obj
 0001:000109c0       ?compare@?$_Narrow_char_traits@DH@std@@SAHQBD0I@Z 004119c0 f i bullet.obj
 0001:000109e0       ?compare@?$basic_string@DU?$char_traits@D@std@@V?$allocator@D@2@@std@@QBEHABV12@@Z 004119e0 f i bullet.obj
 0001:00010a30       ?copy@?$_Char_traits@DH@std@@SAPADQADQBDI@Z 00411a30 f i bullet.obj
 0001:00010a60       ?data@?$basic_string@DU?$char_traits@D@std@@V?$allocator@D@2@@std@@QBEPBDXZ 00411a60 f i bullet.obj
 0001:00010a80       ?deallocate@?$_Default_allocator_traits@V?$allocator@U?$_Tree_node@U?$pair@$$CBV?$basic_string@DU?$char_traits@D@std@@V?$allocator@D@2@@std@@V?$weak_ptr@VRawImageData@@@2@@std@@PAX@std@@@std@@@std@@SAXAAV?$allocator@U?$_Tree_node@U?$pair@$$CBV?$basic_string@DU?$char_traits@D@std@@V?$allocator@D@2@@std@@V?$weak_ptr@VRawImageData@@@2@@std@@PAX@std@@@2@QAU?$_Tree_node@U?$pair@$$CBV?$basic_string@DU?$char_traits@D@std@@V?$allocator@D@2@@std@@V?$weak_ptr@VRawImageData@@@2@@std@@PAX@2@I@Z 00411a80 f i bullet.obj
 0001:00010aa0       ?deallocate@?$_Default_allocator_traits@V?$allocator@U_Container_proxy@std@@@std@@@std@@SAXAAV?$allocator@U_Container_proxy@std@@@2@QAU_Container_proxy@2@I@Z 00411aa0 f i bullet.obj
 0001:00010ac0       ?deallocate@?$allocator@D@std@@QAEXQADI@Z 00411ac0 f i bullet.obj
 0001:00010af0       ?deallocate@?$allocator@U?$_Tree_node@U?$pair@$$CBV?$basic_string@DU?$char_traits@D@std@@V?$allocator@D@2@@std@@V?$shared_ptr@VRawImageData@@@2@@std@@PAX@std@@@std@@QAEXQAU?$_Tree_node@U?$pair@$$CBV?$basic_string@DU?$char_traits@D@std@@V?$allocator@D@2@@std@@V?$shared_ptr@VRawImageData@@@2@@std@@PAX@2@I@Z 00411af0 f i bullet.obj
 0001:00010b20       ?deallocate@?$allocator@U?$_Tree_node@U?$pair@$$CBV?$basic_string@DU?$char_traits@D@std@@V?$allocator@D@2@@std@@V?$weak_ptr@VRawImageData@@@2@@std@@PAX@std@@@std@@QAEXQAU?$_Tree_node@U?$pair@$$CBV?$basic_string@DU?$char_traits@D@std@@V?$allocator@D@2@@std@@V?$weak_ptr@VRawImageData@@@2@@std@@PAX@2@I@Z 00411b20 f i bullet.obj
 0001:00010b50       ?deallocate@?$allocator@USDL_Rect@@@std@@QAEXQAUSDL_Rect@@I@Z 00411b50 f i bullet.obj
 0001:00010b80       ?deleteOnRemoval@DisplayableObject@@UBE_NXZ 00411b80 f i bullet.obj
 0001:00010ba0       ?drawableObjectsChanged@DisplayableObjectContainer@@QAEXXZ 00411ba0 f i bullet.obj
 0001:00010bc0       ?end@?$_Tree@V?$_Tmap_traits@V?$basic_string@DU?$char_traits@D@std@@V?$allocator@D@2@@std@@V?$weak_ptr@VRawImageData@@@2@U?$less@V?$basic_string@DU?$char_traits@D@std@@V?$allocator@D@2@@std@@@2@V?$allocator@U?$pair@$$CBV?$basic_string@DU?$char_traits@D@std@@V?$allocator@D@2@@std@@V?$weak_ptr@VRawImageData@@@2@@std@@@2@$0A@@std@@@std@@QAE?AV?$_Tree_iterator@V?$_Tree_val@U?$_Tree_simple_types@U?$pair@$$CBV?$basic_string@DU?$char_traits@D@std@@V?$allocator@D@2@@std@@V?$weak_ptr@VRawImageData@@@2@@std@@@std@@@std@@@2@XZ 00411bc0 f i bullet.obj
 0001:00010c00       ?expired@?$weak_ptr@VRawImageData@@@std@@QBE_NXZ 00411c00 f i bullet.obj
 0001:00010c40       ?find@?$_Tree@V?$_Tmap_traits@V?$basic_string@DU?$char_traits@D@std@@V?$allocator@D@2@@std@@V?$weak_ptr@VRawImageData@@@2@U?$less@V?$basic_string@DU?$char_traits@D@std@@V?$allocator@D@2@@std@@@2@V?$allocator@U?$pair@$$CBV?$basic_string@DU?$char_traits@D@std@@V?$allocator@D@2@@std@@V?$weak_ptr@VRawImageData@@@2@@std@@@2@$0A@@std@@@std@@QAE?AV?$_Tree_iterator@V?$_Tree_val@U?$_Tree_simple_types@U?$pair@$$CBV?$basic_string@DU?$char_traits@D@std@@V?$allocator@D@2@@std@@V?$weak_ptr@VRawImageData@@@2@@std@@@std@@@std@@@2@ABV?$basic_string@DU?$char_traits@D@std@@V?$allocator@D@2@@2@@Z 00411c40 f i bullet.obj
 0001:00010c90       ?freeSurface@RawImageData@@QAEXXZ 00411c90 f i bullet.obj
 0001:00010d10       ?get@?$_Ptr_base@VRawImageData@@@std@@IBEPAVRawImageData@@XZ 00411d10 f i bullet.obj
 0001:00010d30       ?get@ImageManager@@SAPAV1@XZ 00411d30 f i bullet.obj
 0001:00010de0       ?getAttack@Scyzc3Object@@QAEHXZ 00411de0 f i bullet.obj
 0001:00010e00       ?getBox@Scyzc3Object@@QAE?AV?$vector@USDL_Rect@@V?$allocator@USDL_Rect@@@std@@@std@@XZ 00411e00 f i bullet.obj
 0001:00010e40       ?getClassId@bullet@@UAEHXZ 00411e40 f i bullet.obj
 0001:00010e60       ?getDisplayableObject@DisplayableObjectContainer@@QBEPAVDisplayableObject@@H@Z 00411e60 f i bullet.obj
 0001:00010ea0       ?getForegroundSurface@BaseEngine@@QAEPAVDrawingSurface@@XZ 00411ea0 f i bullet.obj
 0001:00010ec0       ?getHP@Scyzc3Object@@UAEHXZ 00411ec0 f i bullet.obj
 0001:00010ee0       ?getHeight@RawImageData@@QBEHXZ 00411ee0 f i bullet.obj
 0001:00010f00       ?getHeight@SimpleImage@@QBEHXZ 00411f00 f i bullet.obj
 0001:00010f30       ?getImagePtrbyURL@ImageManager@@QAE?AV?$shared_ptr@VRawImageData@@@std@@V?$basic_string@DU?$char_traits@D@std@@V?$allocator@D@2@@3@_N1@Z 00411f30 f i bullet.obj
 0001:00011370       ?getImagebyURL@ImageManager@@QAE?AVSimpleImage@@V?$basic_string@DU?$char_traits@D@std@@V?$allocator@D@2@@std@@_N1@Z 00412370 f i bullet.obj
 0001:00011440       ?getPixelColour@SimpleImage@@QBEHHH@Z 00412440 f i bullet.obj
 0001:00011470       ?getPositionX@Scyzc3Object@@UAEHXZ 00412470 f i bullet.obj
 0001:00011490       ?getPositionY@Scyzc3Object@@UAEHXZ 00412490 f i bullet.obj
 0001:000114b0       ?getRawPixelColour@RawImageData@@QBEHHH@Z 004124b0 f i bullet.obj
 0001:00011500       ?getScore@Scyzc3Object@@UAEHXZ 00412500 f i bullet.obj
 0001:00011520       ?getWidth@RawImageData@@QBEHXZ 00412520 f i bullet.obj
 0001:00011540       ?getWidth@SimpleImage@@QBEHXZ 00412540 f i bullet.obj
 0001:00011570       ?getXForRotationAndCrop@RawImageData@@SAHHHHHHH@Z 00412570 f i bullet.obj
 0001:000115e0       ?getYForRotationAndCrop@RawImageData@@SAHHHHHHH@Z 004125e0 f i bullet.obj
 0001:00011650       ?getdirection@Scyzc3Object@@UAEHXZ 00412650 f i bullet.obj
 0001:00011670       ?isVisible@DisplayableObject@@QBE_NXZ 00412670 f i bullet.obj
 0001:00011690       ?loadAsNew@ImageManager@@QAE?AV?$shared_ptr@VRawImageData@@@std@@V?$basic_string@DU?$char_traits@D@std@@V?$allocator@D@2@@3@@Z 00412690 f i bullet.obj
 0001:00011860       ?loadImage@ImageManager@@SA?AVSimpleImage@@V?$basic_string@DU?$char_traits@D@std@@V?$allocator@D@2@@std@@_N@Z 00412860 f i bullet.obj
 0001:00011920       ?loadImage@RawImageData@@QAE_NV?$basic_string@DU?$char_traits@D@std@@V?$allocator@D@2@@std@@HHHHH_N@Z 00412920 f i bullet.obj
 0001:00011c30       ?lock@?$weak_ptr@VRawImageData@@@std@@QBE?AV?$shared_ptr@VRawImageData@@@2@XZ 00412c30 f i bullet.obj
 0001:00011c80       ?max@?$numeric_limits@H@std@@SAHXZ 00412c80 f i bullet.obj
 0001:00011c90       ?max_size@?$_Default_allocator_traits@V?$allocator@D@std@@@std@@SAIABV?$allocator@D@2@@Z 00412c90 f i bullet.obj
 0001:00011ca0       ?max_size@?$_Default_allocator_traits@V?$allocator@U?$_Tree_node@U?$pair@$$CBV?$basic_string@DU?$char_traits@D@std@@V?$allocator@D@2@@std@@V?$shared_ptr@VRawImageData@@@2@@std@@PAX@std@@@std@@@std@@SAIABV?$allocator@U?$_Tree_node@U?$pair@$$CBV?$basic_string@DU?$char_traits@D@std@@V?$allocator@D@2@@std@@V?$shared_ptr@VRawImageData@@@2@@std@@PAX@std@@@2@@Z 00412ca0 f i bullet.obj
 0001:00011cb0       ?max_size@?$_Default_allocator_traits@V?$allocator@U?$_Tree_node@U?$pair@$$CBV?$basic_string@DU?$char_traits@D@std@@V?$allocator@D@2@@std@@V?$weak_ptr@VRawImageData@@@2@@std@@PAX@std@@@std@@@std@@SAIABV?$allocator@U?$_Tree_node@U?$pair@$$CBV?$basic_string@DU?$char_traits@D@std@@V?$allocator@D@2@@std@@V?$weak_ptr@VRawImageData@@@2@@std@@PAX@std@@@2@@Z 00412cb0 f i bullet.obj
 0001:00011cc0       ?max_size@?$_Default_allocator_traits@V?$allocator@USDL_Rect@@@std@@@std@@SAIABV?$allocator@USDL_Rect@@@2@@Z 00412cc0 f i bullet.obj
 0001:00011cd0       ?max_size@?$_Tree@V?$_Tmap_traits@V?$basic_string@DU?$char_traits@D@std@@V?$allocator@D@2@@std@@V?$shared_ptr@VRawImageData@@@2@U?$less@V?$basic_string@DU?$char_traits@D@std@@V?$allocator@D@2@@std@@@2@V?$allocator@U?$pair@$$CBV?$basic_string@DU?$char_traits@D@std@@V?$allocator@D@2@@std@@V?$shared_ptr@VRawImageData@@@2@@std@@@2@$0A@@std@@@std@@QBEIXZ 00412cd0 f i bullet.obj
 0001:00011d20       ?max_size@?$_Tree@V?$_Tmap_traits@V?$basic_string@DU?$char_traits@D@std@@V?$allocator@D@2@@std@@V?$weak_ptr@VRawImageData@@@2@U?$less@V?$basic_string@DU?$char_traits@D@std@@V?$allocator@D@2@@std@@@2@V?$allocator@U?$pair@$$CBV?$basic_string@DU?$char_traits@D@std@@V?$allocator@D@2@@std@@V?$weak_ptr@VRawImageData@@@2@@std@@@2@$0A@@std@@@std@@QBEIXZ 00412d20 f i bullet.obj
 0001:00011d70       ?max_size@?$basic_string@DU?$char_traits@D@std@@V?$allocator@D@2@@std@@QBEIXZ 00412d70 f i bullet.obj
 0001:00011df0       ?max_size@?$vector@USDL_Rect@@V?$allocator@USDL_Rect@@@std@@@std@@QBEIXZ 00412df0 f i bullet.obj
 0001:00011e40       ?move@?$_Char_traits@DH@std@@SAPADQADQBDI@Z 00412e40 f i bullet.obj
 0001:00011e70       ?pointer_to@?$pointer_traits@PAU?$pair@$$CBV?$basic_string@DU?$char_traits@D@std@@V?$allocator@D@2@@std@@V?$weak_ptr@VRawImageData@@@2@@std@@@std@@SAPAU?$pair@$$CBV?$basic_string@DU?$char_traits@D@std@@V?$allocator@D@2@@std@@V?$weak_ptr@VRawImageData@@@2@@2@AAU32@@Z 00412e70 f i bullet.obj
 0001:00011e90       ?push_back@?$vector@USDL_Rect@@V?$allocator@USDL_Rect@@@std@@@std@@QAEXABUSDL_Rect@@@Z 00412e90 f i bullet.obj
 0001:00011eb0       ?select_on_container_copy_construction@?$_Default_allocator_traits@V?$allocator@D@std@@@std@@SA?AV?$allocator@D@2@ABV32@@Z 00412eb0 f i bullet.obj
 0001:00011ec0       ?select_on_container_copy_construction@?$_Default_allocator_traits@V?$allocator@USDL_Rect@@@std@@@std@@SA?AV?$allocator@USDL_Rect@@@2@ABV32@@Z 00412ec0 f i bullet.obj
 0001:00011ed0       ?setDirection@bullet@@UAEXH@Z 00412ed0 f i bullet.obj
 0001:00011ef0       ?setHP@Scyzc3Object@@UAEXH@Z 00412ef0 f i bullet.obj
 0001:00011f10       ?setPosition@Scyzc3Object@@UAEXHH@Z 00412f10 f i bullet.obj
 0001:00011f40       ?setScore@Scyzc3Object@@UAEXH@Z 00412f40 f i bullet.obj
 0001:00011f60       ?setVisible@DisplayableObject@@QAEX_N@Z 00412f60 f i bullet.obj
 0001:00011f80       ?size@?$basic_string@DU?$char_traits@D@std@@V?$allocator@D@2@@std@@QBEIXZ 00412f80 f i bullet.obj
 0001:00011fa0       ?size@?$vector@PAVDisplayableObject@@V?$allocator@PAVDisplayableObject@@@std@@@std@@QBEIXZ 00412fa0 f i bullet.obj
 0001:00011fd0       ?storeObjectInArray@DisplayableObjectContainer@@QAEXHPAVDisplayableObject@@@Z 00412fd0 f i bullet.obj
 0001:00012010       ?swap@?$shared_ptr@VRawImageData@@@std@@QAEXAAV12@@Z 00413010 f i bullet.obj
 0001:00012030       ?use_count@?$_Ptr_base@VRawImageData@@@std@@QBEJXZ 00413030 f i bullet.obj
 0001:00012070       ?virtIsPositionWithinObject@DisplayableObject@@UAE_NHH@Z 00413070 f i bullet.obj
 0001:00012100       ?virtKeyDown@DisplayableObject@@UAEXH@Z 00413100 f i bullet.obj
 0001:00012110       ?virtKeyUp@DisplayableObject@@UAEXH@Z 00413110 f i bullet.obj
 0001:00012120       ?virtMouseDown@DisplayableObject@@UAEXHHH@Z 00413120 f i bullet.obj
 0001:00012130       ?virtMouseMoved@DisplayableObject@@UAEXHH@Z 00413130 f i bullet.obj
 0001:00012140       ?virtMouseUp@DisplayableObject@@UAEXHHH@Z 00413140 f i bullet.obj
 0001:00012150       ?virtNotify@DisplayableObject@@UAEJHHH@Z 00413150 f i bullet.obj
 0001:00012170       ?virtSingleItemMouseDown@DisplayableObject@@UAE_NHHH@Z 00413170 f i bullet.obj
 0001:00012190       ?what@exception@std@@UBEPBDXZ 00413190 f i bullet.obj
 0001:000121d0       ___local_stdio_printf_options 004131d0 f i bullet.obj
 0001:000121e0       __vfprintf_l               004131e0 f i bullet.obj
 0001:00012220       _printf                    00413220 f i bullet.obj
 0001:00012270       ?Handle@ChooseState@@UAEXPAVContext@@@Z 00413270 f   ChooseState.obj
 0001:000122a0       ??0ChooseState@@QAE@PAVScyzc3Engine@@@Z 004132a0 f   ChooseState.obj
 0001:000123f0       ??1ChooseState@@QAE@XZ     004133f0 f   ChooseState.obj
 0001:00012480       ?virtSetupBackgroundBuffer@ChooseState@@UAEXXZ 00413480 f   ChooseState.obj
 0001:000125a0       ?virtMouseDown@ChooseState@@UAEXHHH@Z 004135a0 f   ChooseState.obj
 0001:00012740       ?virtInitialiseObjects@ChooseState@@UAEHXZ 00413740 f   ChooseState.obj
 0001:00012770       ?virtDrawStringsOnTop@ChooseState@@UAEXXZ 00413770 f   ChooseState.obj
 0001:00012ff0       ?virtKeyDown@ChooseState@@UAEXH@Z 00413ff0 f   ChooseState.obj
 0001:00013070       ?virtMainLoopDoBeforeUpdate@ChooseState@@UAEXXZ 00414070 f   ChooseState.obj
 0001:000130b0       ?copyAllBackgroundBuffer@ChooseState@@UAEXXZ 004140b0 f   ChooseState.obj
 0001:00013480       ??$_Pocca@V?$allocator@D@std@@@std@@YAXAAV?$allocator@D@0@ABV10@@Z 00414480 f i ChooseState.obj
 0001:00013490       ??$addressof@$$CBV?$basic_string@DU?$char_traits@D@std@@V?$allocator@D@2@@std@@@std@@YAPBV?$basic_string@DU?$char_traits@D@std@@V?$allocator@D@2@@0@ABV10@@Z 00414490 f i ChooseState.obj
 0001:000134a0       ??0State@@QAE@XZ           004144a0 f i ChooseState.obj
 0001:000134c0       ??4?$basic_string@DU?$char_traits@D@std@@V?$allocator@D@2@@std@@QAEAAV01@ABV01@@Z 004144c0 f i ChooseState.obj
 0001:00013510       ?_Copy_assign@?$basic_string@DU?$char_traits@D@std@@V?$allocator@D@2@@std@@AAEXABV12@U?$integral_constant@_N$0A@@2@@Z 00414510 f i ChooseState.obj
 0001:00013560       ?copyAllBackgroundBuffer@State@@UAEXXZ 00414560 f i ChooseState.obj
 0001:00013570       ?drawForegroundString@BaseEngine@@QAEXHHPBDIPAVFont@@@Z 00414570 f i ChooseState.obj
 0001:000135b0       ?getBackgroundSurface@BaseEngine@@QAEPAVDrawingSurface@@XZ 004145b0 f i ChooseState.obj
 0001:000135d0       ?getFont@BaseEngine@@QAEPAVFont@@PBDH@Z 004145d0 f i ChooseState.obj
 0001:00013600       ?lockAndSetupBackground@BaseEngine@@QAEXXZ 00414600 f i ChooseState.obj
 0001:00013640       ?lockBackgroundForDrawing@BaseEngine@@QAEXXZ 00414640 f i ChooseState.obj
 0001:00013660       ?lockForegroundForDrawing@BaseEngine@@QAEXXZ 00414660 f i ChooseState.obj
 0001:00013680       ?mySDLLockSurface@DrawingSurface@@QAEXXZ 00414680 f i ChooseState.obj
 0001:000136d0       ?mySDLUnlockSurface@DrawingSurface@@QAEXXZ 004146d0 f i ChooseState.obj
 0001:00013720       ?redrawDisplay@BaseEngine@@QAEXXZ 00414720 f i ChooseState.obj
 0001:00013740       ?setLevel@Scyzc3Engine@@QAEXH@Z 00414740 f i ChooseState.obj
 0001:00013760       ?setLoad@Scyzc3Engine@@QAEXH@Z 00414760 f i ChooseState.obj
 0001:00013780       ?setMapId@Scyzc3Engine@@QAEXH@Z 00414780 f i ChooseState.obj
 0001:000137a0       ?setName1@Scyzc3Engine@@QAEXV?$basic_string@DU?$char_traits@D@std@@V?$allocator@D@2@@std@@@Z 004147a0 f i ChooseState.obj
 0001:00013820       ?setName2@Scyzc3Engine@@QAEXV?$basic_string@DU?$char_traits@D@std@@V?$allocator@D@2@@std@@@Z 00414820 f i ChooseState.obj
 0001:000138a0       ?unlockBackgroundForDrawing@BaseEngine@@QAEXXZ 004148a0 f i ChooseState.obj
 0001:000138c0       ?virtMainLoopDoBeforeUpdate@State@@UAEXXZ 004148c0 f i ChooseState.obj
 0001:000138d0       ?virtMouseMoved@State@@UAEXHH@Z 004148d0 f i ChooseState.obj
 0001:000138e0       ?virtMouseWheel@State@@UAEXHHHH@Z 004148e0 f i ChooseState.obj
 0001:000138f0       ?virtSetupBackgroundBuffer@DraggingDemo@@UAEXXZ 004148f0 f   DraggingDemo.obj
 0001:00013a30       ?virtInitialiseObjects@DraggingDemo@@UAEHXZ 00414a30 f   DraggingDemo.obj
 0001:00013c80       ?virtKeyDown@DraggingDemo@@UAEXH@Z 00414c80 f   DraggingDemo.obj
 0001:00013da0       ??$_Copy_memmove@PAPAVDisplayableObject@@PAPAV1@@std@@YAPAPAVDisplayableObject@@PAPAV1@00@Z 00414da0 f i DraggingDemo.obj
 0001:00013df0       ??$_Destroy_range@V?$allocator@PAVDisplayableObject@@@std@@@std@@YAXPAPAVDisplayableObject@@QAPAV1@AAV?$allocator@PAVDisplayableObject@@@0@@Z 00414df0 f i DraggingDemo.obj
 0001:00013e00       ??$_Get_size_of_n@$03@std@@YAII@Z 00414e00 f i DraggingDemo.obj
 0001:00013e40       ??$_Get_unwrapped@ABQAPAVDisplayableObject@@@std@@YA@ABQAPAVDisplayableObject@@@Z 00414e40 f i DraggingDemo.obj
 0001:00013e50       ??$_Resize@U_Value_init_tag@std@@@?$vector@PAVDisplayableObject@@V?$allocator@PAVDisplayableObject@@@std@@@std@@AAEXIABU_Value_init_tag@1@@Z 00414e50 f i DraggingDemo.obj
 0001:00013f70       ??$_Resize_reallocate@U_Value_init_tag@std@@@?$vector@PAVDisplayableObject@@V?$allocator@PAVDisplayableObject@@@std@@@std@@AAEXIABU_Value_init_tag@1@@Z 00414f70 f i DraggingDemo.obj
 0001:00014120       ??$_Unfancy@PAVDisplayableObject@@@std@@YAPAPAVDisplayableObject@@PAPAV1@@Z 00415120 f i DraggingDemo.obj
 0001:00014130       ??$_Uninitialized_move@PAPAVDisplayableObject@@V?$allocator@PAVDisplayableObject@@@std@@@std@@YAPAPAVDisplayableObject@@QAPAV1@0PAPAV1@AAV?$allocator@PAVDisplayableObject@@@0@@Z 00415130 f i DraggingDemo.obj
 0001:000141a0       ??$_Uninitialized_value_construct_n@V?$allocator@PAVDisplayableObject@@@std@@@std@@YAPAPAVDisplayableObject@@PAPAV1@IAAV?$allocator@PAVDisplayableObject@@@0@@Z 004151a0 f i DraggingDemo.obj
 0001:000141f0       ??$_Zero_range@PAPAVDisplayableObject@@@std@@YAPAPAVDisplayableObject@@QAPAV1@0@Z 004151f0 f i DraggingDemo.obj
 0001:00014230       ??0DragableBaseClassObject@@QAE@HHPAVBaseEngine@@HH_N@Z 00415230 f i DraggingDemo.obj
 0001:000142c0       ??0DragableBaseClassObject@@QAE@PAVBaseEngine@@HH_N@Z 004152c0 f i DraggingDemo.obj
 0001:00014340       ??0DragableImageObject@@QAE@HHPAVBaseEngine@@V?$basic_string@DU?$char_traits@D@std@@V?$allocator@D@2@@std@@_N2@Z 00415340 f i DraggingDemo.obj
 0001:000144e0       ??0DragableObject@@QAE@HHPAVBaseEngine@@HH_N1@Z 004154e0 f i DraggingDemo.obj
 0001:00014590       ??0DragableObject@@QAE@PAVBaseEngine@@HH_N1@Z 00415590 f i DraggingDemo.obj
 0001:00014640       ??0ImageObject@@QAE@HHPAVBaseEngine@@V?$basic_string@DU?$char_traits@D@std@@V?$allocator@D@2@@std@@_N2@Z 00415640 f i DraggingDemo.obj
 0001:000147d0       ??1DragableBaseClassObject@@UAE@XZ 004157d0 f i DraggingDemo.obj
 0001:000147f0       ??1DragableImageObject@@UAE@XZ 004157f0 f i DraggingDemo.obj
 0001:00014820       ??1DragableObject@@UAE@XZ  00415820 f i DraggingDemo.obj
 0001:00014840       ??1ImageObject@@UAE@XZ     00415840 f i DraggingDemo.obj
 0001:00014870       ??_EDragableBaseClassObject@@UAEPAXI@Z 00415870 f i DraggingDemo.obj
 0001:00014870       ??_GDragableBaseClassObject@@UAEPAXI@Z 00415870 f i DraggingDemo.obj
 0001:000148b0       ??_GDragableImageObject@@UAEPAXI@Z 004158b0 f i DraggingDemo.obj
 0001:000148b0       ??_EDragableImageObject@@UAEPAXI@Z 004158b0 f i DraggingDemo.obj
 0001:000148f0       ??_GDragableObject@@UAEPAXI@Z 004158f0 f i DraggingDemo.obj
 0001:000148f0       ??_EDragableObject@@UAEPAXI@Z 004158f0 f i DraggingDemo.obj
 0001:00014930       ??_EImageObject@@UAEPAXI@Z 00415930 f i DraggingDemo.obj
 0001:00014930       ??_GImageObject@@UAEPAXI@Z 00415930 f i DraggingDemo.obj
 0001:00014970       ?_Calculate_growth@?$vector@PAVDisplayableObject@@V?$allocator@PAVDisplayableObject@@@std@@@std@@ABEII@Z 00415970 f i DraggingDemo.obj
 0001:000149e0       ?_Change_array@?$vector@PAVDisplayableObject@@V?$allocator@PAVDisplayableObject@@@std@@@std@@AAEXQAPAVDisplayableObject@@II@Z 004159e0 f i DraggingDemo.obj
 0001:00014ab0       ?_Destroy@?$vector@PAVDisplayableObject@@V?$allocator@PAVDisplayableObject@@@std@@@std@@AAEXPAPAVDisplayableObject@@0@Z 00415ab0 f i DraggingDemo.obj
 0001:00014ae0       ?_Get_first@?$_Compressed_pair@V?$allocator@PAVDisplayableObject@@@std@@V?$_Vector_val@U?$_Simple_types@PAVDisplayableObject@@@std@@@2@$00@std@@QAEAAV?$allocator@PAVDisplayableObject@@@2@XZ 00415ae0 f i DraggingDemo.obj
 0001:00014b00       ?_Get_first@?$_Compressed_pair@V?$allocator@PAVDisplayableObject@@@std@@V?$_Vector_val@U?$_Simple_types@PAVDisplayableObject@@@std@@@2@$00@std@@QBEABV?$allocator@PAVDisplayableObject@@@2@XZ 00415b00 f i DraggingDemo.obj
 0001:00014b20       ?_Getal@?$vector@PAVDisplayableObject@@V?$allocator@PAVDisplayableObject@@@std@@@std@@AAEAAV?$allocator@PAVDisplayableObject@@@2@XZ 00415b20 f i DraggingDemo.obj
 0001:00014b40       ?_Getal@?$vector@PAVDisplayableObject@@V?$allocator@PAVDisplayableObject@@@std@@@std@@ABEABV?$allocator@PAVDisplayableObject@@@2@XZ 00415b40 f i DraggingDemo.obj
 0001:00014b60       ?_Orphan_range@?$vector@PAVDisplayableObject@@V?$allocator@PAVDisplayableObject@@@std@@@std@@ABEXPAPAVDisplayableObject@@0@Z 00415b60 f i DraggingDemo.obj
 0001:00014c00       ?_Ufill@?$vector@PAVDisplayableObject@@V?$allocator@PAVDisplayableObject@@@std@@@std@@AAEPAPAVDisplayableObject@@PAPAV3@IU_Value_init_tag@2@@Z 00415c00 f i DraggingDemo.obj
 0001:00014c30       ?_Umove_if_noexcept1@?$vector@PAVDisplayableObject@@V?$allocator@PAVDisplayableObject@@@std@@@std@@AAEXPAPAVDisplayableObject@@00U?$integral_constant@_N$00@2@@Z 00415c30 f i DraggingDemo.obj
 0001:00014c70       ?_Umove_if_noexcept@?$vector@PAVDisplayableObject@@V?$allocator@PAVDisplayableObject@@@std@@@std@@AAEXPAPAVDisplayableObject@@00@Z 00415c70 f i DraggingDemo.obj
 0001:00014cb0       ?_Xlength@?$vector@PAVDisplayableObject@@V?$allocator@PAVDisplayableObject@@@std@@@std@@CAXXZ 00415cb0 f i DraggingDemo.obj
 0001:00014cd0       ?allocate@?$allocator@PAVDisplayableObject@@@std@@QAEPAPAVDisplayableObject@@I@Z 00415cd0 f i DraggingDemo.obj
 0001:00014d00       ?capacity@?$vector@PAVDisplayableObject@@V?$allocator@PAVDisplayableObject@@@std@@@std@@QBEIXZ 00415d00 f i DraggingDemo.obj
 0001:00014d30       ?checkDoDrag@DragableBaseClassObject@@UAEXHH@Z 00415d30 f i DraggingDemo.obj
 0001:00014db0       ?checkFinishDrag@DragableBaseClassObject@@UAEXHH@Z 00415db0 f i DraggingDemo.obj
 0001:00014df0       ?checkStartDrag@DragableBaseClassObject@@UAEXHH@Z 00415df0 f i DraggingDemo.obj
 0001:00014e70       ?checkWritable@DrawingSurface@@QAEXXZ 00415e70 f i DraggingDemo.obj
 0001:00014ec0       ?createObjectArray@DisplayableObjectContainer@@QAEXH@Z 00415ec0 f i DraggingDemo.obj
 0001:00014f10       ?deallocate@?$allocator@PAVDisplayableObject@@@std@@QAEXQAPAVDisplayableObject@@I@Z 00415f10 f i DraggingDemo.obj
 0001:00014f40       ?doDragRedraw@DragableBaseClassObject@@UAEXXZ 00415f40 f i DraggingDemo.obj
 0001:00014f60       ?getEngine@DisplayableObject@@QBEPAVBaseEngine@@XZ 00415f60 f i DraggingDemo.obj
 0001:00014f80       ?getIntsPerWindowRow@DrawingSurface@@QBEIXZ 00415f80 f i DraggingDemo.obj
 0001:00014fa0       ?getSurfaceHeight@DrawingSurface@@QBEHXZ 00415fa0 f i DraggingDemo.obj
 0001:00014fc0       ?getSurfaceWidth@DrawingSurface@@QBEHXZ 00415fc0 f i DraggingDemo.obj
 0001:00014fe0       ?getWindowHeight@BaseEngine@@QBEHXZ 00415fe0 f i DraggingDemo.obj
 0001:00015000       ?getWindowWidth@BaseEngine@@QBEHXZ 00416000 f i DraggingDemo.obj
 0001:00015020       ?max_size@?$_Default_allocator_traits@V?$allocator@PAVDisplayableObject@@@std@@@std@@SAIABV?$allocator@PAVDisplayableObject@@@2@@Z 00416020 f i DraggingDemo.obj
 0001:00015030       ?max_size@?$vector@PAVDisplayableObject@@V?$allocator@PAVDisplayableObject@@@std@@@std@@QBEIXZ 00416030 f i DraggingDemo.obj
 0001:00015080       ?notifyObjectsAboutMouse@BaseEngine@@QAEX_N@Z 00416080 f i DraggingDemo.obj
 0001:000150a0       ?rawSetPixel@DrawingSurface@@QAEXHHI@Z 004160a0 f i DraggingDemo.obj
 0001:00015150       ?resize@?$vector@PAVDisplayableObject@@V?$allocator@PAVDisplayableObject@@@std@@@std@@QAEXI@Z 00416150 f i DraggingDemo.obj
 0001:00015180       ?setBackgroundPixel@BaseEngine@@QAEXHHI@Z 00416180 f i DraggingDemo.obj
 0001:000151b0       ?setExitWithCode@BaseEngine@@QAEXH@Z 004161b0 f i DraggingDemo.obj
 0001:000151d0       ?setPixel@DrawingSurface@@QAEXHHI@Z 004161d0 f i DraggingDemo.obj
 0001:00015240       ?setPosition@DisplayableObject@@UAEXHH@Z 00416240 f i DraggingDemo.obj
 0001:00015280       ?virtDraw@DragableImageObject@@UAEXXZ 00416280 f i DraggingDemo.obj
 0001:00015300       ?virtDraw@ImageObject@@UAEXXZ 00416300 f i DraggingDemo.obj
 0001:00015380       ?virtMouseDown@DragableImageObject@@UAEXHHH@Z 00416380 f i DraggingDemo.obj
 0001:000153b0       ?virtMouseDown@DragableObject@@UAEXHHH@Z 004163b0 f i DraggingDemo.obj
 0001:000153e0       ?virtMouseMoved@DragableImageObject@@UAEXHH@Z 004163e0 f i DraggingDemo.obj
 0001:00015410       ?virtMouseMoved@DragableObject@@UAEXHH@Z 00416410 f i DraggingDemo.obj
 0001:00015440       ?virtMouseUp@DragableImageObject@@UAEXHHH@Z 00416440 f i DraggingDemo.obj
 0001:00015470       ?virtMouseUp@DragableObject@@UAEXHHH@Z 00416470 f i DraggingDemo.obj
 0001:000154b0       ??0DrawingSurface@@QAE@PAVBaseEngine@@@Z 004164b0 f   DrawingSurface.obj
 0001:00015550       ?drawLine@DrawingSurface@@QAEXNNNNI@Z 00416550 f   DrawingSurface.obj
 0001:00015730       ?drawThickLine@DrawingSurface@@QAEXNNNNIH@Z 00416730 f   DrawingSurface.obj
 0001:00015bd0       ?drawVerticalSidedRegion@DrawingSurface@@QAEXNNNNNNI@Z 00416bd0 f   DrawingSurface.obj
 0001:00015f70       ?drawRectangle@DrawingSurface@@QAEXHHHHI@Z 00416f70 f   DrawingSurface.obj
 0001:00016080       ?drawOval@DrawingSurface@@QAEXHHHHI@Z 00417080 f   DrawingSurface.obj
 0001:00016250       ?rawDrawOval@DrawingSurface@@QAEXHHHHI@Z 00417250 f   DrawingSurface.obj
 0001:000163b0       ?drawHollowOval@DrawingSurface@@QAEXHHHHHHHHI@Z 004173b0 f   DrawingSurface.obj
 0001:000166d0       ?drawPolygon@DrawingSurface@@QAEXHPAN0I@Z 004176d0 f   DrawingSurface.obj
 0001:00016e50       ?drawFastString@DrawingSurface@@QAEXHHPBDIPAVFont@@@Z 00417e50 f   DrawingSurface.obj
 0001:00016f40       ?drawScalableString@DrawingSurface@@QAEXHHPBDIPAVFont@@@Z 00417f40 f   DrawingSurface.obj
 0001:00017110       ?drawShortenedArrow@DrawingSurface@@QAEXHHHHHHIHH@Z 00418110 f   DrawingSurface.obj
 0001:00017690       ?drawShortenedLine@DrawingSurface@@QAEXHHHHHHIH@Z 00418690 f   DrawingSurface.obj
 0001:00017a90       ?drawTriangle@DrawingSurface@@QAEXNNNNNNI@Z 00418a90 f   DrawingSurface.obj
 0001:00017de0       ?copyEntireSurface@DrawingSurface@@QAEXPAV1@@Z 00418de0 f   DrawingSurface.obj
 0001:00017e30       ?copyRectangleFrom@DrawingSurface@@QAEXPAV1@HHHHHH@Z 00418e30 f   DrawingSurface.obj
 0001:00018030       ?getAngle@DrawingSurface@@SANNNNN@Z 00419030 f   DrawingSurface.obj
 0001:000180d0       ?getVirtualRedrawMinX@DrawingSurface@@QAEHXZ 004190d0 f   DrawingSurface.obj
 0001:00018120       ?getVirtualRedrawMinY@DrawingSurface@@QAEHXZ 00419120 f   DrawingSurface.obj
 0001:00018170       ?getVirtualRedrawMaxX@DrawingSurface@@QAEHXZ 00419170 f   DrawingSurface.obj
 0001:000181d0       ?getVirtualRedrawMaxY@DrawingSurface@@QAEHXZ 004191d0 f   DrawingSurface.obj
 0001:00018230       ?getRealRedrawMinX@DrawingSurface@@QAEHXZ 00419230 f   DrawingSurface.obj
 0001:00018280       ?getRealRedrawMinY@DrawingSurface@@QAEHXZ 00419280 f   DrawingSurface.obj
 0001:000182d0       ?getRealRedrawMaxX@DrawingSurface@@QAEHXZ 004192d0 f   DrawingSurface.obj
 0001:00018320       ?getRealRedrawMaxY@DrawingSurface@@QAEHXZ 00419320 f   DrawingSurface.obj
 0001:00018f20       ??$move@AAH@std@@YA$$QAHAAH@Z 00419f20 f i DrawingSurface.obj
 0001:00018f30       ??$move@AAN@std@@YA$$QANAAN@Z 00419f30 f i DrawingSurface.obj
 0001:00018f40       ??$swap@H$0A@@std@@YAXAAH0@Z 00419f40 f i DrawingSurface.obj
 0001:00018f90       ??$swap@N$0A@@std@@YAXAAN0@Z 00419f90 f i DrawingSurface.obj
 0001:00018ff0       ?checkBlitable@DrawingSurface@@QAEXXZ 00419ff0 f i DrawingSurface.obj
 0001:00019040       ?convertRealToVirtualXPosition@DrawingSurface@@QAEHH@Z 0041a040 f i DrawingSurface.obj
 0001:00019080       ?convertRealToVirtualYPosition@DrawingSurface@@QAEHH@Z 0041a080 f i DrawingSurface.obj
 0001:000190c0       ?getDefaultFont@BaseEngine@@QBEPAVFont@@XZ 0041a0c0 f i DrawingSurface.obj
 0001:000190e0       ?getRedrawAllScreen@BaseEngine@@QAEHXZ 0041a0e0 f i DrawingSurface.obj
 0001:00019100       ?getRedrawRectRealBottom@BaseEngine@@QAEHXZ 0041a100 f i DrawingSurface.obj
 0001:00019120       ?getRedrawRectRealLeft@BaseEngine@@QAEHXZ 0041a120 f i DrawingSurface.obj
 0001:00019140       ?getRedrawRectRealRight@BaseEngine@@QAEHXZ 0041a140 f i DrawingSurface.obj
 0001:00019160       ?getRedrawRectRealTop@BaseEngine@@QAEHXZ 0041a160 f i DrawingSurface.obj
 0001:00019180       ?getRedrawRectVirtualBottom@BaseEngine@@QAEHXZ 0041a180 f i DrawingSurface.obj
 0001:000191a0       ?getRedrawRectVirtualLeft@BaseEngine@@QAEHXZ 0041a1a0 f i DrawingSurface.obj
 0001:000191c0       ?getRedrawRectVirtualRight@BaseEngine@@QAEHXZ 0041a1c0 f i DrawingSurface.obj
 0001:000191e0       ?getRedrawRectVirtualTop@BaseEngine@@QAEHXZ 0041a1e0 f i DrawingSurface.obj
 0001:00019200       ?getTTFFont@Font@@QAEPAU_TTF_Font@@XZ 0041a200 f i DrawingSurface.obj
 0001:00019220       ?mySDLTempRelockSurface@DrawingSurface@@QAEXXZ 0041a220 f i DrawingSurface.obj
 0001:00019270       ?mySDLTempUnlockSurface@DrawingSurface@@QAEXXZ 0041a270 f i DrawingSurface.obj
 0001:000192c0       ?setDrawPointsFilter@DrawingSurface@@QAEXPAVFilterPoints@@@Z 0041a2c0 f i DrawingSurface.obj
 0001:000192e0       ??0FlashingDemo@@QAE@XZ    0041a2e0 f   FlashingDemo.obj
 0001:000193a0       ??1FlashingDemo@@UAE@XZ    0041a3a0 f   FlashingDemo.obj
 0001:000193f0       ?virtSetupBackgroundBuffer@FlashingDemo@@UAEXXZ 0041a3f0 f   FlashingDemo.obj
 0001:00019870       ?virtMainLoopDoBeforeUpdate@FlashingDemo@@UAEXXZ 0041a870 f   FlashingDemo.obj
 0001:00019930       ?virtCreateSurfaces@FlashingDemo@@UAEXXZ 0041a930 f   FlashingDemo.obj
 0001:00019b50       ??1DrawingSurface@@QAE@XZ  0041ab50 f i FlashingDemo.obj
 0001:00019b60       ??_GFlashingDemo@@UAEPAXI@Z 0041ab60 f i FlashingDemo.obj
 0001:00019b60       ??_EFlashingDemo@@UAEPAXI@Z 0041ab60 f i FlashingDemo.obj
 0001:00019ba0       ?copyAllBackgroundBuffer@BaseEngine@@UAEXXZ 0041aba0 f i FlashingDemo.obj
 0001:00019bd0       ?copyBackgroundPixels@BaseEngine@@UAEXHHHH@Z 0041abd0 f i FlashingDemo.obj
 0001:00019c20       ?createSurface@DrawingSurface@@QAEXHH@Z 0041ac20 f i FlashingDemo.obj
 0001:00019c70       ?destroyOldObjects@DisplayableObjectContainer@@UAEX_N@Z 0041ac70 f i FlashingDemo.obj
 0001:00019d60       ?fillBackground@BaseEngine@@UAEXI@Z 0041ad60 f i FlashingDemo.obj
 0001:00019d90       ?fillSurface@DrawingSurface@@QAEXI@Z 0041ad90 f i FlashingDemo.obj
 0001:00019e20       ?filter@BaseEngine@@UAE_NPAVDrawingSurface@@AAH1AAI@Z 0041ae20 f i FlashingDemo.obj
 0001:00019ee0       ?filterConvertRealToVirtualXPosition@FilterPoints@@UAEHH@Z 0041aee0 f i FlashingDemo.obj
 0001:00019f00       ?filterConvertRealToVirtualYPosition@FilterPoints@@UAEHH@Z 0041af00 f i FlashingDemo.obj
 0001:00019f20       ?filterConvertVirtualToRealXPosition@FilterPoints@@UAEHH@Z 0041af20 f i FlashingDemo.obj
 0001:00019f40       ?filterConvertVirtualToRealYPosition@FilterPoints@@UAEHH@Z 0041af40 f i FlashingDemo.obj
 0001:00019f60       ?getModifiedTime@BaseEngine@@UBEHXZ 0041af60 f i FlashingDemo.obj
 0001:00019fa0       ?virtBackgroundMouseDown@BaseEngine@@UAEXHHHHH@Z 0041afa0 f i FlashingDemo.obj
 0001:00019fb0       ?virtMainLoopDoAfterUpdate@BaseEngine@@UAEXXZ 0041afb0 f i FlashingDemo.obj
 0001:00019fc0       ?virtMainLoopPostUpdate@BaseEngine@@UAEXXZ 0041afc0 f i FlashingDemo.obj
 0001:00019fd0       ?virtMainLoopPreUpdate@BaseEngine@@UAEXXZ 0041afd0 f i FlashingDemo.obj
 0001:00019fe0       ?virtMainLoopStartIteration@BaseEngine@@UAEXXZ 0041afe0 f i FlashingDemo.obj
 0001:00019ff0       ?virtMouseWheel@BaseEngine@@UAEXHHHH@Z 0041aff0 f i FlashingDemo.obj
 0001:0001a000       ?virtPostDraw@BaseEngine@@UAEXXZ 0041b000 f i FlashingDemo.obj
 0001:0001a010       ?virtPreDraw@BaseEngine@@UAEXXZ 0041b010 f i FlashingDemo.obj
 0001:0001a020       ?virtRealMouseDown@BaseEngine@@UAEXHHH@Z 0041b020 f i FlashingDemo.obj
 0001:0001a030       ?virtRealMouseUp@BaseEngine@@UAEXHHH@Z 0041b030 f i FlashingDemo.obj
 0001:0001a040       ?virtTouchEvent@BaseEngine@@UAEXHH_J0MMMMM@Z 0041b040 f i FlashingDemo.obj
 0001:0001a050       ?Handle@HelpState@@UAEXPAVContext@@@Z 0041b050 f   HelpState.obj
 0001:0001a080       ??0HelpState@@QAE@PAVScyzc3Engine@@@Z 0041b080 f   HelpState.obj
 0001:0001a150       ??1HelpState@@QAE@XZ       0041b150 f   HelpState.obj
 0001:0001a1c0       ?virtSetupBackgroundBuffer@HelpState@@UAEXXZ 0041b1c0 f   HelpState.obj
 0001:0001a220       ?virtMouseDown@HelpState@@UAEXHHH@Z 0041b220 f   HelpState.obj
 0001:0001a270       ?virtInitialiseObjects@HelpState@@UAEHXZ 0041b270 f   HelpState.obj
 0001:0001a280       ?virtDrawStringsOnTop@HelpState@@UAEXXZ 0041b280 f   HelpState.obj
 0001:0001a2b0       ?virtKeyDown@HelpState@@UAEXH@Z 0041b2b0 f   HelpState.obj
 0001:0001a2d0       ?copyAllBackgroundBuffer@HelpState@@UAEXXZ 0041b2d0 f   HelpState.obj
 0001:0001a3b0       ?isPaused@BaseEngine@@QAE_NXZ 0041b3b0 f i HelpState.obj
 0001:0001a3f0       ?pause@BaseEngine@@QAEXXZ  0041b3f0 f i HelpState.obj
 0001:0001a420       ?virtSetupBackgroundBuffer@ImageMappingDemo@@UAEXXZ 0041b420 f   ImageMappingDemo.obj
 0001:0001a520       ?virtInitialiseObjects@ImageMappingDemo@@UAEHXZ 0041b520 f   ImageMappingDemo.obj
 0001:0001a890       ?virtKeyDown@ImageMappingDemo@@UAEXH@Z 0041b890 f   ImageMappingDemo.obj
 0001:0001a8c0       ?virtMainLoopDoBeforeUpdate@ImageMappingDemo@@UAEXXZ 0041b8c0 f   ImageMappingDemo.obj
 0001:0001a950       ?mapCoordinates@ImageMappingDemo@@UAE_NAAN0ABVSimpleImage@@@Z 0041b950 f   ImageMappingDemo.obj
 0001:0001adc0       ??0MappableImageObject@@QAE@PAVImagePixelMapping@@HHPAVBaseEngine@@V?$basic_string@DU?$char_traits@D@std@@V?$allocator@D@2@@std@@_N3@Z 0041bdc0 f i ImageMappingDemo.obj
 0001:0001ae80       ??1MappableImageObject@@UAE@XZ 0041be80 f i ImageMappingDemo.obj
 0001:0001aea0       ??_GMappableImageObject@@UAEPAXI@Z 0041bea0 f i ImageMappingDemo.obj
 0001:0001aea0       ??_EMappableImageObject@@UAEPAXI@Z 0041bea0 f i ImageMappingDemo.obj
 0001:0001aee0       ?getPixelColour@MappableImageObject@@QAEHHH@Z 0041bee0 f i ImageMappingDemo.obj
 0001:0001af10       ?getTheData@SimpleImage@@QBEABV?$shared_ptr@VRawImageData@@@std@@XZ 0041bf10 f i ImageMappingDemo.obj
 0001:0001af30       ?setOpaque@RawImageData@@QAEXXZ 0041bf30 f i ImageMappingDemo.obj
 0001:0001afa0       ?setRotation@ImagePixelMappingRotate@@QAEXN@Z 0041bfa0 f i ImageMappingDemo.obj
 0001:0001afc0       ?setTransparencyColour@MappableImageObject@@QAEXH@Z 0041bfc0 f i ImageMappingDemo.obj
 0001:0001aff0       ?setTransparencyColour@SimpleImage@@QAEXH@Z 0041bff0 f i ImageMappingDemo.obj
 0001:0001b060       ?setTransparentColour@RawImageData@@QAEXI@Z 0041c060 f i ImageMappingDemo.obj
 0001:0001b180       ?setXShift@ImagePixelMappingShiftXY@@QAEXN@Z 0041c180 f i ImageMappingDemo.obj
 0001:0001b1a0       ?setYShift@ImagePixelMappingShiftXY@@QAEXN@Z 0041c1a0 f i ImageMappingDemo.obj
 0001:0001b1c0       ?virtDraw@MappableImageObject@@UAEXXZ 0041c1c0 f i ImageMappingDemo.obj
 0001:0001b250       ?Handle@LoadState@@UAEXPAVContext@@@Z 0041c250 f   LoadState.obj
 0001:0001b280       ??0LoadState@@QAE@PAVScyzc3Engine@@@Z 0041c280 f   LoadState.obj
 0001:0001b3a0       ??1LoadState@@QAE@XZ       0041c3a0 f   LoadState.obj
 0001:0001b440       ?virtSetupBackgroundBuffer@LoadState@@UAEXXZ 0041c440 f   LoadState.obj
 0001:0001b4c0       ?virtMouseDown@LoadState@@UAEXHHH@Z 0041c4c0 f   LoadState.obj
 0001:0001b680       ?virtInitialiseObjects@LoadState@@UAEHXZ 0041c680 f   LoadState.obj
 0001:0001b6b0       ?virtDrawStringsOnTop@LoadState@@UAEXXZ 0041c6b0 f   LoadState.obj
 0001:0001ba40       ?virtKeyDown@LoadState@@UAEXH@Z 0041ca40 f   LoadState.obj
 0001:0001ba60       ?saveGame@LoadState@@QAEXH@Z 0041ca60 f   LoadState.obj
 0001:0001ba70       ?loadInfo@LoadState@@QAEXH@Z 0041ca70 f   LoadState.obj
 0001:0001c590       ?copyAllBackgroundBuffer@LoadState@@UAEXXZ 0041d590 f   LoadState.obj
 0001:0001caa0       ??$?0AAPAV_Facet_base@std@@@?$_Compressed_pair@U?$default_delete@V_Facet_base@std@@@std@@PAV_Facet_base@2@$00@std@@QAE@U_Zero_then_variadic_args_t@1@AAPAV_Facet_base@1@@Z 0041daa0 f i LoadState.obj
 0001:0001cad0       ??$?0U?$default_delete@V_Facet_base@std@@@std@@$0A@@?$unique_ptr@V_Facet_base@std@@U?$default_delete@V_Facet_base@std@@@2@@std@@QAE@PAV_Facet_base@1@@Z 0041dad0 f i LoadState.obj
 0001:0001cb00       ??$?5DU?$char_traits@D@std@@V?$allocator@D@1@@std@@YAAAV?$basic_istream@DU?$char_traits@D@std@@@0@$$QAV10@AAV?$basic_string@DU?$char_traits@D@std@@V?$allocator@D@2@@0@@Z 0041db00 f i LoadState.obj
 0001:0001ce30       ??$?5DU?$char_traits@D@std@@V?$allocator@D@1@@std@@YAAAV?$basic_istream@DU?$char_traits@D@std@@@0@AAV10@AAV?$basic_string@DU?$char_traits@D@std@@V?$allocator@D@2@@0@@Z 0041de30 f i LoadState.obj
 0001:0001ce60       ??$?HDU?$char_traits@D@std@@V?$allocator@D@1@@std@@YA?AV?$basic_string@DU?$char_traits@D@std@@V?$allocator@D@2@@0@$$QAV10@ABV10@@Z 0041de60 f i LoadState.obj
 0001:0001ceb0       ??$?HDU?$char_traits@D@std@@V?$allocator@D@1@@std@@YA?AV?$basic_string@DU?$char_traits@D@std@@V?$allocator@D@2@@0@$$QAV10@QBD@Z 0041deb0 f i LoadState.obj
 0001:0001cf00       ??$?HDU?$char_traits@D@std@@V?$allocator@D@1@@std@@YA?AV?$basic_string@DU?$char_traits@D@std@@V?$allocator@D@2@@0@ABV10@QBD@Z 0041df00 f i LoadState.obj
 0001:0001cfb0       ??$_Fgetc@D@std@@YA_NAADPAU_iobuf@@@Z 0041dfb0 f i LoadState.obj
 0001:0001cff0       ??$_Fputc@D@std@@YA_NDPAU_iobuf@@@Z 0041dff0 f i LoadState.obj
 0001:0001d030       ??$_Pocma@V?$allocator@D@std@@@std@@YAXAAV?$allocator@D@0@0@Z 0041e030 f i LoadState.obj
 0001:0001d050       ??$_Reallocate_grow_by@V<lambda_15711c68e099a15a58f4d77303cb286d>@@D@?$basic_string@DU?$char_traits@D@std@@V?$allocator@D@2@@std@@AAEAAV01@IV<lambda_15711c68e099a15a58f4d77303cb286d>@@D@Z 0041e050 f i LoadState.obj
 0001:0001d1c0       ??$_Reallocate_grow_by@V<lambda_ab246b20b9526e2ef7792587e4298a77>@@PBDI@?$basic_string@DU?$char_traits@D@std@@V?$allocator@D@2@@std@@AAEAAV01@IV<lambda_ab246b20b9526e2ef7792587e4298a77>@@PBDI@Z 0041e1c0 f i LoadState.obj
 0001:0001d330       ??$_Ungetc@D@std@@YA_NABDPAU_iobuf@@@Z 0041e330 f i LoadState.obj
 0001:0001d380       ??$addressof@$$CBV?$codecvt@DDU_Mbstatet@@@std@@@std@@YAPBV?$codecvt@DDU_Mbstatet@@@0@ABV10@@Z 0041e380 f i LoadState.obj
 0001:0001d390       ??$addressof@V?$basic_filebuf@DU?$char_traits@D@std@@@std@@@std@@YAPAV?$basic_filebuf@DU?$char_traits@D@std@@@0@AAV10@@Z 0041e390 f i LoadState.obj
 0001:0001d3a0       ??$addressof@V?$basic_string@DU?$char_traits@D@std@@V?$allocator@D@2@@std@@@std@@YAPAV?$basic_string@DU?$char_traits@D@std@@V?$allocator@D@2@@0@AAV10@@Z 0041e3a0 f i LoadState.obj
 0001:0001d3b0       ??$exchange@PAV_Facet_base@std@@PAV12@@std@@YAPAV_Facet_base@0@AAPAV10@$$QAPAV10@@Z 0041e3b0 f i LoadState.obj
 0001:0001d3e0       ??$forward@AAPAV_Facet_base@std@@@std@@YAAAPAV_Facet_base@0@AAPAV10@@Z 0041e3e0 f i LoadState.obj
 0001:0001d3f0       ??$move@AAV?$basic_istream@DU?$char_traits@D@std@@@std@@@std@@YA$$QAV?$basic_istream@DU?$char_traits@D@std@@@0@AAV10@@Z 0041e3f0 f i LoadState.obj
 0001:0001d400       ??$move@AAV?$basic_string@DU?$char_traits@D@std@@V?$allocator@D@2@@std@@@std@@YA$$QAV?$basic_string@DU?$char_traits@D@std@@V?$allocator@D@2@@0@AAV10@@Z 0041e400 f i LoadState.obj
 0001:0001d410       ??$use_facet@V?$codecvt@DDU_Mbstatet@@@std@@@std@@YAABV?$codecvt@DDU_Mbstatet@@@0@ABVlocale@0@@Z 0041e410 f i LoadState.obj
 0001:0001d560       ??$use_facet@V?$ctype@D@std@@@std@@YAABV?$ctype@D@0@ABVlocale@0@@Z 0041e560 f i LoadState.obj
 0001:0001d6b0       ??0?$basic_filebuf@DU?$char_traits@D@std@@@std@@QAE@XZ 0041e6b0 f i LoadState.obj
 0001:0001d730       ??0?$basic_ifstream@DU?$char_traits@D@std@@@std@@QAE@XZ 0041e730 f i LoadState.obj
 0001:0001d840       ??0?$basic_string@DU?$char_traits@D@std@@V?$allocator@D@2@@std@@QAE@U_String_constructor_concat_tag@1@ABV01@QBDI2I@Z 0041e840 f i LoadState.obj
 0001:0001da20       ??0?$basic_string@DU?$char_traits@D@std@@V?$allocator@D@2@@std@@QAE@XZ 0041ea20 f i LoadState.obj
 0001:0001dab0       ??0?$fpos@U_Mbstatet@@@std@@QAE@U_Mbstatet@@_J@Z 0041eab0 f i LoadState.obj
 0001:0001db00       ??0?$fpos@U_Mbstatet@@@std@@QAE@_J@Z 0041eb00 f i LoadState.obj
 0001:0001db50       ??0_Sentry_base@?$basic_istream@DU?$char_traits@D@std@@@std@@QAE@AAV12@@Z 0041eb50 f i LoadState.obj
 0001:0001dbb0       ??0bad_cast@std@@QAE@ABV01@@Z 0041ebb0 f i LoadState.obj
 0001:0001dbe0       ??0bad_cast@std@@QAE@XZ    0041ebe0 f i LoadState.obj
 0001:0001dc10       ??0sentry@?$basic_istream@DU?$char_traits@D@std@@@std@@QAE@AAV12@_N@Z 0041ec10 f i LoadState.obj
 0001:0001dca0       ??1?$basic_filebuf@DU?$char_traits@D@std@@@std@@UAE@XZ 0041eca0 f i LoadState.obj
 0001:0001dd30       ??1?$basic_ifstream@DU?$char_traits@D@std@@@std@@UAE@XZ 0041ed30 f i LoadState.obj
 0001:0001dda0       ??1?$unique_ptr@V_Facet_base@std@@U?$default_delete@V_Facet_base@std@@@2@@std@@QAE@XZ 0041eda0 f i LoadState.obj
 0001:0001dde0       ??1_Sentry_base@?$basic_istream@DU?$char_traits@D@std@@@std@@QAE@XZ 0041ede0 f i LoadState.obj
 0001:0001de70       ??1bad_cast@std@@UAE@XZ    0041ee70 f i LoadState.obj
 0001:0001de90       ??1locale@std@@QAE@XZ      0041ee90 f i LoadState.obj
 0001:0001def0       ??1sentry@?$basic_istream@DU?$char_traits@D@std@@@std@@QAE@XZ 0041eef0 f i LoadState.obj
 0001:0001df10       ??4?$basic_string@DU?$char_traits@D@std@@V?$allocator@D@2@@std@@QAEAAV01@$$QAV01@@Z 0041ef10 f i LoadState.obj
 0001:0001df60       ??4?$basic_string@DU?$char_traits@D@std@@V?$allocator@D@2@@std@@QAEAAV01@QBD@Z 0041ef60 f i LoadState.obj
 0001:0001df80       ??B?$fpos@U_Mbstatet@@@std@@QBE_JXZ 0041ef80 f i LoadState.obj
 0001:0001dfb0       ??Bsentry@?$basic_istream@DU?$char_traits@D@std@@@std@@QBE_NXZ 0041efb0 f i LoadState.obj
 0001:0001dfd0       ??R<lambda_15711c68e099a15a58f4d77303cb286d>@@QBE@QADQBDID@Z 0041efd0 f i LoadState.obj
 0001:0001e040       ??R<lambda_ab246b20b9526e2ef7792587e4298a77>@@QBE@QADQBDI1I@Z 0041f040 f i LoadState.obj
 0001:0001e0b0       ??R?$default_delete@V_Facet_base@std@@@std@@QBEXPAV_Facet_base@1@@Z 0041f0b0 f i LoadState.obj
 0001:0001e100       ??_D?$basic_ifstream@DU?$char_traits@D@std@@@std@@QAEXXZ 0041f100 f i LoadState.obj
 0001:0001e12a       ??_E?$basic_ifstream@DU?$char_traits@D@std@@@std@@$4PPPPPPPM@A@AEPAXI@Z 0041f12a f i LoadState.obj
 0001:0001e140       ??_E?$basic_filebuf@DU?$char_traits@D@std@@@std@@UAEPAXI@Z 0041f140 f i LoadState.obj
 0001:0001e140       ??_G?$basic_filebuf@DU?$char_traits@D@std@@@std@@UAEPAXI@Z 0041f140 f i LoadState.obj
 0001:0001e180       ??_G?$basic_ifstream@DU?$char_traits@D@std@@@std@@UAEPAXI@Z 0041f180 f i LoadState.obj
 0001:0001e180       ??_E?$basic_ifstream@DU?$char_traits@D@std@@@std@@UAEPAXI@Z 0041f180 f i LoadState.obj
 0001:0001e1d0       ??_Ebad_cast@std@@UAEPAXI@Z 0041f1d0 f i LoadState.obj
 0001:0001e1d0       ??_Gbad_cast@std@@UAEPAXI@Z 0041f1d0 f i LoadState.obj
 0001:0001e210       ?_Check_offset@?$_String_val@U?$_Simple_types@D@std@@@std@@QBEXI@Z 0041f210 f i LoadState.obj
 0001:0001e240       ?_Clamp_suffix_size@?$_String_val@U?$_Simple_types@D@std@@@std@@QBEIII@Z 0041f240 f i LoadState.obj
 0001:0001e280       ?_Endwrite@?$basic_filebuf@DU?$char_traits@D@std@@@std@@IAE_NXZ 0041f280 f i LoadState.obj
 0001:0001e3e0       ?_Eos@?$basic_string@DU?$char_traits@D@std@@V?$allocator@D@2@@std@@AAEXI@Z 0041f3e0 f i LoadState.obj
 0001:0001e430       ?_Erase_noexcept@?$basic_string@DU?$char_traits@D@std@@V?$allocator@D@2@@std@@AAEAAV12@II@Z 0041f430 f i LoadState.obj
 0001:0001e4c0       ?_Get_first@?$_Compressed_pair@U?$default_delete@V_Facet_base@std@@@std@@PAV_Facet_base@2@$00@std@@QAEAAU?$default_delete@V_Facet_base@std@@@2@XZ 0041f4c0 f i LoadState.obj
 0001:0001e4e0       ?_Getfacet@locale@std@@QBEPBVfacet@12@I@Z 0041f4e0 f i LoadState.obj
 0001:0001e580       ?_Init@?$basic_filebuf@DU?$char_traits@D@std@@@std@@IAEXPAU_iobuf@@W4_Initfl@12@@Z 0041f580 f i LoadState.obj
 0001:0001e680       ?_Initcvt@?$basic_filebuf@DU?$char_traits@D@std@@@std@@IAEXABV?$codecvt@DDU_Mbstatet@@@2@@Z 0041f680 f i LoadState.obj
 0001:0001e6e0       ?_Lock@?$basic_filebuf@DU?$char_traits@D@std@@@std@@UAEXXZ 0041f6e0 f i LoadState.obj
 0001:0001e710       ?_Move_assign@?$basic_string@DU?$char_traits@D@std@@V?$allocator@D@2@@std@@AAEXAAV12@U_Equal_allocators@2@@Z 0041f710 f i LoadState.obj
 0001:0001e770       ?_Reset_back@?$basic_filebuf@DU?$char_traits@D@std@@@std@@AAEXXZ 0041f770 f i LoadState.obj
 0001:0001e7c0       ?_Set_back@?$basic_filebuf@DU?$char_traits@D@std@@@std@@AAEXXZ 0041f7c0 f i LoadState.obj
 0001:0001e830       ?_Throw_bad_cast@std@@YAXXZ 0041f830 f i LoadState.obj
 0001:0001e860       ?_Unlock@?$basic_filebuf@DU?$char_traits@D@std@@@std@@UAEXXZ 0041f860 f i LoadState.obj
 0001:0001e890       ?_Xran@?$_String_val@U?$_Simple_types@D@std@@@std@@SAXXZ 0041f890 f i LoadState.obj
 0001:0001e8b0       ?append@?$basic_string@DU?$char_traits@D@std@@V?$allocator@D@2@@std@@QAEAAV12@ABV12@@Z 0041f8b0 f i LoadState.obj
 0001:0001e8e0       ?append@?$basic_string@DU?$char_traits@D@std@@V?$allocator@D@2@@std@@QAEAAV12@QBD@Z 0041f8e0 f i LoadState.obj
 0001:0001e920       ?append@?$basic_string@DU?$char_traits@D@std@@V?$allocator@D@2@@std@@QAEAAV12@QBDI@Z 0041f920 f i LoadState.obj
 0001:0001e9e0       ?close@?$basic_filebuf@DU?$char_traits@D@std@@@std@@QAEPAV12@XZ 0041f9e0 f i LoadState.obj
 0001:0001ea60       ?close@?$basic_ifstream@DU?$char_traits@D@std@@@std@@QAEXXZ 0041fa60 f i LoadState.obj
 0001:0001eaa0       ?erase@?$basic_string@DU?$char_traits@D@std@@V?$allocator@D@2@@std@@QAEAAV12@I@Z 0041faa0 f i LoadState.obj
 0001:0001eae0       ?erase@?$basic_string@DU?$char_traits@D@std@@V?$allocator@D@2@@std@@QAEAAV12@II@Z 0041fae0 f i LoadState.obj
 0001:0001eb20       ?front@?$basic_string@DU?$char_traits@D@std@@V?$allocator@D@2@@std@@QAEAADXZ 0041fb20 f i LoadState.obj
 0001:0001ebc0       ?imbue@?$basic_filebuf@DU?$char_traits@D@std@@@std@@MAEXABVlocale@2@@Z 0041fbc0 f i LoadState.obj
 0001:0001ebf0       ?is_open@?$basic_filebuf@DU?$char_traits@D@std@@@std@@QBE_NXZ 0041fbf0 f i LoadState.obj
 0001:0001ec20       ?is_open@?$basic_ifstream@DU?$char_traits@D@std@@@std@@QBE_NXZ 0041fc20 f i LoadState.obj
 0001:0001ec40       ?not_eof@?$_Narrow_char_traits@DH@std@@SAHABH@Z 0041fc40 f i LoadState.obj
 0001:0001eca0       ?open@?$basic_filebuf@DU?$char_traits@D@std@@@std@@QAEPAV12@PBDHH@Z 0041fca0 f i LoadState.obj
 0001:0001ed90       ?open@?$basic_ifstream@DU?$char_traits@D@std@@@std@@QAEXPBDHH@Z 0041fd90 f i LoadState.obj
 0001:0001ee10       ?overflow@?$basic_filebuf@DU?$char_traits@D@std@@@std@@MAEHH@Z 0041fe10 f i LoadState.obj
 0001:0001f070       ?pbackfail@?$basic_filebuf@DU?$char_traits@D@std@@@std@@MAEHH@Z 00420070 f i LoadState.obj
 0001:0001f220       ?push_back@?$basic_string@DU?$char_traits@D@std@@V?$allocator@D@2@@std@@QAEXD@Z 00420220 f i LoadState.obj
 0001:0001f2d0       ?release@?$unique_ptr@V_Facet_base@std@@U?$default_delete@V_Facet_base@std@@@2@@std@@QAEPAV_Facet_base@2@XZ 004202d0 f i LoadState.obj
 0001:0001f300       ?seekoff@?$basic_filebuf@DU?$char_traits@D@std@@@std@@MAE?AV?$fpos@U_Mbstatet@@@2@_JHH@Z 00420300 f i LoadState.obj
 0001:0001f410       ?seekpos@?$basic_filebuf@DU?$char_traits@D@std@@@std@@MAE?AV?$fpos@U_Mbstatet@@@2@V32@H@Z 00420410 f i LoadState.obj
 0001:0001f4e0       ?setbuf@?$basic_filebuf@DU?$char_traits@D@std@@@std@@MAEPAV?$basic_streambuf@DU?$char_traits@D@std@@@2@PAD_J@Z 004204e0 f i LoadState.obj
 0001:0001f580       ?state@?$fpos@U_Mbstatet@@@std@@QBE?AU_Mbstatet@@XZ 00420580 f i LoadState.obj
 0001:0001f5b0       ?sync@?$basic_filebuf@DU?$char_traits@D@std@@@std@@MAEHXZ 004205b0 f i LoadState.obj
 0001:0001f630       ?to_char_type@?$_Narrow_char_traits@DH@std@@SADABH@Z 00420630 f i LoadState.obj
 0001:0001f640       ?to_int_type@?$_Narrow_char_traits@DH@std@@SAHABD@Z 00420640 f i LoadState.obj
 0001:0001f650       ?uflow@?$basic_filebuf@DU?$char_traits@D@std@@@std@@MAEHXZ 00420650 f i LoadState.obj
 0001:0001f970       ?underflow@?$basic_filebuf@DU?$char_traits@D@std@@@std@@MAEHXZ 00420970 f i LoadState.obj
 0001:0001fa30       ?xsgetn@?$basic_filebuf@DU?$char_traits@D@std@@@std@@MAE_JPAD_J@Z 00420a30 f i LoadState.obj
 0001:0001fbf0       ?xsputn@?$basic_filebuf@DU?$char_traits@D@std@@@std@@MAE_JPBD_J@Z 00420bf0 f i LoadState.obj
 0001:0001fd50       __vsnprintf_l              00420d50 f i LoadState.obj
 0001:0001fdc0       __vsprintf_l               00420dc0 f i LoadState.obj
 0001:0001fdf0       _sprintf                   00420df0 f i LoadState.obj
 0001:0001fe30       _SDL_main                  00420e30 f   mainfunction.obj
 0001:0001fe90       ?doProgram@@YAHHQAPAD@Z    00420e90 f   mainfunction.obj
 0001:0001ffd0       ??$_Erase_head@V?$allocator@U?$_Tree_node@U?$pair@$$CBV?$basic_string@DU?$char_traits@D@std@@V?$allocator@D@2@@std@@V?$shared_ptr@VRawImageData@@@2@@std@@PAX@std@@@std@@@?$_Tree_val@U?$_Tree_simple_types@U?$pair@$$CBV?$basic_string@DU?$char_traits@D@std@@V?$allocator@D@2@@std@@V?$shared_ptr@VRawImageData@@@2@@std@@@std@@@std@@QAEXAAV?$allocator@U?$_Tree_node@U?$pair@$$CBV?$basic_string@DU?$char_traits@D@std@@V?$allocator@D@2@@std@@V?$shared_ptr@VRawImageData@@@2@@std@@PAX@std@@@1@@Z 00420fd0 f i mainfunction.obj
 0001:00020020       ??$_Erase_tree@V?$allocator@U?$_Tree_node@U?$pair@$$CBV?$basic_string@DU?$char_traits@D@std@@V?$allocator@D@2@@std@@V?$shared_ptr@VRawImageData@@@2@@std@@PAX@std@@@std@@@?$_Tree_val@U?$_Tree_simple_types@U?$pair@$$CBV?$basic_string@DU?$char_traits@D@std@@V?$allocator@D@2@@std@@V?$shared_ptr@VRawImageData@@@2@@std@@@std@@@std@@QAEXAAV?$allocator@U?$_Tree_node@U?$pair@$$CBV?$basic_string@DU?$char_traits@D@std@@V?$allocator@D@2@@std@@V?$shared_ptr@VRawImageData@@@2@@std@@PAX@std@@@1@PAU?$_Tree_node@U?$pair@$$CBV?$basic_string@DU?$char_traits@D@std@@V?$allocator@D@2@@std@@V?$shared_ptr@VRawImageData@@@2@@std@@PAX@1@@Z 00421020 f i mainfunction.obj
 0001:00020080       ??$_Freenode0@V?$allocator@U?$_Tree_node@U?$pair@$$CBV?$basic_string@DU?$char_traits@D@std@@V?$allocator@D@2@@std@@V?$shared_ptr@VRawImageData@@@2@@std@@PAX@std@@@std@@@?$_Tree_node@U?$pair@$$CBV?$basic_string@DU?$char_traits@D@std@@V?$allocator@D@2@@std@@V?$shared_ptr@VRawImageData@@@2@@std@@PAX@std@@SAXAAV?$allocator@U?$_Tree_node@U?$pair@$$CBV?$basic_string@DU?$char_traits@D@std@@V?$allocator@D@2@@std@@V?$shared_ptr@VRawImageData@@@2@@std@@PAX@std@@@1@PAU01@@Z 00421080 f i mainfunction.obj
 0001:00020110       ??$_Freenode@V?$allocator@U?$_Tree_node@U?$pair@$$CBV?$basic_string@DU?$char_traits@D@std@@V?$allocator@D@2@@std@@V?$shared_ptr@VRawImageData@@@2@@std@@PAX@std@@@std@@@?$_Tree_node@U?$pair@$$CBV?$basic_string@DU?$char_traits@D@std@@V?$allocator@D@2@@std@@V?$shared_ptr@VRawImageData@@@2@@std@@PAX@std@@SAXAAV?$allocator@U?$_Tree_node@U?$pair@$$CBV?$basic_string@DU?$char_traits@D@std@@V?$allocator@D@2@@std@@V?$shared_ptr@VRawImageData@@@2@@std@@PAX@std@@@1@PAU01@@Z 00421110 f i mainfunction.obj
 0001:00020190       ??$exchange@PAU?$_Tree_node@U?$pair@$$CBV?$basic_string@DU?$char_traits@D@std@@V?$allocator@D@2@@std@@V?$shared_ptr@VRawImageData@@@2@@std@@PAX@std@@AAPAU12@@std@@YAPAU?$_Tree_node@U?$pair@$$CBV?$basic_string@DU?$char_traits@D@std@@V?$allocator@D@2@@std@@V?$shared_ptr@VRawImageData@@@2@@std@@PAX@0@AAPAU10@0@Z 00421190 f i mainfunction.obj
 0001:000201c0       ??1?$_Tree@V?$_Tmap_traits@V?$basic_string@DU?$char_traits@D@std@@V?$allocator@D@2@@std@@V?$shared_ptr@VRawImageData@@@2@U?$less@V?$basic_string@DU?$char_traits@D@std@@V?$allocator@D@2@@std@@@2@V?$allocator@U?$pair@$$CBV?$basic_string@DU?$char_traits@D@std@@V?$allocator@D@2@@std@@V?$shared_ptr@VRawImageData@@@2@@std@@@2@$0A@@std@@@std@@QAE@XZ 004211c0 f i mainfunction.obj
 0001:00020230       ??1?$map@V?$basic_string@DU?$char_traits@D@std@@V?$allocator@D@2@@std@@V?$shared_ptr@VRawImageData@@@2@U?$less@V?$basic_string@DU?$char_traits@D@std@@V?$allocator@D@2@@std@@@2@V?$allocator@U?$pair@$$CBV?$basic_string@DU?$char_traits@D@std@@V?$allocator@D@2@@std@@V?$shared_ptr@VRawImageData@@@2@@std@@@2@@std@@QAE@XZ 00421230 f i mainfunction.obj
 0001:00020250       ??1ImageManager@@QAE@XZ    00421250 f i mainfunction.obj
 0001:00020280       ??_GImageManager@@QAEPAXI@Z 00421280 f i mainfunction.obj
 0001:000202c0       ?deallocate@?$_Default_allocator_traits@V?$allocator@U?$_Tree_node@U?$pair@$$CBV?$basic_string@DU?$char_traits@D@std@@V?$allocator@D@2@@std@@V?$shared_ptr@VRawImageData@@@2@@std@@PAX@std@@@std@@@std@@SAXAAV?$allocator@U?$_Tree_node@U?$pair@$$CBV?$basic_string@DU?$char_traits@D@std@@V?$allocator@D@2@@std@@V?$shared_ptr@VRawImageData@@@2@@std@@PAX@std@@@2@QAU?$_Tree_node@U?$pair@$$CBV?$basic_string@DU?$char_traits@D@std@@V?$allocator@D@2@@std@@V?$shared_ptr@VRawImageData@@@2@@std@@PAX@2@I@Z 004212c0 f i mainfunction.obj
 0001:000202e0       ?destroyImageManager@ImageManager@@SAXXZ 004212e0 f i mainfunction.obj
 0001:00020340       ??0BaseEngine@@QAE@XZ      00421340 f   BaseEngine.obj
 0001:00020590       ??1BaseEngine@@UAE@XZ      00421590 f   BaseEngine.obj
 0001:000205e0       ?initialise@BaseEngine@@QAEHPBDHH0H@Z 004215e0 f   BaseEngine.obj
 0001:00020710       ?deinitialise@BaseEngine@@QAEXXZ 00421710 f   BaseEngine.obj
 0001:00020740       ?mainLoop@BaseEngine@@QAEHXZ 00421740 f   BaseEngine.obj
 0001:00020870       ?handleEvent@BaseEngine@@QAE_NPATSDL_Event@@@Z 00421870 f   BaseEngine.obj
 0001:00020eb0       ?isKeyPressed@BaseEngine@@QBE_NH@Z 00421eb0 f   BaseEngine.obj
 0001:00020ee0       ?virtKeyUp@BaseEngine@@UAEXH@Z 00421ee0 f   BaseEngine.obj
 0001:00020ef0       ?virtKeyDown@BaseEngine@@UAEXH@Z 00421ef0 f   BaseEngine.obj
 0001:00020f00       ?virtMouseMoved@BaseEngine@@UAEXHH@Z 00421f00 f   BaseEngine.obj
 0001:00020f10       ?virtMouseDown@BaseEngine@@UAEXHHH@Z 00421f10 f   BaseEngine.obj
 0001:00020f20       ?virtMouseUp@BaseEngine@@UAEXHHH@Z 00421f20 f   BaseEngine.obj
 0001:00020f30       ?virtInitialise@BaseEngine@@UAEHXZ 00421f30 f   BaseEngine.obj
 0001:00020f80       ?virtCreateWindows@BaseEngine@@UAEXPBD@Z 00421f80 f   BaseEngine.obj
 0001:00021010       ?virtCreateSurfaces@BaseEngine@@UAEXXZ 00422010 f   BaseEngine.obj
 0001:00021060       ?virtCleanUp@BaseEngine@@UAEXXZ 00422060 f   BaseEngine.obj
 0001:00021070       ?virtSetupBackgroundBuffer@BaseEngine@@UAEXXZ 00422070 f   BaseEngine.obj
 0001:00021090       ?virtDrawStringsUnderneath@BaseEngine@@UAEXXZ 00422090 f   BaseEngine.obj
 0001:000210a0       ?virtDrawStringsOnTop@BaseEngine@@UAEXXZ 004220a0 f   BaseEngine.obj
 0001:000210b0       ?virtCheckForUpdateTime@BaseEngine@@UAE_NXZ 004220b0 f   BaseEngine.obj
 0001:00021100       ?virtRenderScreen@BaseEngine@@UAEXXZ 00422100 f   BaseEngine.obj
 0001:00021290       ?getColour@BaseEngine@@QBEIH@Z 00422290 f   BaseEngine.obj
 0001:000214d0       ?virtInitialiseObjects@BaseEngine@@UAEHXZ 004224d0 f   BaseEngine.obj
 0001:00021500       ?drawAllObjects@BaseEngine@@UAEXXZ 00422500 f   BaseEngine.obj
 0001:000216c0       ?updateAllObjects@BaseEngine@@UAEXH@Z 004226c0 f   BaseEngine.obj
 0001:00021880       _mydebug                   00422880 f   BaseEngine.obj
 0001:00021df0       ??$?0ABV?$allocator@PAVDisplayableObject@@@std@@$$V@?$_Compressed_pair@V?$allocator@PAVDisplayableObject@@@std@@V?$_Vector_val@U?$_Simple_types@PAVDisplayableObject@@@std@@@2@$00@std@@QAE@U_One_then_variadic_args_t@1@ABV?$allocator@PAVDisplayableObject@@@1@@Z 00422df0 f i BaseEngine.obj
 0001:00021e20       ??$?0PAVDisplayableObject@@@?$allocator@U_Container_proxy@std@@@std@@QAE@ABV?$allocator@PAVDisplayableObject@@@1@@Z 00422e20 f i BaseEngine.obj
 0001:00021e40       ??$_Adl_verify_range@V?$_Vector_iterator@V?$_Vector_val@U?$_Simple_types@PAVDisplayableObject@@@std@@@std@@@std@@V12@@std@@YAXABV?$_Vector_iterator@V?$_Vector_val@U?$_Simple_types@PAVDisplayableObject@@@std@@@std@@@0@0@Z 00422e40 f i BaseEngine.obj
 0001:00021e60       ??$_Construct_n_copies_of_ty@U_Value_init_tag@std@@@?$vector@PAVDisplayableObject@@V?$allocator@PAVDisplayableObject@@@std@@@std@@AAEXIABU_Value_init_tag@1@@Z 00422e60 f i BaseEngine.obj
 0001:00021f70       ??$_Get_unwrapped@AAV?$_Vector_iterator@V?$_Vector_val@U?$_Simple_types@PAVDisplayableObject@@@std@@@std@@@std@@@std@@YA@AAV?$_Vector_iterator@V?$_Vector_val@U?$_Simple_types@PAVDisplayableObject@@@std@@@std@@@0@@Z 00422f70 f i BaseEngine.obj
 0001:00021f80       ??$addressof@V?$_Vector_val@U?$_Simple_types@PAVDisplayableObject@@@std@@@std@@@std@@YAPAV?$_Vector_val@U?$_Simple_types@PAVDisplayableObject@@@std@@@0@AAV10@@Z 00422f80 f i BaseEngine.obj
 0001:00022410       ??$forward@ABV?$allocator@PAVDisplayableObject@@@std@@@std@@YAABV?$allocator@PAVDisplayableObject@@@0@ABV10@@Z 00423410 f i BaseEngine.obj
 0001:000224e0       ??0?$_Vector_const_iterator@V?$_Vector_val@U?$_Simple_types@PAVDisplayableObject@@@std@@@std@@@std@@QAE@$$QAV01@@Z 004234e0 f i BaseEngine.obj
 0001:00022520       ??0?$_Vector_const_iterator@V?$_Vector_val@U?$_Simple_types@PAVDisplayableObject@@@std@@@std@@@std@@QAE@ABV01@@Z 00423520 f i BaseEngine.obj
 0001:00022560       ??0?$_Vector_const_iterator@V?$_Vector_val@U?$_Simple_types@PAVDisplayableObject@@@std@@@std@@@std@@QAE@PAPAVDisplayableObject@@PBU_Container_base12@1@@Z 00423560 f i BaseEngine.obj
 0001:000225a0       ??0?$_Vector_iterator@V?$_Vector_val@U?$_Simple_types@PAVDisplayableObject@@@std@@@std@@@std@@QAE@$$QAV01@@Z 004235a0 f i BaseEngine.obj
 0001:000225d0       ??0?$_Vector_iterator@V?$_Vector_val@U?$_Simple_types@PAVDisplayableObject@@@std@@@std@@@std@@QAE@ABV01@@Z 004235d0 f i BaseEngine.obj
 0001:00022600       ??0?$_Vector_iterator@V?$_Vector_val@U?$_Simple_types@PAVDisplayableObject@@@std@@@std@@@std@@QAE@PAPAVDisplayableObject@@PBU_Container_base12@1@@Z 00423600 f i BaseEngine.obj
 0001:00022630       ??0?$_Vector_val@U?$_Simple_types@PAVDisplayableObject@@@std@@@std@@QAE@XZ 00423630 f i BaseEngine.obj
 0001:00022680       ??0?$allocator@PAVDisplayableObject@@@std@@QAE@XZ 00423680 f i BaseEngine.obj
 0001:000226a0       ??0?$vector@PAVDisplayableObject@@V?$allocator@PAVDisplayableObject@@@std@@@std@@QAE@IABV?$allocator@PAVDisplayableObject@@@1@@Z 004236a0 f i BaseEngine.obj
 0001:000226e0       ??0DisplayableObjectContainer@@QAE@H@Z 004236e0 f i BaseEngine.obj
 0001:00022740       ??0FilterPoints@@QAE@XZ    00423740 f i BaseEngine.obj
 0001:00022760       ??1?$_Tidy_guard@V?$vector@PAVDisplayableObject@@V?$allocator@PAVDisplayableObject@@@std@@@std@@@std@@QAE@XZ 00423760 f i BaseEngine.obj
 0001:00022790       ??1?$_Vector_const_iterator@V?$_Vector_val@U?$_Simple_types@PAVDisplayableObject@@@std@@@std@@@std@@QAE@XZ 00423790 f i BaseEngine.obj
 0001:000227b0       ??1?$_Vector_iterator@V?$_Vector_val@U?$_Simple_types@PAVDisplayableObject@@@std@@@std@@@std@@QAE@XZ 004237b0 f i BaseEngine.obj
 0001:000227d0       ??1?$vector@PAVDisplayableObject@@V?$allocator@PAVDisplayableObject@@@std@@@std@@QAE@XZ 004237d0 f i BaseEngine.obj
 0001:00022840       ??1DisplayableObjectContainer@@UAE@XZ 00423840 f i BaseEngine.obj
 0001:000228b0       ??8?$_Vector_const_iterator@V?$_Vector_val@U?$_Simple_types@PAVDisplayableObject@@@std@@@std@@@std@@QBE_NABV01@@Z 004238b0 f i BaseEngine.obj
 0001:00022900       ??9?$_Vector_const_iterator@V?$_Vector_val@U?$_Simple_types@PAVDisplayableObject@@@std@@@std@@@std@@QBE_NABV01@@Z 00423900 f i BaseEngine.obj
 0001:00022950       ??D?$_Vector_const_iterator@V?$_Vector_val@U?$_Simple_types@PAVDisplayableObject@@@std@@@std@@@std@@QBEABQAVDisplayableObject@@XZ 00423950 f i BaseEngine.obj
 0001:00022a60       ??D?$_Vector_iterator@V?$_Vector_val@U?$_Simple_types@PAVDisplayableObject@@@std@@@std@@@std@@QBEAAPAVDisplayableObject@@XZ 00423a60 f i BaseEngine.obj
 0001:00022a80       ??E?$_Vector_const_iterator@V?$_Vector_val@U?$_Simple_types@PAVDisplayableObject@@@std@@@std@@@std@@QAEAAV01@XZ 00423a80 f i BaseEngine.obj
 0001:00022b90       ??E?$_Vector_iterator@V?$_Vector_val@U?$_Simple_types@PAVDisplayableObject@@@std@@@std@@@std@@QAE?AV01@H@Z 00423b90 f i BaseEngine.obj
 0001:00022d50       ??_EBaseEngine@@UAEPAXI@Z  00423d50 f i BaseEngine.obj
 0001:00022d50       ??_GBaseEngine@@UAEPAXI@Z  00423d50 f i BaseEngine.obj
 0001:00022d90       ??_EDisplayableObjectContainer@@UAEPAXI@Z 00423d90 f i BaseEngine.obj
 0001:00022d90       ??_GDisplayableObjectContainer@@UAEPAXI@Z 00423d90 f i BaseEngine.obj
 0001:00022dd0       ?_Buy_nonzero@?$vector@PAVDisplayableObject@@V?$allocator@PAVDisplayableObject@@@std@@@std@@AAEXI@Z 00423dd0 f i BaseEngine.obj
 0001:00022e10       ?_Buy_raw@?$vector@PAVDisplayableObject@@V?$allocator@PAVDisplayableObject@@@std@@@std@@AAEXI@Z 00423e10 f i BaseEngine.obj
 0001:00022e90       ?_Compat@?$_Vector_const_iterator@V?$_Vector_val@U?$_Simple_types@PAVDisplayableObject@@@std@@@std@@@std@@QBEXABV12@@Z 00423e90 f i BaseEngine.obj
 0001:00022f30       ?_Tidy@?$vector@PAVDisplayableObject@@V?$allocator@PAVDisplayableObject@@@std@@@std@@AAEXXZ 00423f30 f i BaseEngine.obj
 0001:00023020       ?_Unwrapped@?$_Vector_iterator@V?$_Vector_val@U?$_Simple_types@PAVDisplayableObject@@@std@@@std@@@std@@QBEPAPAVDisplayableObject@@XZ 00424020 f i BaseEngine.obj
 0001:00023040       ?_Verify_range@std@@YAXABV?$_Vector_const_iterator@V?$_Vector_val@U?$_Simple_types@PAVDisplayableObject@@@std@@@std@@@1@0@Z 00424040 f i BaseEngine.obj
 0001:00023140       ?begin@?$vector@PAVDisplayableObject@@V?$allocator@PAVDisplayableObject@@@std@@@std@@QAE?AV?$_Vector_iterator@V?$_Vector_val@U?$_Simple_types@PAVDisplayableObject@@@std@@@std@@@2@XZ 00424140 f i BaseEngine.obj
 0001:00023190       ?end@?$vector@PAVDisplayableObject@@V?$allocator@PAVDisplayableObject@@@std@@@std@@QAE?AV?$_Vector_iterator@V?$_Vector_val@U?$_Simple_types@PAVDisplayableObject@@@std@@@std@@@2@XZ 00424190 f i BaseEngine.obj
 0001:000231e0       ?getHasActed@DisplayableObject@@QBE_NXZ 004241e0 f i BaseEngine.obj
 0001:00023200       ?isTimeToAct@BaseEngine@@QBE_NXZ 00424200 f i BaseEngine.obj
 0001:00023240       ?mySDLUpdateTexture@DrawingSurface@@QAEXPAUSDL_Texture@@@Z 00424240 f i BaseEngine.obj
 0001:00023280       ?setHasActed@DisplayableObject@@QAEX_N@Z 00424280 f i BaseEngine.obj
 0001:000232a0       ?setTimeToAct@BaseEngine@@QAEXH@Z 004242a0 f i BaseEngine.obj
 0001:000232d0       ?symbolToKeycode@BaseEngine@@SAHH@Z 004242d0 f i BaseEngine.obj
 0001:000237c0       ?virtMainLoopDoBeforeUpdate@BaseEngine@@UAEXXZ 004247c0 f i BaseEngine.obj
 0001:000237d0       _fprintf                   004247d0 f i BaseEngine.obj
 0001:00023810       ??0DisplayableObject@@QAE@PAVBaseEngine@@HH_N@Z 00424810 f   DisplayableObject.obj
 0001:000238d0       ??0DisplayableObject@@QAE@HHPAVBaseEngine@@HH_N@Z 004248d0 f   DisplayableObject.obj
 0001:00023990       ??1DisplayableObject@@UAE@XZ 00424990 f   DisplayableObject.obj
 0001:000239b0       ?virtDraw@DisplayableObject@@UAEXXZ 004249b0 f   DisplayableObject.obj
 0001:00023a50       ?virtDoUpdate@DisplayableObject@@UAEXH@Z 00424a50 f   DisplayableObject.obj
 0001:00023a60       ?redrawDisplay@DisplayableObject@@QAEXXZ 00424a60 f   DisplayableObject.obj
 0001:00023a80       ?redrawRectangle@DisplayableObject@@QAEXXZ 00424a80 f   DisplayableObject.obj
 0001:00023ac0       ?virtIsObjectInRedrawArea@DisplayableObject@@QAE_NXZ 00424ac0 f   DisplayableObject.obj
 0001:00023b60       ?fixPosition@DisplayableObject@@QAEXXZ 00424b60 f   DisplayableObject.obj
 0001:00023d30       ??_EDisplayableObject@@UAEPAXI@Z 00424d30 f i DisplayableObject.obj
 0001:00023d30       ??_GDisplayableObject@@UAEPAXI@Z 00424d30 f i DisplayableObject.obj
 0001:00023d70       ?convertVirtualPixelToClickedXPosition@BaseEngine@@QAEHH@Z 00424d70 f i DisplayableObject.obj
 0001:00023da0       ?convertVirtualPixelToClickedYPosition@BaseEngine@@QAEHH@Z 00424da0 f i DisplayableObject.obj
 0001:00023dd0       ?convertVirtualToRealXPosition@DrawingSurface@@QAEHH@Z 00424dd0 f i DisplayableObject.obj
 0001:00023e10       ?convertVirtualToRealYPosition@DrawingSurface@@QAEHH@Z 00424e10 f i DisplayableObject.obj
 0001:00023e50       ?redrawRectangle@BaseEngine@@QAEXHHHH@Z 00424e50 f i DisplayableObject.obj
 0001:00023fc0       ?setForegroundPixel@BaseEngine@@QAEXHHI@Z 00424fc0 f i DisplayableObject.obj
 0001:00023ff0       ??0FontManager@@QAE@XZ     00424ff0 f   FontManager.obj
 0001:00024060       ??1FontManager@@QAE@XZ     00425060 f   FontManager.obj
 0001:000240d0       ?getFont@FontManager@@QAEPAVFont@@PBDH@Z 004250d0 f   FontManager.obj
 0001:00024270       ?loadFonts@FontManager@@QAEXXZ 00425270 f   FontManager.obj
 0001:000243a0       ??$growArrayOfObjects@PAVFont@@@@YAPAPAVFont@@PAPAV0@AAHH@Z 004253a0 f i FontManager.obj
 0001:00024460       ??0Font@@QAE@PBDH@Z        00425460 f i FontManager.obj
 0001:000244e0       ??1Font@@QAE@XZ            004254e0 f i FontManager.obj
 0001:00024560       ??_GFont@@QAEPAXI@Z        00425560 f i FontManager.obj
 0001:000245a0       ?getName@Font@@QAEPBDXZ    004255a0 f i FontManager.obj
 0001:000245c0       ?getSize@Font@@QAEHXZ      004255c0 f i FontManager.obj
 0001:000245e0       ??0MovingPokemon@@QAE@PAVScyzc3Engine@@PAVRunningState@@PAVScyzc3Object@@V?$basic_string@DU?$char_traits@D@std@@V?$allocator@D@2@@std@@HH@Z 004255e0 f   MovingPokemon.obj
 0001:00024870       ??1MovingPokemon@@UAE@XZ   00425870 f   MovingPokemon.obj
 0001:00024920       ?virtDraw@MovingPokemon@@UAEXXZ 00425920 f   MovingPokemon.obj
 0001:00024c70       ?virtDoUpdate@MovingPokemon@@UAEXH@Z 00425c70 f   MovingPokemon.obj
 0001:00024cb0       ?GetPath@MovingPokemon@@QAEXXZ 00425cb0 f   MovingPokemon.obj
 0001:00024f30       ?setPosition@MovingPokemon@@QAEXNN@Z 00425f30 f   MovingPokemon.obj
 0001:00024f60       ?findGreedyWay@MovingPokemon@@QAEXAAH0@Z 00425f60 f   MovingPokemon.obj
 0001:00025810       ?getLeastFpoint@MovingPokemon@@QAE?AV?$shared_ptr@UPoint@@@std@@XZ 00426810 f   MovingPokemon.obj
 0001:00025910       ?getSurroundPoints@MovingPokemon@@QBE?AV?$vector@V?$shared_ptr@UPoint@@@std@@V?$allocator@V?$shared_ptr@UPoint@@@std@@@2@@std@@V?$shared_ptr@UPoint@@@3@@Z 00426910 f   MovingPokemon.obj
 0001:00025b30       ?isInList@MovingPokemon@@QBE?AV?$shared_ptr@UPoint@@@std@@ABV?$list@V?$shared_ptr@UPoint@@@std@@V?$allocator@V?$shared_ptr@UPoint@@@std@@@2@@3@V23@@Z 00426b30 f   MovingPokemon.obj
 0001:00025c20       ?calcG@MovingPokemon@@QAEHV?$shared_ptr@UPoint@@@std@@0@Z 00426c20 f   MovingPokemon.obj
 0001:00025c90       ?calcH@MovingPokemon@@QAEHV?$shared_ptr@UPoint@@@std@@0@Z 00426c90 f   MovingPokemon.obj
 0001:00025d70       ?findWayToPlayer@MovingPokemon@@QAE?AV?$shared_ptr@UPoint@@@std@@AAH0@Z 00426d70 f   MovingPokemon.obj
 0001:00026260       ?findAStarWay@MovingPokemon@@QAEXXZ 00427260 f   MovingPokemon.obj
 0001:00026690       ?drawHP@MovingPokemon@@UAEXXZ 00427690 f   MovingPokemon.obj
 0001:00026790       ?isCollision@MovingPokemon@@UAE_NXZ 00427790 f   MovingPokemon.obj
 0001:00027240       ??$?0$$V@?$_Compressed_pair@V?$allocator@U?$_List_node@V?$shared_ptr@UPoint@@@std@@PAX@std@@@std@@V?$_List_val@U?$_List_simple_types@V?$shared_ptr@UPoint@@@std@@@std@@@2@$00@std@@QAE@U_Zero_then_variadic_args_t@1@@Z 00428240 f i MovingPokemon.obj
 0001:00027270       ??$?0$$V@?$_Compressed_pair@V?$allocator@V?$shared_ptr@UPoint@@@std@@@std@@V?$_Vector_val@U?$_Simple_types@V?$shared_ptr@UPoint@@@std@@@std@@@2@$00@std@@QAE@U_Zero_then_variadic_args_t@1@@Z 00428270 f i MovingPokemon.obj
 0001:000272a0       ??$?0AAHAAH@?$_Ref_count_obj2@UPoint@@@std@@QAE@AAH0@Z 004282a0 f i MovingPokemon.obj
 0001:00027360       ??$?0AAHH@?$_Ref_count_obj2@UPoint@@@std@@QAE@AAH$$QAH@Z 00428360 f i MovingPokemon.obj
 0001:00027420       ??$?0AAPAMAAPAM$0A@@?$pair@PAMPAM@std@@QAE@AAPAM0@Z 00428420 f i MovingPokemon.obj
 0001:00027470       ??$?0ABV?$shared_ptr@UPoint@@@std@@@?$_List_node_emplace_op2@V?$allocator@U?$_List_node@V?$shared_ptr@UPoint@@@std@@PAX@std@@@std@@@std@@QAE@AAV?$allocator@U?$_List_node@V?$shared_ptr@UPoint@@@std@@PAX@std@@@1@ABV?$shared_ptr@UPoint@@@1@@Z 00428470 f i MovingPokemon.obj
 0001:00027520       ??$?0HAAH@?$_Ref_count_obj2@UPoint@@@std@@QAE@$$QAHAAH@Z 00428520 f i MovingPokemon.obj
 0001:000275e0       ??$?0U?$_List_node@V?$shared_ptr@UPoint@@@std@@PAX@std@@@?$allocator@U_Container_proxy@std@@@std@@QAE@ABV?$allocator@U?$_List_node@V?$shared_ptr@UPoint@@@std@@PAX@std@@@1@@Z 004285e0 f i MovingPokemon.obj
 0001:00027600       ??$?0UPoint@@$0A@@?$shared_ptr@UPoint@@@std@@QAE@PAUPoint@@@Z 00428600 f i MovingPokemon.obj
 0001:000276f0       ??$?0V?$allocator@V?$shared_ptr@UPoint@@@std@@@std@@$$V@?$_Compressed_pair@V?$allocator@V?$shared_ptr@UPoint@@@std@@@std@@V?$_Vector_val@U?$_Simple_types@V?$shared_ptr@UPoint@@@std@@@std@@@2@$00@std@@QAE@U_One_then_variadic_args_t@1@$$QAV?$allocator@V?$shared_ptr@UPoint@@@std@@@1@@Z 004286f0 f i MovingPokemon.obj
 0001:00027720       ??$?0V?$shared_ptr@UPoint@@@std@@@?$_List_node_emplace_op2@V?$allocator@U?$_List_node@V?$shared_ptr@UPoint@@@std@@PAX@std@@@std@@@std@@QAE@AAV?$allocator@U?$_List_node@V?$shared_ptr@UPoint@@@std@@PAX@std@@@1@$$QAV?$shared_ptr@UPoint@@@1@@Z 00428720 f i MovingPokemon.obj
 0001:000277d0       ??$?0V?$shared_ptr@UPoint@@@std@@@?$allocator@U_Container_proxy@std@@@std@@QAE@ABV?$allocator@V?$shared_ptr@UPoint@@@std@@@1@@Z 004287d0 f i MovingPokemon.obj
 0001:000277f0       ??$?8UPoint@@@std@@YA_NABV?$shared_ptr@UPoint@@@0@$$T@Z 004287f0 f i MovingPokemon.obj
 0001:00027820       ??$?8UPoint@@U0@@std@@YA_NABV?$shared_ptr@UPoint@@@0@0@Z 00428820 f i MovingPokemon.obj
 0001:00027860       ??$?CUPoint@@$0A@@?$shared_ptr@UPoint@@@std@@QBEPAUPoint@@XZ 00428860 f i MovingPokemon.obj
 0001:00027880       ??$?RAAMAAM@?$less@X@std@@QBE_NAAM0@Z 00428880 f i MovingPokemon.obj
 0001:000278c0       ??$_Adl_verify_range@PAMPAM@std@@YAXABQAM0@Z 004288c0 f i MovingPokemon.obj
 0001:000278e0       ??$_Construct_in_place@PAU?$_List_node@V?$shared_ptr@UPoint@@@std@@PAX@std@@AAPAU12@@std@@YAXAAPAU?$_List_node@V?$shared_ptr@UPoint@@@std@@PAX@0@0@Z 004288e0 f i MovingPokemon.obj
 0001:00027930       ??$_Construct_in_place@PAU?$_List_node@V?$shared_ptr@UPoint@@@std@@PAX@std@@ABQAU12@@std@@YAXAAPAU?$_List_node@V?$shared_ptr@UPoint@@@std@@PAX@0@ABQAU10@@Z 00428930 f i MovingPokemon.obj
 0001:00027980       ??$_Construct_in_place@UPoint@@AAHAAH@std@@YAXAAUPoint@@AAH1@Z 00428980 f i MovingPokemon.obj
 0001:000279e0       ??$_Construct_in_place@UPoint@@AAHH@std@@YAXAAUPoint@@AAH$$QAH@Z 004289e0 f i MovingPokemon.obj
 0001:00027a40       ??$_Construct_in_place@UPoint@@HAAH@std@@YAXAAUPoint@@$$QAHAAH@Z 00428a40 f i MovingPokemon.obj
 0001:00027aa0       ??$_Copy_backward_memmove@PAMPAM@std@@YAPAMPAM00@Z 00428aa0 f i MovingPokemon.obj
 0001:00027af0       ??$_Copy_construct_from@UPoint@@@?$_Ptr_base@UPoint@@@std@@IAEXABV?$shared_ptr@UPoint@@@1@@Z 00428af0 f i MovingPokemon.obj
 0001:00027b30       ??$_Debug_lt_pred@AAU?$less@X@std@@AAMAAM$0A@@std@@YA_NAAU?$less@X@0@AAM1@Z 00428b30 f i MovingPokemon.obj
 0001:00027be0       ??$_Destroy_in_place@PAU?$_List_node@V?$shared_ptr@UPoint@@@std@@PAX@std@@@std@@YAXAAPAU?$_List_node@V?$shared_ptr@UPoint@@@std@@PAX@0@@Z 00428be0 f i MovingPokemon.obj
 0001:00027bf0       ??$_Destroy_in_place@UPoint@@@std@@YAXAAUPoint@@@Z 00428bf0 f i MovingPokemon.obj
 0001:00027c10       ??$_Destroy_range@V?$allocator@V?$shared_ptr@UPoint@@@std@@@std@@@std@@YAXPAV?$shared_ptr@UPoint@@@0@QAV10@AAV?$allocator@V?$shared_ptr@UPoint@@@std@@@0@@Z 00428c10 f i MovingPokemon.obj
 0001:00027c90       ??$_Emplace@ABV?$shared_ptr@UPoint@@@std@@@?$list@V?$shared_ptr@UPoint@@@std@@V?$allocator@V?$shared_ptr@UPoint@@@std@@@2@@std@@QAEPAU?$_List_node@V?$shared_ptr@UPoint@@@std@@PAX@1@QAU21@ABV?$shared_ptr@UPoint@@@1@@Z 00428c90 f i MovingPokemon.obj
 0001:00027d40       ??$_Emplace@V?$shared_ptr@UPoint@@@std@@@?$list@V?$shared_ptr@UPoint@@@std@@V?$allocator@V?$shared_ptr@UPoint@@@std@@@2@@std@@QAEPAU?$_List_node@V?$shared_ptr@UPoint@@@std@@PAX@1@QAU21@$$QAV?$shared_ptr@UPoint@@@1@@Z 00428d40 f i MovingPokemon.obj
 0001:00027df0       ??$_Emplace_back@V?$shared_ptr@UPoint@@@std@@@?$_Uninitialized_backout_al@V?$allocator@V?$shared_ptr@UPoint@@@std@@@std@@@std@@QAEX$$QAV?$shared_ptr@UPoint@@@1@@Z 00428df0 f i MovingPokemon.obj
 0001:00027e50       ??$_Emplace_back_with_unused_capacity@V?$shared_ptr@UPoint@@@std@@@?$vector@V?$shared_ptr@UPoint@@@std@@V?$allocator@V?$shared_ptr@UPoint@@@std@@@2@@std@@AAE@$$QAV?$shared_ptr@UPoint@@@1@@Z 00428e50 f i MovingPokemon.obj
 0001:00027ef0       ??$_Emplace_reallocate@V?$shared_ptr@UPoint@@@std@@@?$vector@V?$shared_ptr@UPoint@@@std@@V?$allocator@V?$shared_ptr@UPoint@@@std@@@2@@std@@QAEPAV?$shared_ptr@UPoint@@@1@QAV21@$$QAV21@@Z 00428ef0 f i MovingPokemon.obj
 0001:00028140       ??$_Free_non_head@V?$allocator@U?$_List_node@V?$shared_ptr@UPoint@@@std@@PAX@std@@@std@@@?$_List_node@V?$shared_ptr@UPoint@@@std@@PAX@std@@SAXAAV?$allocator@U?$_List_node@V?$shared_ptr@UPoint@@@std@@PAX@std@@@1@PAU01@@Z 00429140 f i MovingPokemon.obj
 0001:000281a0       ??$_Freenode0@V?$allocator@U?$_List_node@V?$shared_ptr@UPoint@@@std@@PAX@std@@@std@@@?$_List_node@V?$shared_ptr@UPoint@@@std@@PAX@std@@SAXAAV?$allocator@U?$_List_node@V?$shared_ptr@UPoint@@@std@@PAX@std@@@1@PAU01@@Z 004291a0 f i MovingPokemon.obj
 0001:00028220       ??$_Freenode@V?$allocator@U?$_List_node@V?$shared_ptr@UPoint@@@std@@PAX@std@@@std@@@?$_List_node@V?$shared_ptr@UPoint@@@std@@PAX@std@@SAXAAV?$allocator@U?$_List_node@V?$shared_ptr@UPoint@@@std@@PAX@std@@@1@PAU01@@Z 00429220 f i MovingPokemon.obj
 0001:000282a0       ??$_Get_unwrapped@ABQAM@std@@YA@ABQAM@Z 004292a0 f i MovingPokemon.obj
 0001:000282b0       ??$_Get_unwrapped@ABQAV?$shared_ptr@UPoint@@@std@@@std@@YA@ABQAV?$shared_ptr@UPoint@@@0@@Z 004292b0 f i MovingPokemon.obj
 0001:000282c0       ??$_Guess_median_unchecked@PAMU?$less@X@std@@@std@@YAXPAM00U?$less@X@0@@Z 004292c0 f i MovingPokemon.obj
 0001:000283f0       ??$_Insertion_sort_unchecked@PAMU?$less@X@std@@@std@@YAPAMQAM0U?$less@X@0@@Z 004293f0 f i MovingPokemon.obj
 0001:00028530       ??$_Make_heap_unchecked@PAMU?$less@X@std@@@std@@YAXPAM0U?$less@X@0@@Z 00429530 f i MovingPokemon.obj
 0001:000285c0       ??$_Med3_unchecked@PAMU?$less@X@std@@@std@@YAXPAM00U?$less@X@0@@Z 004295c0 f i MovingPokemon.obj
 0001:00028670       ??$_Move_backward_unchecked@PAMPAM@std@@YAPAMPAM00@Z 00429670 f i MovingPokemon.obj
 0001:000286d0       ??$_Move_construct_from@UPoint@@@?$_Ptr_base@UPoint@@@std@@IAEX$$QAV01@@Z 004296d0 f i MovingPokemon.obj
 0001:00028720       ??$_Next_iter@PAM@std@@YAPAMPAM@Z 00429720 f i MovingPokemon.obj
 0001:00028740       ??$_Partition_by_median_guess_unchecked@PAMU?$less@X@std@@@std@@YA?AU?$pair@PAMPAM@0@PAM0U?$less@X@0@@Z 00429740 f i MovingPokemon.obj
 0001:00028b00       ??$_Pass_fn@U?$less@X@std@@$0A@@std@@YA?AU?$less@X@0@U10@@Z 00429b00 f i MovingPokemon.obj
 0001:00028b10       ??$_Pop_heap_hole_by_index@PAMMU?$less@X@std@@@std@@YAXPAMHH$$QAMU?$less@X@0@@Z 00429b10 f i MovingPokemon.obj
 0001:00028c40       ??$_Pop_heap_hole_unchecked@PAMMU?$less@X@std@@@std@@YAXPAM00$$QAMU?$less@X@0@@Z 00429c40 f i MovingPokemon.obj
 0001:00028ca0       ??$_Pop_heap_unchecked@PAMU?$less@X@std@@@std@@YAXPAM0U?$less@X@0@@Z 00429ca0 f i MovingPokemon.obj
 0001:00028d10       ??$_Prev_iter@PAM@std@@YAPAMPAM@Z 00429d10 f i MovingPokemon.obj
 0001:00028d30       ??$_Push_heap_by_index@PAMMU?$less@X@std@@@std@@YAXPAMHH$$QAMU?$less@X@0@@Z 00429d30 f i MovingPokemon.obj
 0001:00028de0       ??$_Set_ptr_rep_and_enable_shared@UPoint@@@?$shared_ptr@UPoint@@@std@@AAEXQAUPoint@@QAV_Ref_count_base@1@@Z 00429de0 f i MovingPokemon.obj
 0001:00028e10       ??$_Sort_heap_unchecked@PAMU?$less@X@std@@@std@@YAXPAM0U?$less@X@0@@Z 00429e10 f i MovingPokemon.obj
 0001:00028e60       ??$_Sort_unchecked@PAMU?$less@X@std@@@std@@YAXPAM0HU?$less@X@0@@Z 00429e60 f i MovingPokemon.obj
 0001:00028f90       ??$_Unfancy@V?$shared_ptr@UPoint@@@std@@@std@@YAPAV?$shared_ptr@UPoint@@@0@PAV10@@Z 00429f90 f i MovingPokemon.obj
 0001:00028fa0       ??$_Uninitialized_move@PAV?$shared_ptr@UPoint@@@std@@V?$allocator@V?$shared_ptr@UPoint@@@std@@@2@@std@@YAPAV?$shared_ptr@UPoint@@@0@QAV10@0PAV10@AAV?$allocator@V?$shared_ptr@UPoint@@@std@@@0@@Z 00429fa0 f i MovingPokemon.obj
 0001:00029080       ??$_Verify_range@M@std@@YAXQBM0@Z 0042a080 f i MovingPokemon.obj
 0001:00029100       ??$addressof@PAU?$_List_node@V?$shared_ptr@UPoint@@@std@@PAX@std@@@std@@YAPAPAU?$_List_node@V?$shared_ptr@UPoint@@@std@@PAX@0@AAPAU10@@Z 0042a100 f i MovingPokemon.obj
 0001:00029110       ??$addressof@UPoint@@@std@@YAPAUPoint@@AAU1@@Z 0042a110 f i MovingPokemon.obj
 0001:00029120       ??$addressof@V?$_List_val@U?$_List_simple_types@V?$shared_ptr@UPoint@@@std@@@std@@@std@@@std@@YAPAV?$_List_val@U?$_List_simple_types@V?$shared_ptr@UPoint@@@std@@@std@@@0@AAV10@@Z 0042a120 f i MovingPokemon.obj
 0001:00029130       ??$addressof@V?$shared_ptr@UPoint@@@std@@@std@@YAPAV?$shared_ptr@UPoint@@@0@AAV10@@Z 0042a130 f i MovingPokemon.obj
 0001:00029140       ??$construct@V?$shared_ptr@UPoint@@@std@@ABV12@@?$_Default_allocator_traits@V?$allocator@U?$_List_node@V?$shared_ptr@UPoint@@@std@@PAX@std@@@std@@@std@@SAXAAV?$allocator@U?$_List_node@V?$shared_ptr@UPoint@@@std@@PAX@std@@@1@QAV?$shared_ptr@UPoint@@@1@ABV31@@Z 0042a140 f i MovingPokemon.obj
 0001:00029180       ??$construct@V?$shared_ptr@UPoint@@@std@@V12@@?$_Default_allocator_traits@V?$allocator@U?$_List_node@V?$shared_ptr@UPoint@@@std@@PAX@std@@@std@@@std@@SAXAAV?$allocator@U?$_List_node@V?$shared_ptr@UPoint@@@std@@PAX@std@@@1@QAV?$shared_ptr@UPoint@@@1@$$QAV31@@Z 0042a180 f i MovingPokemon.obj
 0001:000291c0       ??$construct@V?$shared_ptr@UPoint@@@std@@V12@@?$_Default_allocator_traits@V?$allocator@V?$shared_ptr@UPoint@@@std@@@std@@@std@@SAXAAV?$allocator@V?$shared_ptr@UPoint@@@std@@@1@QAV?$shared_ptr@UPoint@@@1@$$QAV31@@Z 0042a1c0 f i MovingPokemon.obj
 0001:00029200       ??$destroy@PAU?$_List_node@V?$shared_ptr@UPoint@@@std@@PAX@std@@@?$_Default_allocator_traits@V?$allocator@U?$_List_node@V?$shared_ptr@UPoint@@@std@@PAX@std@@@std@@@std@@SAXAAV?$allocator@U?$_List_node@V?$shared_ptr@UPoint@@@std@@PAX@std@@@1@QAPAU?$_List_node@V?$shared_ptr@UPoint@@@std@@PAX@1@@Z 0042a200 f i MovingPokemon.obj
 0001:00029210       ??$destroy@V?$shared_ptr@UPoint@@@std@@@?$_Default_allocator_traits@V?$allocator@U?$_List_node@V?$shared_ptr@UPoint@@@std@@PAX@std@@@std@@@std@@SAXAAV?$allocator@U?$_List_node@V?$shared_ptr@UPoint@@@std@@PAX@std@@@1@QAV?$shared_ptr@UPoint@@@1@@Z 0042a210 f i MovingPokemon.obj
 0001:00029230       ??$destroy@V?$shared_ptr@UPoint@@@std@@@?$_Default_allocator_traits@V?$allocator@V?$shared_ptr@UPoint@@@std@@@std@@@std@@SAXAAV?$allocator@V?$shared_ptr@UPoint@@@std@@@1@QAV?$shared_ptr@UPoint@@@1@@Z 0042a230 f i MovingPokemon.obj
 0001:00029250       ??$emplace_back@V?$shared_ptr@UPoint@@@std@@@?$vector@V?$shared_ptr@UPoint@@@std@@V?$allocator@V?$shared_ptr@UPoint@@@std@@@2@@std@@QAE@$$QAV?$shared_ptr@UPoint@@@1@@Z 0042a250 f i MovingPokemon.obj
 0001:000292d0       ??$exchange@PAU?$_List_node@V?$shared_ptr@UPoint@@@std@@PAX@std@@PAU12@@std@@YAPAU?$_List_node@V?$shared_ptr@UPoint@@@std@@PAX@0@AAPAU10@$$QAPAU10@@Z 0042a2d0 f i MovingPokemon.obj
 0001:00029300       ??$forward@AAH@std@@YAAAHAAH@Z 0042a300 f i MovingPokemon.obj
 0001:00029310       ??$forward@AAPAM@std@@YAAAPAMAAPAM@Z 0042a310 f i MovingPokemon.obj
 0001:00029320       ??$forward@AAPAU?$_List_node@V?$shared_ptr@UPoint@@@std@@PAX@std@@@std@@YAAAPAU?$_List_node@V?$shared_ptr@UPoint@@@std@@PAX@0@AAPAU10@@Z 0042a320 f i MovingPokemon.obj
 0001:00029330       ??$forward@ABQAU?$_List_node@V?$shared_ptr@UPoint@@@std@@PAX@std@@@std@@YAABQAU?$_List_node@V?$shared_ptr@UPoint@@@std@@PAX@0@ABQAU10@@Z 0042a330 f i MovingPokemon.obj
 0001:00029340       ??$forward@ABV?$shared_ptr@UPoint@@@std@@@std@@YAABV?$shared_ptr@UPoint@@@0@ABV10@@Z 0042a340 f i MovingPokemon.obj
 0001:00029350       ??$forward@H@std@@YA$$QAHAAH@Z 0042a350 f i MovingPokemon.obj
 0001:00029360       ??$forward@M@std@@YA$$QAMAAM@Z 0042a360 f i MovingPokemon.obj
 0001:00029370       ??$forward@V?$allocator@V?$shared_ptr@UPoint@@@std@@@std@@@std@@YA$$QAV?$allocator@V?$shared_ptr@UPoint@@@std@@@0@AAV10@@Z 0042a370 f i MovingPokemon.obj
 0001:00029380       ??$forward@V?$shared_ptr@UPoint@@@std@@@std@@YA$$QAV?$shared_ptr@UPoint@@@0@AAV10@@Z 0042a380 f i MovingPokemon.obj
 0001:00029390       ??$iter_swap@PAMPAM@std@@YAXPAM0@Z 0042a390 f i MovingPokemon.obj
 0001:000293b0       ??$make_shared@UPoint@@AAHAAH@std@@YA?AV?$shared_ptr@UPoint@@@0@AAH0@Z 0042a3b0 f i MovingPokemon.obj
 0001:000294c0       ??$make_shared@UPoint@@AAHH@std@@YA?AV?$shared_ptr@UPoint@@@0@AAH$$QAH@Z 0042a4c0 f i MovingPokemon.obj
 0001:000295d0       ??$make_shared@UPoint@@HAAH@std@@YA?AV?$shared_ptr@UPoint@@@0@$$QAHAAH@Z 0042a5d0 f i MovingPokemon.obj
 0001:000296e0       ??$move@AAM@std@@YA$$QAMAAM@Z 0042a6e0 f i MovingPokemon.obj
 0001:000296f0       ??$move@AAPAUPoint@@@std@@YA$$QAPAUPoint@@AAPAU1@@Z 0042a6f0 f i MovingPokemon.obj
 0001:00029700       ??$move@AAV?$allocator@V?$shared_ptr@UPoint@@@std@@@std@@@std@@YA$$QAV?$allocator@V?$shared_ptr@UPoint@@@std@@@0@AAV10@@Z 0042a700 f i MovingPokemon.obj
 0001:00029710       ??$move@AAV?$shared_ptr@UPoint@@@std@@@std@@YA$$QAV?$shared_ptr@UPoint@@@0@AAV10@@Z 0042a710 f i MovingPokemon.obj
 0001:00029720       ??$remove_if@V<lambda_b690566a45cb25f6c38559f9ef1f79a2>@@@?$list@V?$shared_ptr@UPoint@@@std@@V?$allocator@V?$shared_ptr@UPoint@@@std@@@2@@std@@QAE@V<lambda_b690566a45cb25f6c38559f9ef1f79a2>@@@Z 0042a720 f i MovingPokemon.obj
 0001:00029810       ??$sort@PAM@std@@YAXQAM0@Z 0042a810 f i MovingPokemon.obj
 0001:00029840       ??$sort@PAMU?$less@X@std@@@std@@YAXQAM0U?$less@X@0@@Z 0042a840 f i MovingPokemon.obj
 0001:000298c0       ??$swap@M$0A@@std@@YAXAAM0@Z 0042a8c0 f i MovingPokemon.obj
 0001:00029920       ??$swap@PAUPoint@@$0A@@std@@YAXAAPAUPoint@@0@Z 0042a920 f i MovingPokemon.obj
 0001:00029970       ??0<lambda_b690566a45cb25f6c38559f9ef1f79a2>@@QAE@ABV?$shared_ptr@UPoint@@@std@@@Z 0042a970 f i MovingPokemon.obj
 0001:00029990       ??0?$_Alloc_construct_ptr@V?$allocator@U?$_List_node@V?$shared_ptr@UPoint@@@std@@PAX@std@@@std@@@std@@QAE@AAV?$allocator@U?$_List_node@V?$shared_ptr@UPoint@@@std@@PAX@std@@@1@@Z 0042a990 f i MovingPokemon.obj
 0001:000299c0       ??0?$_List_const_iterator@V?$_List_val@U?$_List_simple_types@V?$shared_ptr@UPoint@@@std@@@std@@@std@@@std@@QAE@$$QAV01@@Z 0042a9c0 f i MovingPokemon.obj
 0001:000299f0       ??0?$_List_const_iterator@V?$_List_val@U?$_List_simple_types@V?$shared_ptr@UPoint@@@std@@@std@@@std@@@std@@QAE@ABV01@@Z 0042a9f0 f i MovingPokemon.obj
 0001:00029a20       ??0?$_List_const_iterator@V?$_List_val@U?$_List_simple_types@V?$shared_ptr@UPoint@@@std@@@std@@@std@@@std@@QAE@PAU?$_List_node@V?$shared_ptr@UPoint@@@std@@PAX@1@PBV?$_List_val@U?$_List_simple_types@V?$shared_ptr@UPoint@@@std@@@std@@@1@@Z 0042aa20 f i MovingPokemon.obj
 0001:00029a50       ??0?$_List_iterator@V?$_List_val@U?$_List_simple_types@V?$shared_ptr@UPoint@@@std@@@std@@@std@@@std@@QAE@$$QAV01@@Z 0042aa50 f i MovingPokemon.obj
 0001:00029a80       ??0?$_List_iterator@V?$_List_val@U?$_List_simple_types@V?$shared_ptr@UPoint@@@std@@@std@@@std@@@std@@QAE@ABV01@@Z 0042aa80 f i MovingPokemon.obj
 0001:00029ab0       ??0?$_List_iterator@V?$_List_val@U?$_List_simple_types@V?$shared_ptr@UPoint@@@std@@@std@@@std@@@std@@QAE@PAU?$_List_node@V?$shared_ptr@UPoint@@@std@@PAX@1@PBV?$_List_val@U?$_List_simple_types@V?$shared_ptr@UPoint@@@std@@@std@@@1@@Z 0042aab0 f i MovingPokemon.obj
 0001:00029ae0       ??0?$_List_unchecked_const_iterator@V?$_List_val@U?$_List_simple_types@V?$shared_ptr@UPoint@@@std@@@std@@@std@@U_Iterator_base0@2@@std@@QAE@PAU?$_List_node@V?$shared_ptr@UPoint@@@std@@PAX@1@PBV?$_List_val@U?$_List_simple_types@V?$shared_ptr@UPoint@@@std@@@std@@@1@@Z 0042aae0 f i MovingPokemon.obj
 0001:00029b10       ??0?$_List_unchecked_const_iterator@V?$_List_val@U?$_List_simple_types@V?$shared_ptr@UPoint@@@std@@@std@@@std@@U_Iterator_base12@2@@std@@QAE@$$QAV01@@Z 0042ab10 f i MovingPokemon.obj
 0001:00029b50       ??0?$_List_unchecked_const_iterator@V?$_List_val@U?$_List_simple_types@V?$shared_ptr@UPoint@@@std@@@std@@@std@@U_Iterator_base12@2@@std@@QAE@ABV01@@Z 0042ab50 f i MovingPokemon.obj
 0001:00029b90       ??0?$_List_unchecked_const_iterator@V?$_List_val@U?$_List_simple_types@V?$shared_ptr@UPoint@@@std@@@std@@@std@@U_Iterator_base12@2@@std@@QAE@PAU?$_List_node@V?$shared_ptr@UPoint@@@std@@PAX@1@PBV?$_List_val@U?$_List_simple_types@V?$shared_ptr@UPoint@@@std@@@std@@@1@@Z 0042ab90 f i MovingPokemon.obj
 0001:00029bd0       ??0?$_List_unchecked_iterator@V?$_List_val@U?$_List_simple_types@V?$shared_ptr@UPoint@@@std@@@std@@@std@@@std@@QAE@PAU?$_List_node@V?$shared_ptr@UPoint@@@std@@PAX@1@PBV?$_List_val@U?$_List_simple_types@V?$shared_ptr@UPoint@@@std@@@std@@@1@@Z 0042abd0 f i MovingPokemon.obj
 0001:00029c00       ??0?$_List_val@U?$_List_simple_types@V?$shared_ptr@UPoint@@@std@@@std@@@std@@QAE@XZ 0042ac00 f i MovingPokemon.obj
 0001:00029c40       ??0?$_Ptr_base@UPoint@@@std@@IAE@XZ 0042ac40 f i MovingPokemon.obj
 0001:00029c70       ??0?$_Ref_count@UPoint@@@std@@QAE@PAUPoint@@@Z 0042ac70 f i MovingPokemon.obj
 0001:00029cc0       ??0?$_Temporary_owner@UPoint@@@std@@QAE@QAUPoint@@@Z 0042acc0 f i MovingPokemon.obj
 0001:00029ce0       ??0?$_Uninitialized_backout_al@V?$allocator@V?$shared_ptr@UPoint@@@std@@@std@@@std@@QAE@PAV?$shared_ptr@UPoint@@@1@AAV?$allocator@V?$shared_ptr@UPoint@@@std@@@1@@Z 0042ace0 f i MovingPokemon.obj
 0001:00029d20       ??0?$_Vector_val@U?$_Simple_types@V?$shared_ptr@UPoint@@@std@@@std@@@std@@QAE@XZ 0042ad20 f i MovingPokemon.obj
 0001:00029d70       ??0?$allocator@U?$_List_node@V?$shared_ptr@UPoint@@@std@@PAX@std@@@std@@QAE@XZ 0042ad70 f i MovingPokemon.obj
 0001:00029d90       ??0?$allocator@V?$shared_ptr@UPoint@@@std@@@std@@QAE@XZ 0042ad90 f i MovingPokemon.obj
 0001:00029db0       ??0?$list@V?$shared_ptr@UPoint@@@std@@V?$allocator@V?$shared_ptr@UPoint@@@std@@@2@@std@@QAE@XZ 0042adb0 f i MovingPokemon.obj
 0001:00029de0       ??0?$shared_ptr@UPoint@@@std@@QAE@$$QAV01@@Z 0042ade0 f i MovingPokemon.obj
 0001:00029e20       ??0?$shared_ptr@UPoint@@@std@@QAE@$$T@Z 0042ae20 f i MovingPokemon.obj
 0001:00029e40       ??0?$shared_ptr@UPoint@@@std@@QAE@ABV01@@Z 0042ae40 f i MovingPokemon.obj
 0001:00029e70       ??0?$shared_ptr@UPoint@@@std@@QAE@XZ 0042ae70 f i MovingPokemon.obj
 0001:00029e90       ??0?$vector@V?$shared_ptr@UPoint@@@std@@V?$allocator@V?$shared_ptr@UPoint@@@std@@@2@@std@@QAE@$$QAV01@@Z 0042ae90 f i MovingPokemon.obj
 0001:00029f50       ??0?$vector@V?$shared_ptr@UPoint@@@std@@V?$allocator@V?$shared_ptr@UPoint@@@std@@@2@@std@@QAE@XZ 0042af50 f i MovingPokemon.obj
 0001:00029fd0       ??0Point@@QAE@HH@Z         0042afd0 f i MovingPokemon.obj
 0001:0002a030       ??0_List_node_remove_op@?$list@V?$shared_ptr@UPoint@@@std@@V?$allocator@V?$shared_ptr@UPoint@@@std@@@2@@std@@QAE@AAV12@@Z 0042b030 f i MovingPokemon.obj
 0001:0002a080       ??1?$_Alloc_construct_ptr@V?$allocator@U?$_List_node@V?$shared_ptr@UPoint@@@std@@PAX@std@@@std@@@std@@QAE@XZ 0042b080 f i MovingPokemon.obj
 0001:0002a0f0       ??1?$_List_const_iterator@V?$_List_val@U?$_List_simple_types@V?$shared_ptr@UPoint@@@std@@@std@@@std@@@std@@QAE@XZ 0042b0f0 f i MovingPokemon.obj
 0001:0002a110       ??1?$_List_iterator@V?$_List_val@U?$_List_simple_types@V?$shared_ptr@UPoint@@@std@@@std@@@std@@@std@@QAE@XZ 0042b110 f i MovingPokemon.obj
 0001:0002a130       ??1?$_List_node_emplace_op2@V?$allocator@U?$_List_node@V?$shared_ptr@UPoint@@@std@@PAX@std@@@std@@@std@@QAE@XZ 0042b130 f i MovingPokemon.obj
 0001:0002a1c0       ??1?$_List_unchecked_const_iterator@V?$_List_val@U?$_List_simple_types@V?$shared_ptr@UPoint@@@std@@@std@@@std@@U_Iterator_base12@2@@std@@QAE@XZ 0042b1c0 f i MovingPokemon.obj
 0001:0002a1e0       ??1?$_Ref_count@UPoint@@@std@@UAE@XZ 0042b1e0 f i MovingPokemon.obj
 0001:0002a200       ??1?$_Ref_count_obj2@UPoint@@@std@@UAE@XZ 0042b200 f i MovingPokemon.obj
 0001:0002a230       ??1?$_Temporary_owner@UPoint@@@std@@QAE@XZ 0042b230 f i MovingPokemon.obj
 0001:0002a270       ??1?$_Uninitialized_backout_al@V?$allocator@V?$shared_ptr@UPoint@@@std@@@std@@@std@@QAE@XZ 0042b270 f i MovingPokemon.obj
 0001:0002a2a0       ??1?$list@V?$shared_ptr@UPoint@@@std@@V?$allocator@V?$shared_ptr@UPoint@@@std@@@2@@std@@QAE@XZ 0042b2a0 f i MovingPokemon.obj
 0001:0002a2f0       ??1?$shared_ptr@UPoint@@@std@@QAE@XZ 0042b2f0 f i MovingPokemon.obj
 0001:0002a310       ??1?$vector@V?$shared_ptr@UPoint@@@std@@V?$allocator@V?$shared_ptr@UPoint@@@std@@@2@@std@@QAE@XZ 0042b310 f i MovingPokemon.obj
 0001:0002a380       ??1Point@@QAE@XZ           0042b380 f i MovingPokemon.obj
 0001:0002a3a0       ??1_List_node_remove_op@?$list@V?$shared_ptr@UPoint@@@std@@V?$allocator@V?$shared_ptr@UPoint@@@std@@@2@@std@@QAE@XZ 0042b3a0 f i MovingPokemon.obj
 0001:0002a540       ??4?$shared_ptr@UPoint@@@std@@QAEAAV01@ABV01@@Z 0042b540 f i MovingPokemon.obj
 0001:0002a580       ??8?$_List_unchecked_const_iterator@V?$_List_val@U?$_List_simple_types@V?$shared_ptr@UPoint@@@std@@@std@@@std@@U_Iterator_base0@2@@std@@QBE_NABV01@@Z 0042b580 f i MovingPokemon.obj
 0001:0002a5c0       ??9?$_List_unchecked_const_iterator@V?$_List_val@U?$_List_simple_types@V?$shared_ptr@UPoint@@@std@@@std@@@std@@U_Iterator_base0@2@@std@@QBE_NABV01@@Z 0042b5c0 f i MovingPokemon.obj
 0001:0002a610       ??B?$shared_ptr@UPoint@@@std@@QBE_NXZ 0042b610 f i MovingPokemon.obj
 0001:0002a650       ??D?$_List_const_iterator@V?$_List_val@U?$_List_simple_types@V?$shared_ptr@UPoint@@@std@@@std@@@std@@@std@@QBEABV?$shared_ptr@UPoint@@@1@XZ 0042b650 f i MovingPokemon.obj
 0001:0002a760       ??D?$_List_iterator@V?$_List_val@U?$_List_simple_types@V?$shared_ptr@UPoint@@@std@@@std@@@std@@@std@@QBEAAV?$shared_ptr@UPoint@@@1@XZ 0042b760 f i MovingPokemon.obj
 0001:0002a780       ??D?$_List_unchecked_const_iterator@V?$_List_val@U?$_List_simple_types@V?$shared_ptr@UPoint@@@std@@@std@@@std@@U_Iterator_base0@2@@std@@QBEABV?$shared_ptr@UPoint@@@1@XZ 0042b780 f i MovingPokemon.obj
 0001:0002a7a0       ??D?$_List_unchecked_iterator@V?$_List_val@U?$_List_simple_types@V?$shared_ptr@UPoint@@@std@@@std@@@std@@@std@@QBEAAV?$shared_ptr@UPoint@@@1@XZ 0042b7a0 f i MovingPokemon.obj
 0001:0002a7c0       ??E?$_List_const_iterator@V?$_List_val@U?$_List_simple_types@V?$shared_ptr@UPoint@@@std@@@std@@@std@@@std@@QAEAAV01@XZ 0042b7c0 f i MovingPokemon.obj
 0001:0002a8e0       ??E?$_List_iterator@V?$_List_val@U?$_List_simple_types@V?$shared_ptr@UPoint@@@std@@@std@@@std@@@std@@QAE?AV01@H@Z 0042b8e0 f i MovingPokemon.obj
 0001:0002a930       ??E?$_List_unchecked_const_iterator@V?$_List_val@U?$_List_simple_types@V?$shared_ptr@UPoint@@@std@@@std@@@std@@U_Iterator_base0@2@@std@@QAEAAV01@XZ 0042b930 f i MovingPokemon.obj
 0001:0002a950       ??E?$_List_unchecked_iterator@V?$_List_val@U?$_List_simple_types@V?$shared_ptr@UPoint@@@std@@@std@@@std@@@std@@QAEAAV01@XZ 0042b950 f i MovingPokemon.obj
 0001:0002a970       ??R<lambda_b690566a45cb25f6c38559f9ef1f79a2>@@QBE@ABV?$shared_ptr@UPoint@@@std@@@Z 0042b970 f i MovingPokemon.obj
 0001:0002a9a0       ??_E?$_Ref_count@UPoint@@@std@@UAEPAXI@Z 0042b9a0 f i MovingPokemon.obj
 0001:0002a9a0       ??_G?$_Ref_count@UPoint@@@std@@UAEPAXI@Z 0042b9a0 f i MovingPokemon.obj
 0001:0002a9e0       ??_G?$_Ref_count_obj2@UPoint@@@std@@UAEPAXI@Z 0042b9e0 f i MovingPokemon.obj
 0001:0002a9e0       ??_E?$_Ref_count_obj2@UPoint@@@std@@UAEPAXI@Z 0042b9e0 f i MovingPokemon.obj
 0001:0002aa20       ??_G?$shared_ptr@UPoint@@@std@@QAEPAXI@Z 0042ba20 f i MovingPokemon.obj
 0001:0002aa60       ??_GMovingPokemon@@UAEPAXI@Z 0042ba60 f i MovingPokemon.obj
 0001:0002aa60       ??_EMovingPokemon@@UAEPAXI@Z 0042ba60 f i MovingPokemon.obj
 0001:0002aaa0       ??_GPoint@@QAEPAXI@Z       0042baa0 f i MovingPokemon.obj
 0001:0002aae0       ?GetTileManager@RunningState@@QAEPAVScyzc3TileManager@@XZ 0042bae0 f i MovingPokemon.obj
 0001:0002ab00       ?_Alloc_sentinel_and_proxy@?$list@V?$shared_ptr@UPoint@@@std@@V?$allocator@V?$shared_ptr@UPoint@@@std@@@2@@std@@AAEXXZ 0042bb00 f i MovingPokemon.obj
 0001:0002abf0       ?_Allocate@?$_Alloc_construct_ptr@V?$allocator@U?$_List_node@V?$shared_ptr@UPoint@@@std@@PAX@std@@@std@@@std@@QAEXXZ 0042bbf0 f i MovingPokemon.obj
 0001:0002ac20       ?_Calculate_growth@?$vector@V?$shared_ptr@UPoint@@@std@@V?$allocator@V?$shared_ptr@UPoint@@@std@@@2@@std@@ABEII@Z 0042bc20 f i MovingPokemon.obj
 0001:0002ac90       ?_Change_array@?$vector@V?$shared_ptr@UPoint@@@std@@V?$allocator@V?$shared_ptr@UPoint@@@std@@@2@@std@@AAEXQAV?$shared_ptr@UPoint@@@2@II@Z 0042bc90 f i MovingPokemon.obj
 0001:0002ad60       ?_Decref@?$_Ptr_base@UPoint@@@std@@IAEXXZ 0042bd60 f i MovingPokemon.obj
 0001:0002ad90       ?_Delete_this@?$_Ref_count@UPoint@@@std@@EAEXXZ 0042bd90 f i MovingPokemon.obj
 0001:0002ade0       ?_Delete_this@?$_Ref_count_obj2@UPoint@@@std@@EAEXXZ 0042bde0 f i MovingPokemon.obj
 0001:0002ae30       ?_Destroy@?$_Ref_count@UPoint@@@std@@EAEXXZ 0042be30 f i MovingPokemon.obj
 0001:0002ae70       ?_Destroy@?$_Ref_count_obj2@UPoint@@@std@@EAEXXZ 0042be70 f i MovingPokemon.obj
 0001:0002ae90       ?_Destroy@?$vector@V?$shared_ptr@UPoint@@@std@@V?$allocator@V?$shared_ptr@UPoint@@@std@@@2@@std@@AAEXPAV?$shared_ptr@UPoint@@@2@0@Z 0042be90 f i MovingPokemon.obj
 0001:0002aec0       ?_Get_first@?$_Compressed_pair@V?$allocator@U?$_List_node@V?$shared_ptr@UPoint@@@std@@PAX@std@@@std@@V?$_List_val@U?$_List_simple_types@V?$shared_ptr@UPoint@@@std@@@std@@@2@$00@std@@QAEAAV?$allocator@U?$_List_node@V?$shared_ptr@UPoint@@@std@@PAX@std@@@2@XZ 0042bec0 f i MovingPokemon.obj
 0001:0002aee0       ?_Get_first@?$_Compressed_pair@V?$allocator@U?$_List_node@V?$shared_ptr@UPoint@@@std@@PAX@std@@@std@@V?$_List_val@U?$_List_simple_types@V?$shared_ptr@UPoint@@@std@@@std@@@2@$00@std@@QBEABV?$allocator@U?$_List_node@V?$shared_ptr@UPoint@@@std@@PAX@std@@@2@XZ 0042bee0 f i MovingPokemon.obj
 0001:0002af00       ?_Get_first@?$_Compressed_pair@V?$allocator@V?$shared_ptr@UPoint@@@std@@@std@@V?$_Vector_val@U?$_Simple_types@V?$shared_ptr@UPoint@@@std@@@std@@@2@$00@std@@QAEAAV?$allocator@V?$shared_ptr@UPoint@@@std@@@2@XZ 0042bf00 f i MovingPokemon.obj
 0001:0002af20       ?_Get_first@?$_Compressed_pair@V?$allocator@V?$shared_ptr@UPoint@@@std@@@std@@V?$_Vector_val@U?$_Simple_types@V?$shared_ptr@UPoint@@@std@@@std@@@2@$00@std@@QBEABV?$allocator@V?$shared_ptr@UPoint@@@std@@@2@XZ 0042bf20 f i MovingPokemon.obj
 0001:0002af40       ?_Getal@?$list@V?$shared_ptr@UPoint@@@std@@V?$allocator@V?$shared_ptr@UPoint@@@std@@@2@@std@@AAEAAV?$allocator@U?$_List_node@V?$shared_ptr@UPoint@@@std@@PAX@std@@@2@XZ 0042bf40 f i MovingPokemon.obj
 0001:0002af60       ?_Getal@?$list@V?$shared_ptr@UPoint@@@std@@V?$allocator@V?$shared_ptr@UPoint@@@std@@@2@@std@@ABEABV?$allocator@U?$_List_node@V?$shared_ptr@UPoint@@@std@@PAX@std@@@2@XZ 0042bf60 f i MovingPokemon.obj
 0001:0002af80       ?_Getal@?$vector@V?$shared_ptr@UPoint@@@std@@V?$allocator@V?$shared_ptr@UPoint@@@std@@@2@@std@@AAEAAV?$allocator@V?$shared_ptr@UPoint@@@std@@@2@XZ 0042bf80 f i MovingPokemon.obj
 0001:0002afa0       ?_Getal@?$vector@V?$shared_ptr@UPoint@@@std@@V?$allocator@V?$shared_ptr@UPoint@@@std@@@2@@std@@ABEABV?$allocator@V?$shared_ptr@UPoint@@@std@@@2@XZ 0042bfa0 f i MovingPokemon.obj
 0001:0002afc0       ?_Incref@?$_Ptr_base@UPoint@@@std@@IBEXXZ 0042bfc0 f i MovingPokemon.obj
 0001:0002aff0       ?_Move_construct@?$vector@V?$shared_ptr@UPoint@@@std@@V?$allocator@V?$shared_ptr@UPoint@@@std@@@2@@std@@AAEXAAV12@U?$integral_constant@_N$00@2@@Z 0042bff0 f i MovingPokemon.obj
 0001:0002b010       ?_Orphan_non_end@?$_List_val@U?$_List_simple_types@V?$shared_ptr@UPoint@@@std@@@std@@@std@@QAEXXZ 0042c010 f i MovingPokemon.obj
 0001:0002b0b0       ?_Orphan_ptr2@?$_List_val@U?$_List_simple_types@V?$shared_ptr@UPoint@@@std@@@std@@@std@@QAEXPAU?$_List_node@V?$shared_ptr@UPoint@@@std@@PAX@2@@Z 0042c0b0 f i MovingPokemon.obj
 0001:0002b160       ?_Orphan_range@?$vector@V?$shared_ptr@UPoint@@@std@@V?$allocator@V?$shared_ptr@UPoint@@@std@@@2@@std@@ABEXPAV?$shared_ptr@UPoint@@@2@0@Z 0042c160 f i MovingPokemon.obj
 0001:0002b200       ?_Release@?$_Uninitialized_backout_al@V?$allocator@V?$shared_ptr@UPoint@@@std@@@std@@@std@@QAEPAV?$shared_ptr@UPoint@@@2@XZ 0042c200 f i MovingPokemon.obj
 0001:0002b230       ?_Swap@?$_Ptr_base@UPoint@@@std@@IAEXAAV12@@Z 0042c230 f i MovingPokemon.obj
 0001:0002b270       ?_Take_contents@?$_Vector_val@U?$_Simple_types@V?$shared_ptr@UPoint@@@std@@@std@@@std@@QAEXAAV12@@Z 0042c270 f i MovingPokemon.obj
 0001:0002b2f0       ?_Tidy@?$list@V?$shared_ptr@UPoint@@@std@@V?$allocator@V?$shared_ptr@UPoint@@@std@@@2@@std@@AAEXXZ 0042c2f0 f i MovingPokemon.obj
 0001:0002b350       ?_Tidy@?$vector@V?$shared_ptr@UPoint@@@std@@V?$allocator@V?$shared_ptr@UPoint@@@std@@@2@@std@@AAEXXZ 0042c350 f i MovingPokemon.obj
 0001:0002b440       ?_Transfer_back@_List_node_remove_op@?$list@V?$shared_ptr@UPoint@@@std@@V?$allocator@V?$shared_ptr@UPoint@@@std@@@2@@std@@QAEPAU?$_List_node@V?$shared_ptr@UPoint@@@std@@PAX@3@QAU43@@Z 0042c440 f i MovingPokemon.obj
 0001:0002b4e0       ?_Transfer_before@?$_List_node_emplace_op2@V?$allocator@U?$_List_node@V?$shared_ptr@UPoint@@@std@@PAX@std@@@std@@@std@@QAEPAU?$_List_node@V?$shared_ptr@UPoint@@@std@@PAX@2@QAU32@@Z 0042c4e0 f i MovingPokemon.obj
 0001:0002b570       ?_Umove@?$vector@V?$shared_ptr@UPoint@@@std@@V?$allocator@V?$shared_ptr@UPoint@@@std@@@2@@std@@AAEPAV?$shared_ptr@UPoint@@@2@PAV32@00@Z 0042c570 f i MovingPokemon.obj
 0001:0002b5b0       ?_Umove_if_noexcept1@?$vector@V?$shared_ptr@UPoint@@@std@@V?$allocator@V?$shared_ptr@UPoint@@@std@@@2@@std@@AAEXPAV?$shared_ptr@UPoint@@@2@00U?$integral_constant@_N$00@2@@Z 0042c5b0 f i MovingPokemon.obj
 0001:0002b5f0       ?_Umove_if_noexcept@?$vector@V?$shared_ptr@UPoint@@@std@@V?$allocator@V?$shared_ptr@UPoint@@@std@@@2@@std@@AAEXPAV?$shared_ptr@UPoint@@@2@00@Z 0042c5f0 f i MovingPokemon.obj
 0001:0002b630       ?_Unchecked_begin@?$list@V?$shared_ptr@UPoint@@@std@@V?$allocator@V?$shared_ptr@UPoint@@@std@@@2@@std@@QAE?AV?$_List_unchecked_iterator@V?$_List_val@U?$_List_simple_types@V?$shared_ptr@UPoint@@@std@@@std@@@std@@@2@XZ 0042c630 f i MovingPokemon.obj
 0001:0002b660       ?_Unchecked_begin@?$list@V?$shared_ptr@UPoint@@@std@@V?$allocator@V?$shared_ptr@UPoint@@@std@@@2@@std@@QBE?AV?$_List_unchecked_const_iterator@V?$_List_val@U?$_List_simple_types@V?$shared_ptr@UPoint@@@std@@@std@@@std@@U_Iterator_base0@2@@2@XZ 0042c660 f i MovingPokemon.obj
 0001:0002b690       ?_Unchecked_begin@?$vector@V?$shared_ptr@UPoint@@@std@@V?$allocator@V?$shared_ptr@UPoint@@@std@@@2@@std@@QAEPAV?$shared_ptr@UPoint@@@2@XZ 0042c690 f i MovingPokemon.obj
 0001:0002b6b0       ?_Unchecked_end@?$list@V?$shared_ptr@UPoint@@@std@@V?$allocator@V?$shared_ptr@UPoint@@@std@@@2@@std@@QAE?AV?$_List_unchecked_iterator@V?$_List_val@U?$_List_simple_types@V?$shared_ptr@UPoint@@@std@@@std@@@std@@@2@XZ 0042c6b0 f i MovingPokemon.obj
 0001:0002b6e0       ?_Unchecked_end@?$list@V?$shared_ptr@UPoint@@@std@@V?$allocator@V?$shared_ptr@UPoint@@@std@@@2@@std@@QBE?AV?$_List_unchecked_const_iterator@V?$_List_val@U?$_List_simple_types@V?$shared_ptr@UPoint@@@std@@@std@@@std@@U_Iterator_base0@2@@2@XZ 0042c6e0 f i MovingPokemon.obj
 0001:0002b710       ?_Unchecked_end@?$vector@V?$shared_ptr@UPoint@@@std@@V?$allocator@V?$shared_ptr@UPoint@@@std@@@2@@std@@QAEPAV?$shared_ptr@UPoint@@@2@XZ 0042c710 f i MovingPokemon.obj
 0001:0002b730       ?_Xlength@?$vector@V?$shared_ptr@UPoint@@@std@@V?$allocator@V?$shared_ptr@UPoint@@@std@@@2@@std@@CAXXZ 0042c730 f i MovingPokemon.obj
 0001:0002b750       ?allocate@?$allocator@U?$_List_node@V?$shared_ptr@UPoint@@@std@@PAX@std@@@std@@QAEPAU?$_List_node@V?$shared_ptr@UPoint@@@std@@PAX@2@I@Z 0042c750 f i MovingPokemon.obj
 0001:0002b780       ?allocate@?$allocator@V?$shared_ptr@UPoint@@@std@@@std@@QAEPAV?$shared_ptr@UPoint@@@2@I@Z 0042c780 f i MovingPokemon.obj
 0001:0002b7b0       ?begin@?$list@V?$shared_ptr@UPoint@@@std@@V?$allocator@V?$shared_ptr@UPoint@@@std@@@2@@std@@QAE?AV?$_List_iterator@V?$_List_val@U?$_List_simple_types@V?$shared_ptr@UPoint@@@std@@@std@@@std@@@2@XZ 0042c7b0 f i MovingPokemon.obj
 0001:0002b7f0       ?capacity@?$vector@V?$shared_ptr@UPoint@@@std@@V?$allocator@V?$shared_ptr@UPoint@@@std@@@2@@std@@QBEIXZ 0042c7f0 f i MovingPokemon.obj
 0001:0002b820       ?clear@?$list@V?$shared_ptr@UPoint@@@std@@V?$allocator@V?$shared_ptr@UPoint@@@std@@@2@@std@@QAEXXZ 0042c820 f i MovingPokemon.obj
 0001:0002b890       ?deallocate@?$_Default_allocator_traits@V?$allocator@U?$_List_node@V?$shared_ptr@UPoint@@@std@@PAX@std@@@std@@@std@@SAXAAV?$allocator@U?$_List_node@V?$shared_ptr@UPoint@@@std@@PAX@std@@@2@QAU?$_List_node@V?$shared_ptr@UPoint@@@std@@PAX@2@I@Z 0042c890 f i MovingPokemon.obj
 0001:0002b8b0       ?deallocate@?$allocator@U?$_List_node@V?$shared_ptr@UPoint@@@std@@PAX@std@@@std@@QAEXQAU?$_List_node@V?$shared_ptr@UPoint@@@std@@PAX@2@I@Z 0042c8b0 f i MovingPokemon.obj
 0001:0002b8e0       ?deallocate@?$allocator@V?$shared_ptr@UPoint@@@std@@@std@@QAEXQAV?$shared_ptr@UPoint@@@2@I@Z 0042c8e0 f i MovingPokemon.obj
 0001:0002b910       ?drawForegroundRectangle@BaseEngine@@QAEXHHHHI@Z 0042c910 f i MovingPokemon.obj
 0001:0002b950       ?empty@?$list@V?$shared_ptr@UPoint@@@std@@V?$allocator@V?$shared_ptr@UPoint@@@std@@@2@@std@@QBE_NXZ 0042c950 f i MovingPokemon.obj
 0001:0002b990       ?front@?$list@V?$shared_ptr@UPoint@@@std@@V?$allocator@V?$shared_ptr@UPoint@@@std@@@2@@std@@QAEAAV?$shared_ptr@UPoint@@@2@XZ 0042c990 f i MovingPokemon.obj
 0001:0002ba20       ?get@?$_Ptr_base@UPoint@@@std@@IBEPAUPoint@@XZ 0042ca20 f i MovingPokemon.obj
 0001:0002ba40       ?getClassId@MovingPokemon@@UAEHXZ 0042ca40 f i MovingPokemon.obj
 0001:0002ba60       ?getHP@MovingPokemon@@UAEHXZ 0042ca60 f i MovingPokemon.obj
 0001:0002ba80       ?getLevel@Scyzc3Engine@@QAEHXZ 0042ca80 f i MovingPokemon.obj
 0001:0002baa0       ?getMapValue@TileManager@@QBEHHH@Z 0042caa0 f i MovingPokemon.obj
 0001:0002bad0       ?getMapXForScreenX@TileManager@@QBEHH@Z 0042cad0 f i MovingPokemon.obj
 0001:0002bb00       ?getMapYForScreenY@TileManager@@QBEHH@Z 0042cb00 f i MovingPokemon.obj
 0001:0002bb30       ?getTileHeight@TileManager@@QBEHXZ 0042cb30 f i MovingPokemon.obj
 0001:0002bb50       ?getTileWidth@TileManager@@QBEHXZ 0042cb50 f i MovingPokemon.obj
 0001:0002bb70       ?getdirection@MovingPokemon@@UAEHXZ 0042cb70 f i MovingPokemon.obj
 0001:0002bb90       ?max_size@?$_Default_allocator_traits@V?$allocator@U?$_List_node@V?$shared_ptr@UPoint@@@std@@PAX@std@@@std@@@std@@SAIABV?$allocator@U?$_List_node@V?$shared_ptr@UPoint@@@std@@PAX@std@@@2@@Z 0042cb90 f i MovingPokemon.obj
 0001:0002bba0       ?max_size@?$_Default_allocator_traits@V?$allocator@V?$shared_ptr@UPoint@@@std@@@std@@@std@@SAIABV?$allocator@V?$shared_ptr@UPoint@@@std@@@2@@Z 0042cba0 f i MovingPokemon.obj
 0001:0002bbb0       ?max_size@?$list@V?$shared_ptr@UPoint@@@std@@V?$allocator@V?$shared_ptr@UPoint@@@std@@@2@@std@@QBEIXZ 0042cbb0 f i MovingPokemon.obj
 0001:0002bc00       ?max_size@?$vector@V?$shared_ptr@UPoint@@@std@@V?$allocator@V?$shared_ptr@UPoint@@@std@@@2@@std@@QBEIXZ 0042cc00 f i MovingPokemon.obj
 0001:0002bc50       ?push_back@?$list@V?$shared_ptr@UPoint@@@std@@V?$allocator@V?$shared_ptr@UPoint@@@std@@@2@@std@@QAEX$$QAV?$shared_ptr@UPoint@@@2@@Z 0042cc50 f i MovingPokemon.obj
 0001:0002bc90       ?push_back@?$list@V?$shared_ptr@UPoint@@@std@@V?$allocator@V?$shared_ptr@UPoint@@@std@@@2@@std@@QAEXABV?$shared_ptr@UPoint@@@2@@Z 0042cc90 f i MovingPokemon.obj
 0001:0002bcc0       ?push_back@?$vector@V?$shared_ptr@UPoint@@@std@@V?$allocator@V?$shared_ptr@UPoint@@@std@@@2@@std@@QAEX$$QAV?$shared_ptr@UPoint@@@2@@Z 0042ccc0 f i MovingPokemon.obj
 0001:0002bcf0       ?push_front@?$list@V?$shared_ptr@UPoint@@@std@@V?$allocator@V?$shared_ptr@UPoint@@@std@@@2@@std@@QAEXABV?$shared_ptr@UPoint@@@2@@Z 0042ccf0 f i MovingPokemon.obj
 0001:0002bd20       ?remove@?$list@V?$shared_ptr@UPoint@@@std@@V?$allocator@V?$shared_ptr@UPoint@@@std@@@2@@std@@QAE@ABV?$shared_ptr@UPoint@@@2@@Z 0042cd20 f i MovingPokemon.obj
 0001:0002bd50       ?setDirection@MovingPokemon@@UAEXH@Z 0042cd50 f i MovingPokemon.obj
 0001:0002bd70       ?setHP@MovingPokemon@@UAEXH@Z 0042cd70 f i MovingPokemon.obj
 0001:0002bd90       ?swap@?$shared_ptr@UPoint@@@std@@QAEXAAV12@@Z 0042cd90 f i MovingPokemon.obj
 0001:0002bdb0       ??0MovingPokemon2@@QAE@PAVScyzc3Engine@@PAVRunningState@@PAVScyzc3Object@@V?$basic_string@DU?$char_traits@D@std@@V?$allocator@D@2@@std@@HH@Z 0042cdb0 f   MovingPokemon2.obj
 0001:0002c000       ?virtDraw@MovingPokemon2@@UAEXXZ 0042d000 f   MovingPokemon2.obj
 0001:0002c2c0       ?virtDoUpdate@MovingPokemon2@@UAEXH@Z 0042d2c0 f   MovingPokemon2.obj
 0001:0002c570       ?setPosition@MovingPokemon2@@QAEXNN@Z 0042d570 f   MovingPokemon2.obj
 0001:0002c5a0       ?findWayToPlayer@MovingPokemon2@@QAEXAAH0@Z 0042d5a0 f   MovingPokemon2.obj
 0001:0002cbc0       ?drawHP@MovingPokemon2@@UAEXXZ 0042dbc0 f   MovingPokemon2.obj
 0001:0002ccc0       ?isCollision@MovingPokemon2@@UAE_NXZ 0042dcc0 f   MovingPokemon2.obj
 0001:0002d2e0       ??$?8USDL_Rect@@U0@@std@@YA_NABV?$allocator@USDL_Rect@@@0@0@Z 0042e2e0 f i MovingPokemon2.obj
 0001:0002d2f0       ??$_Pocs@V?$allocator@USDL_Rect@@@std@@@std@@YAXAAV?$allocator@USDL_Rect@@@0@0@Z 0042e2f0 f i MovingPokemon2.obj
 0001:0002d380       ??$_Swap_adl@PAUSDL_Rect@@@std@@YAXAAPAUSDL_Rect@@0@Z 0042e380 f i MovingPokemon2.obj
 0001:0002d3a0       ??$addressof@V?$vector@USDL_Rect@@V?$allocator@USDL_Rect@@@std@@@std@@@std@@YAPAV?$vector@USDL_Rect@@V?$allocator@USDL_Rect@@@std@@@0@AAV10@@Z 0042e3a0 f i MovingPokemon2.obj
 0001:0002d3b0       ??$move@AAPAUSDL_Rect@@@std@@YA$$QAPAUSDL_Rect@@AAPAU1@@Z 0042e3b0 f i MovingPokemon2.obj
 0001:0002d3c0       ??$swap@PAUSDL_Rect@@$0A@@std@@YAXAAPAUSDL_Rect@@0@Z 0042e3c0 f i MovingPokemon2.obj
 0001:0002d410       ??1MovingPokemon2@@UAE@XZ  0042e410 f i MovingPokemon2.obj
 0001:0002d4c0       ??_GMovingPokemon2@@UAEPAXI@Z 0042e4c0 f i MovingPokemon2.obj
 0001:0002d4c0       ??_EMovingPokemon2@@UAEPAXI@Z 0042e4c0 f i MovingPokemon2.obj
 0001:0002d500       ?_Swap_val@?$_Vector_val@U?$_Simple_types@USDL_Rect@@@std@@@std@@QAEXAAV12@@Z 0042e500 f i MovingPokemon2.obj
 0001:0002d580       ?getClassId@MovingPokemon2@@UAEHXZ 0042e580 f i MovingPokemon2.obj
 0001:0002d5a0       ?getHP@MovingPokemon2@@UAEHXZ 0042e5a0 f i MovingPokemon2.obj
 0001:0002d5c0       ?getdirection@MovingPokemon2@@UAEHXZ 0042e5c0 f i MovingPokemon2.obj
 0001:0002d5e0       ?setDirection@MovingPokemon2@@UAEXH@Z 0042e5e0 f i MovingPokemon2.obj
 0001:0002d600       ?setHP@MovingPokemon2@@UAEXH@Z 0042e600 f i MovingPokemon2.obj
 0001:0002d620       ?swap@?$vector@USDL_Rect@@V?$allocator@USDL_Rect@@@std@@@std@@QAEXAAV12@@Z 0042e620 f i MovingPokemon2.obj
 0001:0002d680       ?virtSetupBackgroundBuffer@MyDemoA@@UAEXXZ 0042e680 f   MyDemoA.obj
 0001:0002d8c0       ?virtMouseDown@MyDemoA@@UAEXHHH@Z 0042e8c0 f   MyDemoA.obj
 0001:0002da10       ?virtKeyDown@MyDemoA@@UAEXH@Z 0042ea10 f   MyDemoA.obj
 0001:0002da60       ?virtInitialiseObjects@MyDemoA@@UAEHXZ 0042ea60 f   MyDemoA.obj
 0001:0002dc40       ??$addressof@$$CBV?$_Vector_val@U?$_Simple_types@PAVDisplayableObject@@@std@@@std@@@std@@YAPBV?$_Vector_val@U?$_Simple_types@PAVDisplayableObject@@@std@@@0@ABV10@@Z 0042ec40 f i MyDemoA.obj
 0001:0002dc50       ??0MyObjectB@@QAE@PAVBaseEngine@@@Z 0042ec50 f i MyDemoA.obj
 0001:0002dcc0       ??1MyObjectB@@UAE@XZ       0042ecc0 f i MyDemoA.obj
 0001:0002dce0       ??E?$_Vector_const_iterator@V?$_Vector_val@U?$_Simple_types@PAVDisplayableObject@@@std@@@std@@@std@@QAE?AV01@H@Z 0042ece0 f i MyDemoA.obj
 0001:0002dd30       ??_GMyObjectB@@UAEPAXI@Z   0042ed30 f i MyDemoA.obj
 0001:0002dd30       ??_EMyObjectB@@UAEPAXI@Z   0042ed30 f i MyDemoA.obj
 0001:0002dd70       ?begin@?$vector@PAVDisplayableObject@@V?$allocator@PAVDisplayableObject@@@std@@@std@@QBE?AV?$_Vector_const_iterator@V?$_Vector_val@U?$_Simple_types@PAVDisplayableObject@@@std@@@std@@@2@XZ 0042ed70 f i MyDemoA.obj
 0001:0002ddc0       ?drawBackgroundOval@BaseEngine@@QAEXHHHHI@Z 0042edc0 f i MyDemoA.obj
 0001:0002de00       ?drawBackgroundRectangle@BaseEngine@@QAEXHHHHI@Z 0042ee00 f i MyDemoA.obj
 0001:0002de40       ?end@?$vector@PAVDisplayableObject@@V?$allocator@PAVDisplayableObject@@@std@@@std@@QBE?AV?$_Vector_const_iterator@V?$_Vector_val@U?$_Simple_types@PAVDisplayableObject@@@std@@@std@@@2@XZ 0042ee40 f i MyDemoA.obj
 0001:0002de90       ?isValidTilePosition@TileManager@@QBE_NHH@Z 0042ee90 f i MyDemoA.obj
 0001:0002df20       ?setAllObjectsVisible@DisplayableObjectContainer@@QBEX_N@Z 0042ef20 f i MyDemoA.obj
 0001:0002e020       ?setAndRedrawMapValueAt@TileManager@@QAEXHHHPAVBaseEngine@@PAVDrawingSurface@@@Z 0042f020 f i MyDemoA.obj
 0001:0002e0c0       ?setMapValue@TileManager@@QAEHHHH@Z 0042f0c0 f i MyDemoA.obj
 0001:0002e100       ?setTopLeftPositionOnScreen@TileManager@@QAEXHH@Z 0042f100 f i MyDemoA.obj
 0001:0002e130       ?virtDraw@MyObjectB@@UAEXXZ 0042f130 f   MyObjectB.obj
 0001:0002e180       ?virtDoUpdate@MyObjectB@@UAEXH@Z 0042f180 f   MyObjectB.obj
 0001:0002e340       ?virtDrawTileAt@MyTileManager@@UBEXPAVBaseEngine@@PAVDrawingSurface@@HHHH@Z 0042f340 f   MyTileManager.obj
 0001:0002e420       ?Handle@RunningState@@UAEXPAVContext@@@Z 0042f420 f   RunningState.obj
 0001:0002e450       ??0RunningState@@QAE@PAVScyzc3Engine@@@Z 0042f450 f   RunningState.obj
 0001:0002e720       ??1RunningState@@QAE@XZ    0042f720 f   RunningState.obj
 0001:0002e8f0       ?virtSetupBackgroundBuffer@RunningState@@UAEXXZ 0042f8f0 f   RunningState.obj
 0001:0002f200       ?virtMouseDown@RunningState@@UAEXHHH@Z 00430200 f   RunningState.obj
 0001:0002f710       ?virtInitialiseObjects@RunningState@@UAEHXZ 00430710 f   RunningState.obj
 0001:0002fdd0       ?virtDrawStringsOnTop@RunningState@@UAEXXZ 00430dd0 f   RunningState.obj
 0001:00030100       ?loadMap@RunningState@@QAEXPAD@Z 00431100 f   RunningState.obj
 0001:00030580       ?saveGame@RunningState@@QAEXPADH@Z 00431580 f   RunningState.obj
 0001:00030700       ?GetMapData@RunningState@@QAE?AV?$vector@V?$basic_string@DU?$char_traits@D@std@@V?$allocator@D@2@@std@@V?$allocator@V?$basic_string@DU?$char_traits@D@std@@V?$allocator@D@2@@std@@@2@@std@@XZ 00431700 f   RunningState.obj
 0001:00030740       ?GetCurrentView@RunningState@@QAE?AV?$vector@V?$basic_string@DU?$char_traits@D@std@@V?$allocator@D@2@@std@@V?$allocator@V?$basic_string@DU?$char_traits@D@std@@V?$allocator@D@2@@std@@@2@@std@@XZ 00431740 f   RunningState.obj
 0001:00030780       ?UpdateView@RunningState@@QAEXXZ 00431780 f   RunningState.obj
 0001:000307c0       ?getTileValue@RunningState@@QAEHHH@Z 004317c0 f   RunningState.obj
 0001:00030810       ?virtKeyDown@RunningState@@UAEXH@Z 00431810 f   RunningState.obj
 0001:00030d50       ?GetDistance@RunningState@@QAEMHHHH@Z 00431d50 f   RunningState.obj
 0001:00030dc0       ?copyAllBackgroundBuffer@RunningState@@UAEXXZ 00431dc0 f   RunningState.obj
 0001:00030df0       ??6@YAAAV?$basic_ofstream@DU?$char_traits@D@std@@@std@@AAV01@AAPAVplayer@@@Z 00431df0 f   RunningState.obj
 0001:00030ea0       ??6@YAAAV?$basic_ofstream@DU?$char_traits@D@std@@@std@@AAV01@AAPAVrival@@@Z 00431ea0 f   RunningState.obj
 0001:00030f50       ??6@YAAAV?$basic_ofstream@DU?$char_traits@D@std@@@std@@AAV01@AAPAVMovingPokemon@@@Z 00431f50 f   RunningState.obj
 0001:00030fe0       ??6@YAAAV?$basic_ofstream@DU?$char_traits@D@std@@@std@@AAV01@AAPAVMovingPokemon2@@@Z 00431fe0 f   RunningState.obj
 0001:00031b90       ??$?0$$V@?$_Compressed_pair@V?$allocator@V?$basic_string@DU?$char_traits@D@std@@V?$allocator@D@2@@std@@@std@@V?$_Vector_val@U?$_Simple_types@V?$basic_string@DU?$char_traits@D@std@@V?$allocator@D@2@@std@@@std@@@2@$00@std@@QAE@U_Zero_then_variadic_args_t@1@@Z 00432b90 f i RunningState.obj
 0001:00031bc0       ??$?0ABV?$allocator@D@std@@$$V@?$_Compressed_pair@V?$allocator@D@std@@V?$_String_val@U?$_Simple_types@D@std@@@2@$00@std@@QAE@U_One_then_variadic_args_t@1@ABV?$allocator@D@1@@Z 00432bc0 f i RunningState.obj
 0001:00031bf0       ??$?0V?$allocator@V?$basic_string@DU?$char_traits@D@std@@V?$allocator@D@2@@std@@@std@@$$V@?$_Compressed_pair@V?$allocator@V?$basic_string@DU?$char_traits@D@std@@V?$allocator@D@2@@std@@@std@@V?$_Vector_val@U?$_Simple_types@V?$basic_string@DU?$char_traits@D@std@@V?$allocator@D@2@@std@@@std@@@2@$00@std@@QAE@U_One_then_variadic_args_t@1@$$QAV?$allocator@V?$basic_string@DU?$char_traits@D@std@@V?$allocator@D@2@@std@@@1@@Z 00432bf0 f i RunningState.obj
 0001:00031c20       ??$?0V?$basic_string@DU?$char_traits@D@std@@V?$allocator@D@2@@std@@@?$allocator@U_Container_proxy@std@@@std@@QAE@ABV?$allocator@V?$basic_string@DU?$char_traits@D@std@@V?$allocator@D@2@@std@@@1@@Z 00432c20 f i RunningState.obj
 0001:00031c40       ??$?8DU?$char_traits@D@std@@V?$allocator@D@1@@std@@YA_NABV?$basic_string@DU?$char_traits@D@std@@V?$allocator@D@2@@0@QBD@Z 00432c40 f i RunningState.obj
 0001:00031c60       ??$?8V?$basic_string@DU?$char_traits@D@std@@V?$allocator@D@2@@std@@V01@@std@@YA_NABV?$allocator@V?$basic_string@DU?$char_traits@D@std@@V?$allocator@D@2@@std@@@0@0@Z 00432c60 f i RunningState.obj
 0001:00031c70       ??$?HDU?$char_traits@D@std@@V?$allocator@D@1@@std@@YA?AV?$basic_string@DU?$char_traits@D@std@@V?$allocator@D@2@@0@QBD$$QAV10@@Z 00432c70 f i RunningState.obj
 0001:00031cc0       ??$_Adl_verify_range@PAV?$basic_string@DU?$char_traits@D@std@@V?$allocator@D@2@@std@@PAV12@@std@@YAXABQAV?$basic_string@DU?$char_traits@D@std@@V?$allocator@D@2@@0@0@Z 00432cc0 f i RunningState.obj
 0001:00031ce0       ??$_Assign_range@PAV?$basic_string@DU?$char_traits@D@std@@V?$allocator@D@2@@std@@@?$vector@V?$basic_string@DU?$char_traits@D@std@@V?$allocator@D@2@@std@@V?$allocator@V?$basic_string@DU?$char_traits@D@std@@V?$allocator@D@2@@std@@@2@@std@@AAEXPAV?$basic_string@DU?$char_traits@D@std@@V?$allocator@D@2@@1@0Uforward_iterator_tag@1@@Z 00432ce0 f i RunningState.obj
 0001:00031e50       ??$_Copy_unchecked@PAV?$basic_string@DU?$char_traits@D@std@@V?$allocator@D@2@@std@@PAV12@@std@@YAPAV?$basic_string@DU?$char_traits@D@std@@V?$allocator@D@2@@0@PAV10@00@Z 00432e50 f i RunningState.obj
 0001:00031e90       ??$_Destroy_range@V?$allocator@V?$basic_string@DU?$char_traits@D@std@@V?$allocator@D@2@@std@@@std@@@std@@YAXPAV?$basic_string@DU?$char_traits@D@std@@V?$allocator@D@2@@0@QAV10@AAV?$allocator@V?$basic_string@DU?$char_traits@D@std@@V?$allocator@D@2@@std@@@0@@Z 00432e90 f i RunningState.obj
 0001:00031f10       ??$_Emplace_back@AAV?$basic_string@DU?$char_traits@D@std@@V?$allocator@D@2@@std@@@?$_Uninitialized_backout_al@V?$allocator@V?$basic_string@DU?$char_traits@D@std@@V?$allocator@D@2@@std@@@std@@@std@@QAEXAAV?$basic_string@DU?$char_traits@D@std@@V?$allocator@D@2@@1@@Z 00432f10 f i RunningState.obj
 0001:00031f70       ??$_Emplace_back@V?$basic_string@DU?$char_traits@D@std@@V?$allocator@D@2@@std@@@?$_Uninitialized_backout_al@V?$allocator@V?$basic_string@DU?$char_traits@D@std@@V?$allocator@D@2@@std@@@std@@@std@@QAEX$$QAV?$basic_string@DU?$char_traits@D@std@@V?$allocator@D@2@@1@@Z 00432f70 f i RunningState.obj
 0001:00031fd0       ??$_Emplace_back_with_unused_capacity@ABV?$basic_string@DU?$char_traits@D@std@@V?$allocator@D@2@@std@@@?$vector@V?$basic_string@DU?$char_traits@D@std@@V?$allocator@D@2@@std@@V?$allocator@V?$basic_string@DU?$char_traits@D@std@@V?$allocator@D@2@@std@@@2@@std@@AAE@ABV?$basic_string@DU?$char_traits@D@std@@V?$allocator@D@2@@1@@Z 00432fd0 f i RunningState.obj
 0001:00032070       ??$_Emplace_reallocate@ABV?$basic_string@DU?$char_traits@D@std@@V?$allocator@D@2@@std@@@?$vector@V?$basic_string@DU?$char_traits@D@std@@V?$allocator@D@2@@std@@V?$allocator@V?$basic_string@DU?$char_traits@D@std@@V?$allocator@D@2@@std@@@2@@std@@QAEPAV?$basic_string@DU?$char_traits@D@std@@V?$allocator@D@2@@1@QAV21@ABV21@@Z 00433070 f i RunningState.obj
 0001:000322c0       ??$_Get_size_of_n@$0BM@@std@@YAII@Z 004332c0 f i RunningState.obj
 0001:000322f0       ??$_Get_unwrapped@AAPAV?$basic_string@DU?$char_traits@D@std@@V?$allocator@D@2@@std@@@std@@YA@AAPAV?$basic_string@DU?$char_traits@D@std@@V?$allocator@D@2@@0@@Z 004332f0 f i RunningState.obj
 0001:00032300       ??$_Get_unwrapped@ABQAV?$basic_string@DU?$char_traits@D@std@@V?$allocator@D@2@@std@@@std@@YA@ABQAV?$basic_string@DU?$char_traits@D@std@@V?$allocator@D@2@@0@@Z 00433300 f i RunningState.obj
 0001:00032310       ??$_Pocca@V?$allocator@V?$basic_string@DU?$char_traits@D@std@@V?$allocator@D@2@@std@@@std@@@std@@YAXAAV?$allocator@V?$basic_string@DU?$char_traits@D@std@@V?$allocator@D@2@@std@@@0@ABV10@@Z 00433310 f i RunningState.obj
 0001:00032320       ??$_Pocs@V?$allocator@V?$basic_string@DU?$char_traits@D@std@@V?$allocator@D@2@@std@@@std@@@std@@YAXAAV?$allocator@V?$basic_string@DU?$char_traits@D@std@@V?$allocator@D@2@@std@@@0@0@Z 00433320 f i RunningState.obj
 0001:000323b0       ??$_Reallocate_grow_by@V<lambda_4d79bb85f269e6e8002a4599002d832c>@@IPBDI@?$basic_string@DU?$char_traits@D@std@@V?$allocator@D@2@@std@@AAEAAV01@IV<lambda_4d79bb85f269e6e8002a4599002d832c>@@IPBDI@Z 004333b0 f i RunningState.obj
 0001:00032530       ??$_Swap_adl@PAV?$basic_string@DU?$char_traits@D@std@@V?$allocator@D@2@@std@@@std@@YAXAAPAV?$basic_string@DU?$char_traits@D@std@@V?$allocator@D@2@@0@0@Z 00433530 f i RunningState.obj
 0001:00032550       ??$_Traits_equal@U?$char_traits@D@std@@@std@@YA_NQBDI0I@Z 00433550 f i RunningState.obj
 0001:000325a0       ??$_Ucopy@PAV?$basic_string@DU?$char_traits@D@std@@V?$allocator@D@2@@std@@@?$vector@V?$basic_string@DU?$char_traits@D@std@@V?$allocator@D@2@@std@@V?$allocator@V?$basic_string@DU?$char_traits@D@std@@V?$allocator@D@2@@std@@@2@@std@@AAEPAV?$basic_string@DU?$char_traits@D@std@@V?$allocator@D@2@@1@PAV21@00@Z 004335a0 f i RunningState.obj
 0001:000325e0       ??$_Unfancy@V?$basic_string@DU?$char_traits@D@std@@V?$allocator@D@2@@std@@@std@@YAPAV?$basic_string@DU?$char_traits@D@std@@V?$allocator@D@2@@0@PAV10@@Z 004335e0 f i RunningState.obj
 0001:000325f0       ??$_Uninitialized_copy@PAV?$basic_string@DU?$char_traits@D@std@@V?$allocator@D@2@@std@@V?$allocator@V?$basic_string@DU?$char_traits@D@std@@V?$allocator@D@2@@std@@@2@@std@@YAPAV?$basic_string@DU?$char_traits@D@std@@V?$allocator@D@2@@0@QAV10@0PAV10@AAV?$allocator@V?$basic_string@DU?$char_traits@D@std@@V?$allocator@D@2@@std@@@0@@Z 004335f0 f i RunningState.obj
 0001:000326c0       ??$_Uninitialized_move@PAV?$basic_string@DU?$char_traits@D@std@@V?$allocator@D@2@@std@@V?$allocator@V?$basic_string@DU?$char_traits@D@std@@V?$allocator@D@2@@std@@@2@@std@@YAPAV?$basic_string@DU?$char_traits@D@std@@V?$allocator@D@2@@0@QAV10@0PAV10@AAV?$allocator@V?$basic_string@DU?$char_traits@D@std@@V?$allocator@D@2@@std@@@0@@Z 004336c0 f i RunningState.obj
 0001:000327a0       ??$_Verify_range@V?$basic_string@DU?$char_traits@D@std@@V?$allocator@D@2@@std@@@std@@YAXQBV?$basic_string@DU?$char_traits@D@std@@V?$allocator@D@2@@0@0@Z 004337a0 f i RunningState.obj
 0001:00032820       ??$addressof@$$CBV?$vector@V?$basic_string@DU?$char_traits@D@std@@V?$allocator@D@2@@std@@V?$allocator@V?$basic_string@DU?$char_traits@D@std@@V?$allocator@D@2@@std@@@2@@std@@@std@@YAPBV?$vector@V?$basic_string@DU?$char_traits@D@std@@V?$allocator@D@2@@std@@V?$allocator@V?$basic_string@DU?$char_traits@D@std@@V?$allocator@D@2@@std@@@2@@0@ABV10@@Z 00433820 f i RunningState.obj
 0001:00032830       ??$addressof@V?$vector@V?$basic_string@DU?$char_traits@D@std@@V?$allocator@D@2@@std@@V?$allocator@V?$basic_string@DU?$char_traits@D@std@@V?$allocator@D@2@@std@@@2@@std@@@std@@YAPAV?$vector@V?$basic_string@DU?$char_traits@D@std@@V?$allocator@D@2@@std@@V?$allocator@V?$basic_string@DU?$char_traits@D@std@@V?$allocator@D@2@@std@@@2@@0@AAV10@@Z 00433830 f i RunningState.obj
 0001:00032840       ??$advance@PAV?$basic_string@DU?$char_traits@D@std@@V?$allocator@D@2@@std@@H@std@@YAXAAPAV?$basic_string@DU?$char_traits@D@std@@V?$allocator@D@2@@0@H@Z 00433840 f i RunningState.obj
 0001:00032860       ??$assign@PAV?$basic_string@DU?$char_traits@D@std@@V?$allocator@D@2@@std@@$0A@@?$vector@V?$basic_string@DU?$char_traits@D@std@@V?$allocator@D@2@@std@@V?$allocator@V?$basic_string@DU?$char_traits@D@std@@V?$allocator@D@2@@std@@@2@@std@@QAEXPAV?$basic_string@DU?$char_traits@D@std@@V?$allocator@D@2@@1@0@Z 00433860 f i RunningState.obj
 0001:000328c0       ??$construct@V?$basic_string@DU?$char_traits@D@std@@V?$allocator@D@2@@std@@AAV12@@?$_Default_allocator_traits@V?$allocator@V?$basic_string@DU?$char_traits@D@std@@V?$allocator@D@2@@std@@@std@@@std@@SAXAAV?$allocator@V?$basic_string@DU?$char_traits@D@std@@V?$allocator@D@2@@std@@@1@QAV?$basic_string@DU?$char_traits@D@std@@V?$allocator@D@2@@1@AAV31@@Z 004338c0 f i RunningState.obj
 0001:00032900       ??$construct@V?$basic_string@DU?$char_traits@D@std@@V?$allocator@D@2@@std@@ABV12@@?$_Default_allocator_traits@V?$allocator@V?$basic_string@DU?$char_traits@D@std@@V?$allocator@D@2@@std@@@std@@@std@@SAXAAV?$allocator@V?$basic_string@DU?$char_traits@D@std@@V?$allocator@D@2@@std@@@1@QAV?$basic_string@DU?$char_traits@D@std@@V?$allocator@D@2@@1@ABV31@@Z 00433900 f i RunningState.obj
 0001:00032940       ??$construct@V?$basic_string@DU?$char_traits@D@std@@V?$allocator@D@2@@std@@V12@@?$_Default_allocator_traits@V?$allocator@V?$basic_string@DU?$char_traits@D@std@@V?$allocator@D@2@@std@@@std@@@std@@SAXAAV?$allocator@V?$basic_string@DU?$char_traits@D@std@@V?$allocator@D@2@@std@@@1@QAV?$basic_string@DU?$char_traits@D@std@@V?$allocator@D@2@@1@$$QAV31@@Z 00433940 f i RunningState.obj
 0001:00032980       ??$destroy@V?$basic_string@DU?$char_traits@D@std@@V?$allocator@D@2@@std@@@?$_Default_allocator_traits@V?$allocator@V?$basic_string@DU?$char_traits@D@std@@V?$allocator@D@2@@std@@@std@@@std@@SAXAAV?$allocator@V?$basic_string@DU?$char_traits@D@std@@V?$allocator@D@2@@std@@@1@QAV?$basic_string@DU?$char_traits@D@std@@V?$allocator@D@2@@1@@Z 00433980 f i RunningState.obj
 0001:000329a0       ??$distance@PAV?$basic_string@DU?$char_traits@D@std@@V?$allocator@D@2@@std@@@std@@YAHPAV?$basic_string@DU?$char_traits@D@std@@V?$allocator@D@2@@0@0@Z 004339a0 f i RunningState.obj
 0001:000329c0       ??$emplace_back@ABV?$basic_string@DU?$char_traits@D@std@@V?$allocator@D@2@@std@@@?$vector@V?$basic_string@DU?$char_traits@D@std@@V?$allocator@D@2@@std@@V?$allocator@V?$basic_string@DU?$char_traits@D@std@@V?$allocator@D@2@@std@@@2@@std@@QAE@ABV?$basic_string@DU?$char_traits@D@std@@V?$allocator@D@2@@1@@Z 004339c0 f i RunningState.obj
 0001:00032a40       ??$forward@ABV?$allocator@D@std@@@std@@YAABV?$allocator@D@0@ABV10@@Z 00433a40 f i RunningState.obj
 0001:00032a50       ??$forward@ABV?$basic_string@DU?$char_traits@D@std@@V?$allocator@D@2@@std@@@std@@YAABV?$basic_string@DU?$char_traits@D@std@@V?$allocator@D@2@@0@ABV10@@Z 00433a50 f i RunningState.obj
 0001:00032a60       ??$forward@V?$allocator@V?$basic_string@DU?$char_traits@D@std@@V?$allocator@D@2@@std@@@std@@@std@@YA$$QAV?$allocator@V?$basic_string@DU?$char_traits@D@std@@V?$allocator@D@2@@std@@@0@AAV10@@Z 00433a60 f i RunningState.obj
 0001:00032a70       ??$getline@DU?$char_traits@D@std@@V?$allocator@D@2@@std@@YAAAV?$basic_istream@DU?$char_traits@D@std@@@0@$$QAV10@AAV?$basic_string@DU?$char_traits@D@std@@V?$allocator@D@2@@0@D@Z 00433a70 f i RunningState.obj
 0001:00032cf0       ??$getline@DU?$char_traits@D@std@@V?$allocator@D@2@@std@@YAAAV?$basic_istream@DU?$char_traits@D@std@@@0@AAV10@AAV?$basic_string@DU?$char_traits@D@std@@V?$allocator@D@2@@0@D@Z 00433cf0 f i RunningState.obj
 0001:00032d20       ??$move@AAPAV?$basic_string@DU?$char_traits@D@std@@V?$allocator@D@2@@std@@@std@@YA$$QAPAV?$basic_string@DU?$char_traits@D@std@@V?$allocator@D@2@@0@AAPAV10@@Z 00433d20 f i RunningState.obj
 0001:00032d30       ??$next@PAV?$basic_string@DU?$char_traits@D@std@@V?$allocator@D@2@@std@@@std@@YAPAV?$basic_string@DU?$char_traits@D@std@@V?$allocator@D@2@@0@PAV10@H@Z 00433d30 f i RunningState.obj
 0001:00032d50       ??$pow@HH$0A@@@YANHH@Z     00433d50 f i RunningState.obj
 0001:00032d80       ??$swap@PAV?$basic_string@DU?$char_traits@D@std@@V?$allocator@D@2@@std@@$0A@@std@@YAXAAPAV?$basic_string@DU?$char_traits@D@std@@V?$allocator@D@2@@0@0@Z 00433d80 f i RunningState.obj
 0001:00032dd0       ??0?$_Uninitialized_backout_al@V?$allocator@V?$basic_string@DU?$char_traits@D@std@@V?$allocator@D@2@@std@@@std@@@std@@QAE@PAV?$basic_string@DU?$char_traits@D@std@@V?$allocator@D@2@@1@AAV?$allocator@V?$basic_string@DU?$char_traits@D@std@@V?$allocator@D@2@@std@@@1@@Z 00433dd0 f i RunningState.obj
 0001:00032e10       ??0?$_Vector_val@U?$_Simple_types@V?$basic_string@DU?$char_traits@D@std@@V?$allocator@D@2@@std@@@std@@@std@@QAE@XZ 00433e10 f i RunningState.obj
 0001:00032e60       ??0?$allocator@V?$basic_string@DU?$char_traits@D@std@@V?$allocator@D@2@@std@@@std@@QAE@XZ 00433e60 f i RunningState.obj
 0001:00032e80       ??0?$basic_ofstream@DU?$char_traits@D@std@@@std@@QAE@XZ 00433e80 f i RunningState.obj
 0001:00032f90       ??0?$basic_string@DU?$char_traits@D@std@@V?$allocator@D@2@@std@@QAE@ABV01@IIABV?$allocator@D@1@@Z 00433f90 f i RunningState.obj
 0001:00033080       ??0?$vector@V?$basic_string@DU?$char_traits@D@std@@V?$allocator@D@2@@std@@V?$allocator@V?$basic_string@DU?$char_traits@D@std@@V?$allocator@D@2@@std@@@2@@std@@QAE@ABV01@@Z 00434080 f i RunningState.obj
 0001:000331f0       ??0?$vector@V?$basic_string@DU?$char_traits@D@std@@V?$allocator@D@2@@std@@V?$allocator@V?$basic_string@DU?$char_traits@D@std@@V?$allocator@D@2@@std@@@2@@std@@QAE@XZ 004341f0 f i RunningState.obj
 0001:00033270       ??0Scyzc3TileManager@@QAE@XZ 00434270 f i RunningState.obj
 0001:000337c0       ??0TileManager@@QAE@HH@Z   004347c0 f i RunningState.obj
 0001:00033840       ??1?$_Tidy_guard@V?$vector@V?$basic_string@DU?$char_traits@D@std@@V?$allocator@D@2@@std@@V?$allocator@V?$basic_string@DU?$char_traits@D@std@@V?$allocator@D@2@@std@@@2@@std@@@std@@QAE@XZ 00434840 f i RunningState.obj
 0001:00033870       ??1?$_Uninitialized_backout_al@V?$allocator@V?$basic_string@DU?$char_traits@D@std@@V?$allocator@D@2@@std@@@std@@@std@@QAE@XZ 00434870 f i RunningState.obj
 0001:000338a0       ??1?$basic_ofstream@DU?$char_traits@D@std@@@std@@UAE@XZ 004348a0 f i RunningState.obj
 0001:00033910       ??1?$vector@V?$basic_string@DU?$char_traits@D@std@@V?$allocator@D@2@@std@@V?$allocator@V?$basic_string@DU?$char_traits@D@std@@V?$allocator@D@2@@std@@@2@@std@@QAE@XZ 00434910 f i RunningState.obj
 0001:00033980       ??1Scyzc3TileManager@@UAE@XZ 00434980 f i RunningState.obj
 0001:00033a60       ??1TileManager@@UAE@XZ     00434a60 f i RunningState.obj
 0001:00033ab0       ??4?$vector@V?$basic_string@DU?$char_traits@D@std@@V?$allocator@D@2@@std@@V?$allocator@V?$basic_string@DU?$char_traits@D@std@@V?$allocator@D@2@@std@@@2@@std@@QAEAAV01@ABV01@@Z 00434ab0 f i RunningState.obj
 0001:00033b00       ??A?$vector@V?$basic_string@DU?$char_traits@D@std@@V?$allocator@D@2@@std@@V?$allocator@V?$basic_string@DU?$char_traits@D@std@@V?$allocator@D@2@@std@@@2@@std@@QAEAAV?$basic_string@DU?$char_traits@D@std@@V?$allocator@D@2@@1@I@Z 00434b00 f i RunningState.obj
 0001:00033bb0       ??R<lambda_4d79bb85f269e6e8002a4599002d832c>@@QBE@QADQBDII1I@Z 00434bb0 f i RunningState.obj
 0001:00033c30       ??Y?$basic_string@DU?$char_traits@D@std@@V?$allocator@D@2@@std@@QAEAAV01@D@Z 00434c30 f i RunningState.obj
 0001:00033c60       ??_D?$basic_ofstream@DU?$char_traits@D@std@@@std@@QAEXXZ 00434c60 f i RunningState.obj
 0001:00033c8a       ??_E?$basic_ofstream@DU?$char_traits@D@std@@@std@@$4PPPPPPPM@A@AEPAXI@Z 00434c8a f i RunningState.obj
 0001:00033ca0       ??_G?$basic_ofstream@DU?$char_traits@D@std@@@std@@UAEPAXI@Z 00434ca0 f i RunningState.obj
 0001:00033ca0       ??_E?$basic_ofstream@DU?$char_traits@D@std@@@std@@UAEPAXI@Z 00434ca0 f i RunningState.obj
 0001:00033cf0       ??_G?$basic_string@DU?$char_traits@D@std@@V?$allocator@D@2@@std@@QAEPAXI@Z 00434cf0 f i RunningState.obj
 0001:00033d30       ??_EScyzc3TileManager@@UAEPAXI@Z 00434d30 f i RunningState.obj
 0001:00033d30       ??_GScyzc3TileManager@@UAEPAXI@Z 00434d30 f i RunningState.obj
 0001:00033d70       ??_ETileManager@@UAEPAXI@Z 00434d70 f i RunningState.obj
 0001:00033d70       ??_GTileManager@@UAEPAXI@Z 00434d70 f i RunningState.obj
 0001:00033db0       ?_Buy_raw@?$vector@V?$basic_string@DU?$char_traits@D@std@@V?$allocator@D@2@@std@@V?$allocator@V?$basic_string@DU?$char_traits@D@std@@V?$allocator@D@2@@std@@@2@@std@@AAEXI@Z 00434db0 f i RunningState.obj
 0001:00033e30       ?_Calculate_growth@?$vector@V?$basic_string@DU?$char_traits@D@std@@V?$allocator@D@2@@std@@V?$allocator@V?$basic_string@DU?$char_traits@D@std@@V?$allocator@D@2@@std@@@2@@std@@ABEII@Z 00434e30 f i RunningState.obj
 0001:00033ea0       ?_Change_array@?$vector@V?$basic_string@DU?$char_traits@D@std@@V?$allocator@D@2@@std@@V?$allocator@V?$basic_string@DU?$char_traits@D@std@@V?$allocator@D@2@@std@@@2@@std@@AAEXQAV?$basic_string@DU?$char_traits@D@std@@V?$allocator@D@2@@2@II@Z 00434ea0 f i RunningState.obj
 0001:00033f70       ?_Check_offset_exclusive@?$_String_val@U?$_Simple_types@D@std@@@std@@QBEXI@Z 00434f70 f i RunningState.obj
 0001:00033fa0       ?_Clear_and_reserve_geometric@?$vector@V?$basic_string@DU?$char_traits@D@std@@V?$allocator@D@2@@std@@V?$allocator@V?$basic_string@DU?$char_traits@D@std@@V?$allocator@D@2@@std@@@2@@std@@AAEXI@Z 00434fa0 f i RunningState.obj
 0001:00034090       ?_Copy_assign@?$vector@V?$basic_string@DU?$char_traits@D@std@@V?$allocator@D@2@@std@@V?$allocator@V?$basic_string@DU?$char_traits@D@std@@V?$allocator@D@2@@std@@@2@@std@@AAEXABV12@U?$integral_constant@_N$0A@@2@@Z 00435090 f i RunningState.obj
 0001:000340f0       ?_Destroy@?$vector@V?$basic_string@DU?$char_traits@D@std@@V?$allocator@D@2@@std@@V?$allocator@V?$basic_string@DU?$char_traits@D@std@@V?$allocator@D@2@@std@@@2@@std@@AAEXPAV?$basic_string@DU?$char_traits@D@std@@V?$allocator@D@2@@2@0@Z 004350f0 f i RunningState.obj
 0001:00034120       ?_Equal@?$basic_string@DU?$char_traits@D@std@@V?$allocator@D@2@@std@@QBE_NQBD@Z 00435120 f i RunningState.obj
 0001:00034170       ?_Get_first@?$_Compressed_pair@V?$allocator@V?$basic_string@DU?$char_traits@D@std@@V?$allocator@D@2@@std@@@std@@V?$_Vector_val@U?$_Simple_types@V?$basic_string@DU?$char_traits@D@std@@V?$allocator@D@2@@std@@@std@@@2@$00@std@@QAEAAV?$allocator@V?$basic_string@DU?$char_traits@D@std@@V?$allocator@D@2@@std@@@2@XZ 00435170 f i RunningState.obj
 0001:00034190       ?_Get_first@?$_Compressed_pair@V?$allocator@V?$basic_string@DU?$char_traits@D@std@@V?$allocator@D@2@@std@@@std@@V?$_Vector_val@U?$_Simple_types@V?$basic_string@DU?$char_traits@D@std@@V?$allocator@D@2@@std@@@std@@@2@$00@std@@QBEABV?$allocator@V?$basic_string@DU?$char_traits@D@std@@V?$allocator@D@2@@std@@@2@XZ 00435190 f i RunningState.obj
 0001:000341b0       ?_Getal@?$vector@V?$basic_string@DU?$char_traits@D@std@@V?$allocator@D@2@@std@@V?$allocator@V?$basic_string@DU?$char_traits@D@std@@V?$allocator@D@2@@std@@@2@@std@@AAEAAV?$allocator@V?$basic_string@DU?$char_traits@D@std@@V?$allocator@D@2@@std@@@2@XZ 004351b0 f i RunningState.obj
 0001:000341d0       ?_Getal@?$vector@V?$basic_string@DU?$char_traits@D@std@@V?$allocator@D@2@@std@@V?$allocator@V?$basic_string@DU?$char_traits@D@std@@V?$allocator@D@2@@std@@@2@@std@@ABEABV?$allocator@V?$basic_string@DU?$char_traits@D@std@@V?$allocator@D@2@@std@@@2@XZ 004351d0 f i RunningState.obj
 0001:000341f0       ?_Orphan_range@?$vector@V?$basic_string@DU?$char_traits@D@std@@V?$allocator@D@2@@std@@V?$allocator@V?$basic_string@DU?$char_traits@D@std@@V?$allocator@D@2@@std@@@2@@std@@ABEXPAV?$basic_string@DU?$char_traits@D@std@@V?$allocator@D@2@@2@0@Z 004351f0 f i RunningState.obj
 0001:00034290       ?_Release@?$_Uninitialized_backout_al@V?$allocator@V?$basic_string@DU?$char_traits@D@std@@V?$allocator@D@2@@std@@@std@@@std@@QAEPAV?$basic_string@DU?$char_traits@D@std@@V?$allocator@D@2@@2@XZ 00435290 f i RunningState.obj
 0001:000342c0       ?_Swap_val@?$_Vector_val@U?$_Simple_types@V?$basic_string@DU?$char_traits@D@std@@V?$allocator@D@2@@std@@@std@@@std@@QAEXAAV12@@Z 004352c0 f i RunningState.obj
 0001:00034340       ?_Tidy@?$vector@V?$basic_string@DU?$char_traits@D@std@@V?$allocator@D@2@@std@@V?$allocator@V?$basic_string@DU?$char_traits@D@std@@V?$allocator@D@2@@std@@@2@@std@@AAEXXZ 00435340 f i RunningState.obj
 0001:00034440       ?_Umove@?$vector@V?$basic_string@DU?$char_traits@D@std@@V?$allocator@D@2@@std@@V?$allocator@V?$basic_string@DU?$char_traits@D@std@@V?$allocator@D@2@@std@@@2@@std@@AAEPAV?$basic_string@DU?$char_traits@D@std@@V?$allocator@D@2@@2@PAV32@00@Z 00435440 f i RunningState.obj
 0001:00034480       ?_Umove_if_noexcept1@?$vector@V?$basic_string@DU?$char_traits@D@std@@V?$allocator@D@2@@std@@V?$allocator@V?$basic_string@DU?$char_traits@D@std@@V?$allocator@D@2@@std@@@2@@std@@AAEXPAV?$basic_string@DU?$char_traits@D@std@@V?$allocator@D@2@@2@00U?$integral_constant@_N$00@2@@Z 00435480 f i RunningState.obj
 0001:000344c0       ?_Umove_if_noexcept@?$vector@V?$basic_string@DU?$char_traits@D@std@@V?$allocator@D@2@@std@@V?$allocator@V?$basic_string@DU?$char_traits@D@std@@V?$allocator@D@2@@std@@@2@@std@@AAEXPAV?$basic_string@DU?$char_traits@D@std@@V?$allocator@D@2@@2@00@Z 004354c0 f i RunningState.obj
 0001:00034500       ?_Xlength@?$vector@V?$basic_string@DU?$char_traits@D@std@@V?$allocator@D@2@@std@@V?$allocator@V?$basic_string@DU?$char_traits@D@std@@V?$allocator@D@2@@std@@@2@@std@@CAXXZ 00435500 f i RunningState.obj
 0001:00034520       ?allocate@?$allocator@V?$basic_string@DU?$char_traits@D@std@@V?$allocator@D@2@@std@@@std@@QAEPAV?$basic_string@DU?$char_traits@D@std@@V?$allocator@D@2@@2@I@Z 00435520 f i RunningState.obj
 0001:00034550       ?assign@?$basic_string@DU?$char_traits@D@std@@V?$allocator@D@2@@std@@QAEAAV12@ABV12@II@Z 00435550 f i RunningState.obj
 0001:000345b0       ?at@?$basic_string@DU?$char_traits@D@std@@V?$allocator@D@2@@std@@QAEAADI@Z 004355b0 f i RunningState.obj
 0001:000345e0       ?capacity@?$vector@V?$basic_string@DU?$char_traits@D@std@@V?$allocator@D@2@@std@@V?$allocator@V?$basic_string@DU?$char_traits@D@std@@V?$allocator@D@2@@std@@@2@@std@@QBEIXZ 004355e0 f i RunningState.obj
 0001:00034610       ?clear@?$vector@V?$basic_string@DU?$char_traits@D@std@@V?$allocator@D@2@@std@@V?$allocator@V?$basic_string@DU?$char_traits@D@std@@V?$allocator@D@2@@std@@@2@@std@@QAEXXZ 00435610 f i RunningState.obj
 0001:000346b0       ?close@?$basic_ofstream@DU?$char_traits@D@std@@@std@@QAEXXZ 004356b0 f i RunningState.obj
 0001:000346f0       ?deallocate@?$allocator@V?$basic_string@DU?$char_traits@D@std@@V?$allocator@D@2@@std@@@std@@QAEXQAV?$basic_string@DU?$char_traits@D@std@@V?$allocator@D@2@@2@I@Z 004356f0 f i RunningState.obj
 0001:00034720       ?getBgm@Scyzc3Engine@@QAEPAVBgm@@XZ 00435720 f i RunningState.obj
 0001:00034740       ?getLoad@Scyzc3Engine@@QAEHXZ 00435740 f i RunningState.obj
 0001:00034760       ?getMapId@Scyzc3Engine@@QAEHXZ 00435760 f i RunningState.obj
 0001:00034780       ?getMaxHp@MovingPokemon2@@QAEHXZ 00435780 f i RunningState.obj
 0001:000347a0       ?getMaxHp@MovingPokemon@@QAEHXZ 004357a0 f i RunningState.obj
 0001:000347c0       ?getName1@Scyzc3Engine@@QAE?AV?$basic_string@DU?$char_traits@D@std@@V?$allocator@D@2@@std@@XZ 004357c0 f i RunningState.obj
 0001:00034800       ?getName2@Scyzc3Engine@@QAE?AV?$basic_string@DU?$char_traits@D@std@@V?$allocator@D@2@@std@@XZ 00435800 f i RunningState.obj
 0001:00034840       ?getRunTime@Scyzc3Engine@@QAENXZ 00435840 f i RunningState.obj
 0001:00034860       ?get_allocator@?$basic_string@DU?$char_traits@D@std@@V?$allocator@D@2@@std@@QBE?AV?$allocator@D@2@XZ 00435860 f i RunningState.obj
 0001:00034880       ?insert@?$basic_string@DU?$char_traits@D@std@@V?$allocator@D@2@@std@@QAEAAV12@IQBD@Z 00435880 f i RunningState.obj
 0001:000348c0       ?insert@?$basic_string@DU?$char_traits@D@std@@V?$allocator@D@2@@std@@QAEAAV12@IQBDI@Z 004358c0 f i RunningState.obj
 0001:00034a10       ?length@?$basic_string@DU?$char_traits@D@std@@V?$allocator@D@2@@std@@QBEIXZ 00435a10 f i RunningState.obj
 0001:00034a30       ?max_size@?$_Default_allocator_traits@V?$allocator@V?$basic_string@DU?$char_traits@D@std@@V?$allocator@D@2@@std@@@std@@@std@@SAIABV?$allocator@V?$basic_string@DU?$char_traits@D@std@@V?$allocator@D@2@@std@@@2@@Z 00435a30 f i RunningState.obj
 0001:00034a40       ?max_size@?$vector@V?$basic_string@DU?$char_traits@D@std@@V?$allocator@D@2@@std@@V?$allocator@V?$basic_string@DU?$char_traits@D@std@@V?$allocator@D@2@@std@@@2@@std@@QBEIXZ 00435a40 f i RunningState.obj
 0001:00034a90       ?open@?$basic_ofstream@DU?$char_traits@D@std@@@std@@QAEXPBDHH@Z 00435a90 f i RunningState.obj
 0001:00034b10       ?push_back@?$vector@V?$basic_string@DU?$char_traits@D@std@@V?$allocator@D@2@@std@@V?$allocator@V?$basic_string@DU?$char_traits@D@std@@V?$allocator@D@2@@std@@@2@@std@@QAEXABV?$basic_string@DU?$char_traits@D@std@@V?$allocator@D@2@@2@@Z 00435b10 f i RunningState.obj
 0001:00034b30       ?select_on_container_copy_construction@?$_Default_allocator_traits@V?$allocator@V?$basic_string@DU?$char_traits@D@std@@V?$allocator@D@2@@std@@@std@@@std@@SA?AV?$allocator@V?$basic_string@DU?$char_traits@D@std@@V?$allocator@D@2@@std@@@2@ABV32@@Z 00435b30 f i RunningState.obj
 0001:00034b40       ?setFly@MovingPokemon2@@QAEX_N@Z 00435b40 f i RunningState.obj
 0001:00034b60       ?setMapSize@TileManager@@QAEXHH@Z 00435b60 f i RunningState.obj
 0001:00034c10       ?setMaxHp@MovingPokemon2@@QAEXH@Z 00435c10 f i RunningState.obj
 0001:00034c30       ?setMaxHp@MovingPokemon@@QAEXH@Z 00435c30 f i RunningState.obj
 0001:00034c50       ?setObjectID@bullet@@QAEXH@Z 00435c50 f i RunningState.obj
 0001:00034c70       ?setPlayer@MovingPokemon2@@QAEXPAVScyzc3Object@@@Z 00435c70 f i RunningState.obj
 0001:00034c90       ?setPlayer@MovingPokemon@@QAEXPAVScyzc3Object@@@Z 00435c90 f i RunningState.obj
 0001:00034cb0       ?setSpeed@MovingPokemon2@@QAEXH@Z 00435cb0 f i RunningState.obj
 0001:00034cd0       ?setSpeed@MovingPokemon@@QAEXH@Z 00435cd0 f i RunningState.obj
 0001:00034cf0       ?setWinId@Scyzc3Engine@@QAEXH@Z 00435cf0 f i RunningState.obj
 0001:00034d10       ?setWinScore@Scyzc3Engine@@QAEXH@Z 00435d10 f i RunningState.obj
 0001:00034d30       ?size@?$vector@V?$basic_string@DU?$char_traits@D@std@@V?$allocator@D@2@@std@@V?$allocator@V?$basic_string@DU?$char_traits@D@std@@V?$allocator@D@2@@std@@@2@@std@@QBEIXZ 00435d30 f i RunningState.obj
 0001:00034d60       ?substr@?$basic_string@DU?$char_traits@D@std@@V?$allocator@D@2@@std@@QBE?AV12@II@Z 00435d60 f i RunningState.obj
 0001:00034dc0       ?swap@?$vector@V?$basic_string@DU?$char_traits@D@std@@V?$allocator@D@2@@std@@V?$allocator@V?$basic_string@DU?$char_traits@D@std@@V?$allocator@D@2@@std@@@2@@std@@QAEXAAV12@@Z 00435dc0 f i RunningState.obj
 0001:00034e20       ?unpause@BaseEngine@@QAEXXZ 00435e20 f i RunningState.obj
 0001:00034e70       ?Handle@SaveState@@UAEXPAVContext@@@Z 00435e70 f   SaveState.obj
 0001:00034ea0       ??0SaveState@@QAE@PAVScyzc3Engine@@@Z 00435ea0 f   SaveState.obj
 0001:00034fc0       ??1SaveState@@QAE@XZ       00435fc0 f   SaveState.obj
 0001:00035060       ?virtSetupBackgroundBuffer@SaveState@@UAEXXZ 00436060 f   SaveState.obj
 0001:000350e0       ?virtMouseDown@SaveState@@UAEXHHH@Z 004360e0 f   SaveState.obj
 0001:000351f0       ?virtInitialiseObjects@SaveState@@UAEHXZ 004361f0 f   SaveState.obj
 0001:00035200       ?virtDrawStringsOnTop@SaveState@@UAEXXZ 00436200 f   SaveState.obj
 0001:00035590       ?virtKeyDown@SaveState@@UAEXH@Z 00436590 f   SaveState.obj
 0001:000355b0       ?saveGame@SaveState@@QAEXH@Z 004365b0 f   SaveState.obj
 0001:00035b50       ?loadInfo@SaveState@@QAEXH@Z 00436b50 f   SaveState.obj
 0001:00036670       ?copyAllBackgroundBuffer@SaveState@@UAEXXZ 00437670 f   SaveState.obj
 0001:00036cb0       ?Handle@ScoreState@@UAEXPAVContext@@@Z 00437cb0 f   ScoreState.obj
 0001:00036ce0       ??0ScoreState@@QAE@PAVScyzc3Engine@@@Z 00437ce0 f   ScoreState.obj
 0001:00036ea0       ??1ScoreState@@QAE@XZ      00437ea0 f   ScoreState.obj
 0001:00036f30       ?virtSetupBackgroundBuffer@ScoreState@@UAEXXZ 00437f30 f   ScoreState.obj
 0001:00037010       ?virtMouseDown@ScoreState@@UAEXHHH@Z 00438010 f   ScoreState.obj
 0001:00037110       ?virtMouseWheel@ScoreState@@UAEXHHHH@Z 00438110 f   ScoreState.obj
 0001:00037190       ?virtDrawStringsOnTop@ScoreState@@UAEXXZ 00438190 f   ScoreState.obj
 0001:00037370       ?virtKeyDown@ScoreState@@UAEXH@Z 00438370 f   ScoreState.obj
 0001:00037540       ?readScore@ScoreState@@QAEXXZ 00438540 f   ScoreState.obj
 0001:00037820       ?virtMainLoopDoBeforeUpdate@ScoreState@@UAEXXZ 00438820 f   ScoreState.obj
 0001:00037870       ?copyAllBackgroundBuffer@ScoreState@@UAEXXZ 00438870 f   ScoreState.obj
 0001:00037930       ?virtMouseMoved@ScoreState@@UAEXHH@Z 00438930 f   ScoreState.obj
 0001:00037d00       ??$?0$$V@?$_Compressed_pair@V?$allocator@U?$pair@V?$basic_string@DU?$char_traits@D@std@@V?$allocator@D@2@@std@@H@std@@@std@@V?$_Vector_val@U?$_Simple_types@U?$pair@V?$basic_string@DU?$char_traits@D@std@@V?$allocator@D@2@@std@@H@std@@@std@@@2@$00@std@@QAE@U_Zero_then_variadic_args_t@1@@Z 00438d00 f i ScoreState.obj
 0001:00037d30       ??$?0AAPAU?$_List_node@U?$pair@$$CBV?$basic_string@DU?$char_traits@D@std@@V?$allocator@D@2@@std@@H@std@@PAX@std@@_N$0A@@?$pair@PAU?$_List_node@U?$pair@$$CBV?$basic_string@DU?$char_traits@D@std@@V?$allocator@D@2@@std@@H@std@@PAX@std@@_N@std@@QAE@AAPAU?$_List_node@U?$pair@$$CBV?$basic_string@DU?$char_traits@D@std@@V?$allocator@D@2@@std@@H@std@@PAX@1@$$QA_N@Z 00438d30 f i ScoreState.obj
 0001:00037d80       ??$?0AAPAU?$pair@V?$basic_string@DU?$char_traits@D@std@@V?$allocator@D@2@@std@@H@std@@AAPAU01@$0A@@?$pair@PAU?$pair@V?$basic_string@DU?$char_traits@D@std@@V?$allocator@D@2@@std@@H@std@@PAU12@@std@@QAE@AAPAU?$pair@V?$basic_string@DU?$char_traits@D@std@@V?$allocator@D@2@@std@@H@1@0@Z 00438d80 f i ScoreState.obj
 0001:00037dd0       ??$?0ABU?$pair@$$CBV?$basic_string@DU?$char_traits@D@std@@V?$allocator@D@2@@std@@H@std@@@?$_List_node_emplace_op2@V?$allocator@U?$_List_node@U?$pair@$$CBV?$basic_string@DU?$char_traits@D@std@@V?$allocator@D@2@@std@@H@std@@PAX@std@@@std@@@std@@QAE@AAV?$allocator@U?$_List_node@U?$pair@$$CBV?$basic_string@DU?$char_traits@D@std@@V?$allocator@D@2@@std@@H@std@@PAX@std@@@1@ABU?$pair@$$CBV?$basic_string@DU?$char_traits@D@std@@V?$allocator@D@2@@std@@H@1@@Z 00438dd0 f i ScoreState.obj
 0001:00037e80       ??$?0ABUpiecewise_construct_t@std@@V?$tuple@ABV?$basic_string@DU?$char_traits@D@std@@V?$allocator@D@2@@std@@@1@V?$tuple@$$V@1@@?$_List_node_emplace_op2@V?$allocator@U?$_List_node@U?$pair@$$CBV?$basic_string@DU?$char_traits@D@std@@V?$allocator@D@2@@std@@H@std@@PAX@std@@@std@@@std@@QAE@AAV?$allocator@U?$_List_node@U?$pair@$$CBV?$basic_string@DU?$char_traits@D@std@@V?$allocator@D@2@@std@@H@std@@PAX@std@@@1@ABUpiecewise_construct_t@1@$$QAV?$tuple@ABV?$basic_string@DU?$char_traits@D@std@@V?$allocator@D@2@@std@@@1@$$QAV?$tuple@$$V@1@@Z 00438e80 f i ScoreState.obj
 0001:00037f50       ??$?0ABV?$allocator@U?$_List_node@U?$pair@$$CBV?$basic_string@DU?$char_traits@D@std@@V?$allocator@D@2@@std@@H@std@@PAX@std@@@std@@$$V@?$_Compressed_pair@V?$allocator@V?$_List_unchecked_iterator@V?$_List_val@U?$_List_simple_types@U?$pair@$$CBV?$basic_string@DU?$char_traits@D@std@@V?$allocator@D@2@@std@@H@std@@@std@@@std@@@std@@@std@@V?$_Vector_val@U?$_Simple_types@V?$_List_unchecked_iterator@V?$_List_val@U?$_List_simple_types@U?$pair@$$CBV?$basic_string@DU?$char_traits@D@std@@V?$allocator@D@2@@std@@H@std@@@std@@@std@@@std@@@std@@@2@$00@std@@QAE@U_One_then_variadic_args_t@1@ABV?$allocator@U?$_List_node@U?$pair@$$CBV?$basic_string@DU?$char_traits@D@std@@V?$allocator@D@2@@std@@H@std@@PAX@std@@@1@@Z 00438f50 f i ScoreState.obj
 0001:00037f90       ??$?0ABV?$allocator@U?$_List_node@U?$pair@$$CBV?$basic_string@DU?$char_traits@D@std@@V?$allocator@D@2@@std@@H@std@@PAX@std@@@std@@$0A@@?$_Hash_vec@V?$allocator@V?$_List_unchecked_iterator@V?$_List_val@U?$_List_simple_types@U?$pair@$$CBV?$basic_string@DU?$char_traits@D@std@@V?$allocator@D@2@@std@@H@std@@@std@@@std@@@std@@@std@@@std@@QAE@ABV?$allocator@U?$_List_node@U?$pair@$$CBV?$basic_string@DU?$char_traits@D@std@@V?$allocator@D@2@@std@@H@std@@PAX@std@@@1@@Z 00438f90 f i ScoreState.obj
 0001:00038030       ??$?0ABV?$allocator@U?$pair@$$CBV?$basic_string@DU?$char_traits@D@std@@V?$allocator@D@2@@std@@H@std@@@std@@$$V@?$_Compressed_pair@V?$allocator@U?$_List_node@U?$pair@$$CBV?$basic_string@DU?$char_traits@D@std@@V?$allocator@D@2@@std@@H@std@@PAX@std@@@std@@V?$_List_val@U?$_List_simple_types@U?$pair@$$CBV?$basic_string@DU?$char_traits@D@std@@V?$allocator@D@2@@std@@H@std@@@std@@@2@$00@std@@QAE@U_One_then_variadic_args_t@1@ABV?$allocator@U?$pair@$$CBV?$basic_string@DU?$char_traits@D@std@@V?$allocator@D@2@@std@@H@std@@@1@@Z 00439030 f i ScoreState.obj
 0001:00038070       ??$?0ABV?$allocator@U?$pair@$$CBV?$basic_string@DU?$char_traits@D@std@@V?$allocator@D@2@@std@@H@std@@@std@@$$V@?$_Compressed_pair@V?$allocator@V?$_List_unchecked_iterator@V?$_List_val@U?$_List_simple_types@U?$pair@$$CBV?$basic_string@DU?$char_traits@D@std@@V?$allocator@D@2@@std@@H@std@@@std@@@std@@@std@@@std@@V?$_Vector_val@U?$_Simple_types@V?$_List_unchecked_iterator@V?$_List_val@U?$_List_simple_types@U?$pair@$$CBV?$basic_string@DU?$char_traits@D@std@@V?$allocator@D@2@@std@@H@std@@@std@@@std@@@std@@@std@@@2@$00@std@@QAE@U_One_then_variadic_args_t@1@ABV?$allocator@U?$pair@$$CBV?$basic_string@DU?$char_traits@D@std@@V?$allocator@D@2@@std@@H@std@@@1@@Z 00439070 f i ScoreState.obj
 0001:000380b0       ??$?0ABV?$allocator@U?$pair@$$CBV?$basic_string@DU?$char_traits@D@std@@V?$allocator@D@2@@std@@H@std@@@std@@$0A@@?$_Hash_vec@V?$allocator@V?$_List_unchecked_iterator@V?$_List_val@U?$_List_simple_types@U?$pair@$$CBV?$basic_string@DU?$char_traits@D@std@@V?$allocator@D@2@@std@@H@std@@@std@@@std@@@std@@@std@@@std@@QAE@ABV?$allocator@U?$pair@$$CBV?$basic_string@DU?$char_traits@D@std@@V?$allocator@D@2@@std@@H@std@@@1@@Z 004390b0 f i ScoreState.obj
 0001:00038150       ??$?0ABV?$basic_string@DU?$char_traits@D@std@@V?$allocator@D@2@@std@@$$Z$$V@?$pair@$$CBV?$basic_string@DU?$char_traits@D@std@@V?$allocator@D@2@@std@@H@std@@QAE@Upiecewise_construct_t@1@V?$tuple@ABV?$basic_string@DU?$char_traits@D@std@@V?$allocator@D@2@@std@@@1@V?$tuple@$$V@1@@Z 00439150 f i ScoreState.obj
 0001:000381a0       ??$?0ABV?$basic_string@DU?$char_traits@D@std@@V?$allocator@D@2@@std@@$0A@@?$tuple@ABV?$basic_string@DU?$char_traits@D@std@@V?$allocator@D@2@@std@@@std@@QAE@ABV?$basic_string@DU?$char_traits@D@std@@V?$allocator@D@2@@1@@Z 004391a0 f i ScoreState.obj
 0001:00038210       ??$?0ABV?$basic_string@DU?$char_traits@D@std@@V?$allocator@D@2@@std@@@?$_Tuple_val@ABV?$basic_string@DU?$char_traits@D@std@@V?$allocator@D@2@@std@@@std@@QAE@ABV?$basic_string@DU?$char_traits@D@std@@V?$allocator@D@2@@1@@Z 00439210 f i ScoreState.obj
 0001:00038240       ??$?0ABV?$basic_string@DU?$char_traits@D@std@@V?$allocator@D@2@@std@@AAH$0A@@?$pair@V?$basic_string@DU?$char_traits@D@std@@V?$allocator@D@2@@std@@H@std@@QAE@ABV?$basic_string@DU?$char_traits@D@std@@V?$allocator@D@2@@1@AAH@Z 00439240 f i ScoreState.obj
 0001:00038290       ??$?0M@?$_Compressed_pair@U?$equal_to@V?$basic_string@DU?$char_traits@D@std@@V?$allocator@D@2@@std@@@std@@M$00@std@@QAE@U_Zero_then_variadic_args_t@1@$$QAM@Z 00439290 f i ScoreState.obj
 0001:000382c0       ??$?0PAU?$_List_node@U?$pair@$$CBV?$basic_string@DU?$char_traits@D@std@@V?$allocator@D@2@@std@@H@std@@PAX@std@@_N$0A@@?$pair@PAU?$_List_node@U?$pair@$$CBV?$basic_string@DU?$char_traits@D@std@@V?$allocator@D@2@@std@@H@std@@PAX@std@@_N@std@@QAE@$$QAPAU?$_List_node@U?$pair@$$CBV?$basic_string@DU?$char_traits@D@std@@V?$allocator@D@2@@std@@H@std@@PAX@1@$$QA_N@Z 004392c0 f i ScoreState.obj
 0001:00038310       ??$?0U?$_List_node@U?$pair@$$CBV?$basic_string@DU?$char_traits@D@std@@V?$allocator@D@2@@std@@H@std@@PAX@std@@@?$allocator@U?$pair@$$CBV?$basic_string@DU?$char_traits@D@std@@V?$allocator@D@2@@std@@H@std@@@std@@QAE@ABV?$allocator@U?$_List_node@U?$pair@$$CBV?$basic_string@DU?$char_traits@D@std@@V?$allocator@D@2@@std@@H@std@@PAX@std@@@1@@Z 00439310 f i ScoreState.obj
 0001:00038330       ??$?0U?$_List_node@U?$pair@$$CBV?$basic_string@DU?$char_traits@D@std@@V?$allocator@D@2@@std@@H@std@@PAX@std@@@?$allocator@U_Container_proxy@std@@@std@@QAE@ABV?$allocator@U?$_List_node@U?$pair@$$CBV?$basic_string@DU?$char_traits@D@std@@V?$allocator@D@2@@std@@H@std@@PAX@std@@@1@@Z 00439330 f i ScoreState.obj
 0001:00038350       ??$?0U?$_List_node@U?$pair@$$CBV?$basic_string@DU?$char_traits@D@std@@V?$allocator@D@2@@std@@H@std@@PAX@std@@@?$allocator@V?$_List_unchecked_iterator@V?$_List_val@U?$_List_simple_types@U?$pair@$$CBV?$basic_string@DU?$char_traits@D@std@@V?$allocator@D@2@@std@@H@std@@@std@@@std@@@std@@@std@@QAE@ABV?$allocator@U?$_List_node@U?$pair@$$CBV?$basic_string@DU?$char_traits@D@std@@V?$allocator@D@2@@std@@H@std@@PAX@std@@@1@@Z 00439350 f i ScoreState.obj
 0001:00038370       ??$?0U?$pair@$$CBV?$basic_string@DU?$char_traits@D@std@@V?$allocator@D@2@@std@@H@std@@@?$allocator@U?$_List_node@U?$pair@$$CBV?$basic_string@DU?$char_traits@D@std@@V?$allocator@D@2@@std@@H@std@@PAX@std@@@std@@QAE@ABV?$allocator@U?$pair@$$CBV?$basic_string@DU?$char_traits@D@std@@V?$allocator@D@2@@std@@H@std@@@1@@Z 00439370 f i ScoreState.obj
 0001:00038390       ??$?0U?$pair@$$CBV?$basic_string@DU?$char_traits@D@std@@V?$allocator@D@2@@std@@H@std@@@?$allocator@V?$_List_unchecked_iterator@V?$_List_val@U?$_List_simple_types@U?$pair@$$CBV?$basic_string@DU?$char_traits@D@std@@V?$allocator@D@2@@std@@H@std@@@std@@@std@@@std@@@std@@QAE@ABV?$allocator@U?$pair@$$CBV?$basic_string@DU?$char_traits@D@std@@V?$allocator@D@2@@std@@H@std@@@1@@Z 00439390 f i ScoreState.obj
 0001:000383b0       ??$?0U?$pair@V?$basic_string@DU?$char_traits@D@std@@V?$allocator@D@2@@std@@H@std@@@?$allocator@U_Container_proxy@std@@@std@@QAE@ABV?$allocator@U?$pair@V?$basic_string@DU?$char_traits@D@std@@V?$allocator@D@2@@std@@H@std@@@1@@Z 004393b0 f i ScoreState.obj
 0001:000383d0       ??$?0U_Exact_args_t@std@@$0A@@?$tuple@$$V@std@@QAE@U_Exact_args_t@1@@Z 004393d0 f i ScoreState.obj
 0001:000383f0       ??$?0U_Exact_args_t@std@@ABV?$basic_string@DU?$char_traits@D@std@@V?$allocator@D@2@@1@$$V$0A@@?$tuple@ABV?$basic_string@DU?$char_traits@D@std@@V?$allocator@D@2@@std@@@std@@QAE@U_Exact_args_t@1@ABV?$basic_string@DU?$char_traits@D@std@@V?$allocator@D@2@@1@@Z 004393f0 f i ScoreState.obj
 0001:00038440       ??$?0U_Zero_then_variadic_args_t@std@@M@?$_Compressed_pair@U?$hash@V?$basic_string@DU?$char_traits@D@std@@V?$allocator@D@2@@std@@@std@@V?$_Compressed_pair@U?$equal_to@V?$basic_string@DU?$char_traits@D@std@@V?$allocator@D@2@@std@@@std@@M$00@2@$00@std@@QAE@U_Zero_then_variadic_args_t@1@$$QAU21@$$QAM@Z 00439440 f i ScoreState.obj
 0001:00038490       ??$?0V?$_List_iterator@V?$_List_val@U?$_List_simple_types@U?$pair@$$CBV?$basic_string@DU?$char_traits@D@std@@V?$allocator@D@2@@std@@H@std@@@std@@@std@@@std@@_N$0A@@?$pair@V?$_List_iterator@V?$_List_val@U?$_List_simple_types@U?$pair@$$CBV?$basic_string@DU?$char_traits@D@std@@V?$allocator@D@2@@std@@H@std@@@std@@@std@@@std@@_N@std@@QAE@$$QAV?$_List_iterator@V?$_List_val@U?$_List_simple_types@U?$pair@$$CBV?$basic_string@DU?$char_traits@D@std@@V?$allocator@D@2@@std@@H@std@@@std@@@std@@@1@$$QA_N@Z 00439490 f i ScoreState.obj
 0001:000384e0       ??$?0V?$_List_unchecked_iterator@V?$_List_val@U?$_List_simple_types@U?$pair@$$CBV?$basic_string@DU?$char_traits@D@std@@V?$allocator@D@2@@std@@H@std@@@std@@@std@@@std@@@?$allocator@U_Container_proxy@std@@@std@@QAE@ABV?$allocator@V?$_List_unchecked_iterator@V?$_List_val@U?$_List_simple_types@U?$pair@$$CBV?$basic_string@DU?$char_traits@D@std@@V?$allocator@D@2@@std@@H@std@@@std@@@std@@@std@@@1@@Z 004394e0 f i ScoreState.obj
 0001:00038500       ??$?0V?$allocator@U?$_List_node@U?$pair@$$CBV?$basic_string@DU?$char_traits@D@std@@V?$allocator@D@2@@std@@H@std@@PAX@std@@@std@@@?$_Hash@V?$_Umap_traits@V?$basic_string@DU?$char_traits@D@std@@V?$allocator@D@2@@std@@HV?$_Uhash_compare@V?$basic_string@DU?$char_traits@D@std@@V?$allocator@D@2@@std@@U?$hash@V?$basic_string@DU?$char_traits@D@std@@V?$allocator@D@2@@std@@@2@U?$equal_to@V?$basic_string@DU?$char_traits@D@std@@V?$allocator@D@2@@std@@@2@@2@V?$allocator@U?$pair@$$CBV?$basic_string@DU?$char_traits@D@std@@V?$allocator@D@2@@std@@H@std@@@2@$0A@@std@@@std@@IAE@ABV01@ABV?$allocator@U?$_List_node@U?$pair@$$CBV?$basic_string@DU?$char_traits@D@std@@V?$allocator@D@2@@std@@H@std@@PAX@std@@@1@@Z 00439500 f i ScoreState.obj
 0001:00038620       ??$?0V?$allocator@U?$pair@V?$basic_string@DU?$char_traits@D@std@@V?$allocator@D@2@@std@@H@std@@@std@@$$V@?$_Compressed_pair@V?$allocator@U?$pair@V?$basic_string@DU?$char_traits@D@std@@V?$allocator@D@2@@std@@H@std@@@std@@V?$_Vector_val@U?$_Simple_types@U?$pair@V?$basic_string@DU?$char_traits@D@std@@V?$allocator@D@2@@std@@H@std@@@std@@@2@$00@std@@QAE@U_One_then_variadic_args_t@1@$$QAV?$allocator@U?$pair@V?$basic_string@DU?$char_traits@D@std@@V?$allocator@D@2@@std@@H@std@@@1@@Z 00439620 f i ScoreState.obj
 0001:00038650       ??$?0V?$tuple@ABV?$basic_string@DU?$char_traits@D@std@@V?$allocator@D@2@@std@@@std@@V?$tuple@$$V@1@$0A@$$Z$S@?$pair@$$CBV?$basic_string@DU?$char_traits@D@std@@V?$allocator@D@2@@std@@H@std@@QAE@AAV?$tuple@ABV?$basic_string@DU?$char_traits@D@std@@V?$allocator@D@2@@std@@@1@AAV?$tuple@$$V@1@U?$integer_sequence@I$0A@@1@U?$integer_sequence@I$S@1@@Z 00439650 f i ScoreState.obj
 0001:000386a0       ??$?4U?$pair@V?$basic_string@DU?$char_traits@D@std@@V?$allocator@D@2@@std@@H@std@@$0A@@?$pair@V?$basic_string@DU?$char_traits@D@std@@V?$allocator@D@2@@std@@H@std@@QAEAAU01@$$QAU01@@Z 004396a0 f i ScoreState.obj
 0001:000386f0       ??$?8DD@std@@YA_NABV?$allocator@D@0@0@Z 004396f0 f i ScoreState.obj
 0001:00038700       ??$?8DU?$char_traits@D@std@@V?$allocator@D@1@@std@@YA_NABV?$basic_string@DU?$char_traits@D@std@@V?$allocator@D@2@@0@0@Z 00439700 f i ScoreState.obj
 0001:00038720       ??$?RV?$basic_string@DU?$char_traits@D@std@@V?$allocator@D@2@@std@@@?$_Uhash_compare@V?$basic_string@DU?$char_traits@D@std@@V?$allocator@D@2@@std@@U?$hash@V?$basic_string@DU?$char_traits@D@std@@V?$allocator@D@2@@std@@@2@U?$equal_to@V?$basic_string@DU?$char_traits@D@std@@V?$allocator@D@2@@std@@@2@@std@@QBEIABV?$basic_string@DU?$char_traits@D@std@@V?$allocator@D@2@@1@@Z 00439720 f i ScoreState.obj
 0001:00038750       ??$?RV?$basic_string@DU?$char_traits@D@std@@V?$allocator@D@2@@std@@V01@@?$_Uhash_compare@V?$basic_string@DU?$char_traits@D@std@@V?$allocator@D@2@@std@@U?$hash@V?$basic_string@DU?$char_traits@D@std@@V?$allocator@D@2@@std@@@2@U?$equal_to@V?$basic_string@DU?$char_traits@D@std@@V?$allocator@D@2@@std@@@2@@std@@QBE_NABV?$basic_string@DU?$char_traits@D@std@@V?$allocator@D@2@@1@0@Z 00439750 f i ScoreState.obj
 0001:000387a0       ??$_Adl_verify_range@PAV?$_List_unchecked_iterator@V?$_List_val@U?$_List_simple_types@U?$pair@$$CBV?$basic_string@DU?$char_traits@D@std@@V?$allocator@D@2@@std@@H@std@@@std@@@std@@@std@@PAV12@@std@@YAXABQAV?$_List_unchecked_iterator@V?$_List_val@U?$_List_simple_types@U?$pair@$$CBV?$basic_string@DU?$char_traits@D@std@@V?$allocator@D@2@@std@@H@std@@@std@@@std@@@0@0@Z 004397a0 f i ScoreState.obj
 0001:000387c0       ??$_Adl_verify_range@V?$_List_unchecked_const_iterator@V?$_List_val@U?$_List_simple_types@U?$pair@$$CBV?$basic_string@DU?$char_traits@D@std@@V?$allocator@D@2@@std@@H@std@@@std@@@std@@U_Iterator_base0@2@@std@@V12@@std@@YAXABV?$_List_unchecked_const_iterator@V?$_List_val@U?$_List_simple_types@U?$pair@$$CBV?$basic_string@DU?$char_traits@D@std@@V?$allocator@D@2@@std@@H@std@@@std@@@std@@U_Iterator_base0@2@@0@0@Z 004397c0 f i ScoreState.obj
 0001:000387d0       ??$_Adl_verify_range@V?$_Vector_iterator@V?$_Vector_val@U?$_Simple_types@U?$pair@V?$basic_string@DU?$char_traits@D@std@@V?$allocator@D@2@@std@@H@std@@@std@@@std@@@std@@V12@@std@@YAXABV?$_Vector_iterator@V?$_Vector_val@U?$_Simple_types@U?$pair@V?$basic_string@DU?$char_traits@D@std@@V?$allocator@D@2@@std@@H@std@@@std@@@std@@@0@0@Z 004397d0 f i ScoreState.obj
 0001:000387f0       ??$_Const_cast@$$CBU?$pair@V?$basic_string@DU?$char_traits@D@std@@V?$allocator@D@2@@std@@H@std@@@std@@YA@PBU?$pair@V?$basic_string@DU?$char_traits@D@std@@V?$allocator@D@2@@std@@H@0@@Z 004397f0 f i ScoreState.obj
 0001:00038800       ??$_Construct_in_place@PAU?$_List_node@U?$pair@$$CBV?$basic_string@DU?$char_traits@D@std@@V?$allocator@D@2@@std@@H@std@@PAX@std@@AAPAU12@@std@@YAXAAPAU?$_List_node@U?$pair@$$CBV?$basic_string@DU?$char_traits@D@std@@V?$allocator@D@2@@std@@H@std@@PAX@0@0@Z 00439800 f i ScoreState.obj
 0001:00038850       ??$_Construct_in_place@PAU?$_List_node@U?$pair@$$CBV?$basic_string@DU?$char_traits@D@std@@V?$allocator@D@2@@std@@H@std@@PAX@std@@ABQAU12@@std@@YAXAAPAU?$_List_node@U?$pair@$$CBV?$basic_string@DU?$char_traits@D@std@@V?$allocator@D@2@@std@@H@std@@PAX@0@ABQAU10@@Z 00439850 f i ScoreState.obj
 0001:000388a0       ??$_Construct_in_place@V?$_List_unchecked_iterator@V?$_List_val@U?$_List_simple_types@U?$pair@$$CBV?$basic_string@DU?$char_traits@D@std@@V?$allocator@D@2@@std@@H@std@@@std@@@std@@@std@@ABV12@@std@@YAXAAV?$_List_unchecked_iterator@V?$_List_val@U?$_List_simple_types@U?$pair@$$CBV?$basic_string@DU?$char_traits@D@std@@V?$allocator@D@2@@std@@H@std@@@std@@@std@@@0@ABV10@@Z 004398a0 f i ScoreState.obj
 0001:000388f0       ??$_Debug_lt_pred@AAV<lambda_70542a7f21a635fab700a8d613894b15>@@AAU?$pair@V?$basic_string@DU?$char_traits@D@std@@V?$allocator@D@2@@std@@H@std@@AAU23@$0A@@std@@YA_NAAV<lambda_70542a7f21a635fab700a8d613894b15>@@AAU?$pair@V?$basic_string@DU?$char_traits@D@std@@V?$allocator@D@2@@std@@H@0@1@Z 004398f0 f i ScoreState.obj
 0001:000389c0       ??$_Destroy_in_place@PAU?$_List_node@U?$pair@$$CBV?$basic_string@DU?$char_traits@D@std@@V?$allocator@D@2@@std@@H@std@@PAX@std@@@std@@YAXAAPAU?$_List_node@U?$pair@$$CBV?$basic_string@DU?$char_traits@D@std@@V?$allocator@D@2@@std@@H@std@@PAX@0@@Z 004399c0 f i ScoreState.obj
 0001:000389d0       ??$_Destroy_range@PAV?$_List_unchecked_iterator@V?$_List_val@U?$_List_simple_types@U?$pair@$$CBV?$basic_string@DU?$char_traits@D@std@@V?$allocator@D@2@@std@@H@std@@@std@@@std@@@std@@PAV12@@std@@YAXPAV?$_List_unchecked_iterator@V?$_List_val@U?$_List_simple_types@U?$pair@$$CBV?$basic_string@DU?$char_traits@D@std@@V?$allocator@D@2@@std@@H@std@@@std@@@std@@@0@QAV10@@Z 004399d0 f i ScoreState.obj
 0001:000389e0       ??$_Destroy_range@V?$allocator@U?$pair@V?$basic_string@DU?$char_traits@D@std@@V?$allocator@D@2@@std@@H@std@@@std@@@std@@YAXPAU?$pair@V?$basic_string@DU?$char_traits@D@std@@V?$allocator@D@2@@std@@H@0@QAU10@AAV?$allocator@U?$pair@V?$basic_string@DU?$char_traits@D@std@@V?$allocator@D@2@@std@@H@std@@@0@@Z 004399e0 f i ScoreState.obj
 0001:00038a60       ??$_Emplace_back@ABV?$_List_unchecked_iterator@V?$_List_val@U?$_List_simple_types@U?$pair@$$CBV?$basic_string@DU?$char_traits@D@std@@V?$allocator@D@2@@std@@H@std@@@std@@@std@@@std@@@?$_Uninitialized_backout@PAV?$_List_unchecked_iterator@V?$_List_val@U?$_List_simple_types@U?$pair@$$CBV?$basic_string@DU?$char_traits@D@std@@V?$allocator@D@2@@std@@H@std@@@std@@@std@@@std@@@std@@QAEXABV?$_List_unchecked_iterator@V?$_List_val@U?$_List_simple_types@U?$pair@$$CBV?$basic_string@DU?$char_traits@D@std@@V?$allocator@D@2@@std@@H@std@@@std@@@std@@@1@@Z 00439a60 f i ScoreState.obj
 0001:00038ab0       ??$_Emplace_back@U?$pair@V?$basic_string@DU?$char_traits@D@std@@V?$allocator@D@2@@std@@H@std@@@?$_Uninitialized_backout_al@V?$allocator@U?$pair@V?$basic_string@DU?$char_traits@D@std@@V?$allocator@D@2@@std@@H@std@@@std@@@std@@QAEX$$QAU?$pair@V?$basic_string@DU?$char_traits@D@std@@V?$allocator@D@2@@std@@H@1@@Z 00439ab0 f i ScoreState.obj
 0001:00038b10       ??$_Emplace_back_with_unused_capacity@U?$pair@V?$basic_string@DU?$char_traits@D@std@@V?$allocator@D@2@@std@@H@std@@@?$vector@U?$pair@V?$basic_string@DU?$char_traits@D@std@@V?$allocator@D@2@@std@@H@std@@V?$allocator@U?$pair@V?$basic_string@DU?$char_traits@D@std@@V?$allocator@D@2@@std@@H@std@@@2@@std@@AAE@$$QAU?$pair@V?$basic_string@DU?$char_traits@D@std@@V?$allocator@D@2@@std@@H@1@@Z 00439b10 f i ScoreState.obj
 0001:00038bb0       ??$_Emplace_reallocate@U?$pair@V?$basic_string@DU?$char_traits@D@std@@V?$allocator@D@2@@std@@H@std@@@?$vector@U?$pair@V?$basic_string@DU?$char_traits@D@std@@V?$allocator@D@2@@std@@H@std@@V?$allocator@U?$pair@V?$basic_string@DU?$char_traits@D@std@@V?$allocator@D@2@@std@@H@std@@@2@@std@@QAEPAU?$pair@V?$basic_string@DU?$char_traits@D@std@@V?$allocator@D@2@@std@@H@1@QAU21@$$QAU21@@Z 00439bb0 f i ScoreState.obj
 0001:00038e00       ??$_Find_last@V?$basic_string@DU?$char_traits@D@std@@V?$allocator@D@2@@std@@@?$_Hash@V?$_Umap_traits@V?$basic_string@DU?$char_traits@D@std@@V?$allocator@D@2@@std@@HV?$_Uhash_compare@V?$basic_string@DU?$char_traits@D@std@@V?$allocator@D@2@@std@@U?$hash@V?$basic_string@DU?$char_traits@D@std@@V?$allocator@D@2@@std@@@2@U?$equal_to@V?$basic_string@DU?$char_traits@D@std@@V?$allocator@D@2@@std@@@2@@2@V?$allocator@U?$pair@$$CBV?$basic_string@DU?$char_traits@D@std@@V?$allocator@D@2@@std@@H@std@@@2@$0A@@std@@@std@@IBE?AU?$_Hash_find_last_result@PAU?$_List_node@U?$pair@$$CBV?$basic_string@DU?$char_traits@D@std@@V?$allocator@D@2@@std@@H@std@@PAX@std@@@1@ABV?$basic_string@DU?$char_traits@D@std@@V?$allocator@D@2@@1@I@Z 00439e00 f i ScoreState.obj
 0001:00038f00       ??$_Free_non_head@V?$allocator@U?$_List_node@U?$pair@$$CBV?$basic_string@DU?$char_traits@D@std@@V?$allocator@D@2@@std@@H@std@@PAX@std@@@std@@@?$_List_node@U?$pair@$$CBV?$basic_string@DU?$char_traits@D@std@@V?$allocator@D@2@@std@@H@std@@PAX@std@@SAXAAV?$allocator@U?$_List_node@U?$pair@$$CBV?$basic_string@DU?$char_traits@D@std@@V?$allocator@D@2@@std@@H@std@@PAX@std@@@1@PAU01@@Z 00439f00 f i ScoreState.obj
 0001:00038f60       ??$_Freenode0@V?$allocator@U?$_List_node@U?$pair@$$CBV?$basic_string@DU?$char_traits@D@std@@V?$allocator@D@2@@std@@H@std@@PAX@std@@@std@@@?$_List_node@U?$pair@$$CBV?$basic_string@DU?$char_traits@D@std@@V?$allocator@D@2@@std@@H@std@@PAX@std@@SAXAAV?$allocator@U?$_List_node@U?$pair@$$CBV?$basic_string@DU?$char_traits@D@std@@V?$allocator@D@2@@std@@H@std@@PAX@std@@@1@PAU01@@Z 00439f60 f i ScoreState.obj
 0001:00038fe0       ??$_Freenode@V?$allocator@U?$_List_node@U?$pair@$$CBV?$basic_string@DU?$char_traits@D@std@@V?$allocator@D@2@@std@@H@std@@PAX@std@@@std@@@?$_List_node@U?$pair@$$CBV?$basic_string@DU?$char_traits@D@std@@V?$allocator@D@2@@std@@H@std@@PAX@std@@SAXAAV?$allocator@U?$_List_node@U?$pair@$$CBV?$basic_string@DU?$char_traits@D@std@@V?$allocator@D@2@@std@@H@std@@PAX@std@@@1@PAU01@@Z 00439fe0 f i ScoreState.obj
 0001:00039060       ??$_Get_size_of_n@$0CA@@std@@YAII@Z 0043a060 f i ScoreState.obj
 0001:000390a0       ??$_Get_size_of_n@$0CI@@std@@YAII@Z 0043a0a0 f i ScoreState.obj
 0001:000390d0       ??$_Get_unwrapped@AAV?$_List_unchecked_const_iterator@V?$_List_val@U?$_List_simple_types@U?$pair@$$CBV?$basic_string@DU?$char_traits@D@std@@V?$allocator@D@2@@std@@H@std@@@std@@@std@@U_Iterator_base0@2@@std@@@std@@YA@AAV?$_List_unchecked_const_iterator@V?$_List_val@U?$_List_simple_types@U?$pair@$$CBV?$basic_string@DU?$char_traits@D@std@@V?$allocator@D@2@@std@@H@std@@@std@@@std@@U_Iterator_base0@2@@0@@Z 0043a0d0 f i ScoreState.obj
 0001:000390e0       ??$_Get_unwrapped@ABQAU?$pair@V?$basic_string@DU?$char_traits@D@std@@V?$allocator@D@2@@std@@H@std@@@std@@YA@ABQAU?$pair@V?$basic_string@DU?$char_traits@D@std@@V?$allocator@D@2@@std@@H@0@@Z 0043a0e0 f i ScoreState.obj
 0001:000390f0       ??$_Get_unwrapped@ABQAV?$_List_unchecked_iterator@V?$_List_val@U?$_List_simple_types@U?$pair@$$CBV?$basic_string@DU?$char_traits@D@std@@V?$allocator@D@2@@std@@H@std@@@std@@@std@@@std@@@std@@YA@ABQAV?$_List_unchecked_iterator@V?$_List_val@U?$_List_simple_types@U?$pair@$$CBV?$basic_string@DU?$char_traits@D@std@@V?$allocator@D@2@@std@@H@std@@@std@@@std@@@0@@Z 0043a0f0 f i ScoreState.obj
 0001:00039100       ??$_Get_unwrapped@ABV?$_Vector_iterator@V?$_Vector_val@U?$_Simple_types@U?$pair@V?$basic_string@DU?$char_traits@D@std@@V?$allocator@D@2@@std@@H@std@@@std@@@std@@@std@@@std@@YA@ABV?$_Vector_iterator@V?$_Vector_val@U?$_Simple_types@U?$pair@V?$basic_string@DU?$char_traits@D@std@@V?$allocator@D@2@@std@@H@std@@@std@@@std@@@0@@Z 0043a100 f i ScoreState.obj
 0001:00039110       ??$_Guess_median_unchecked@PAU?$pair@V?$basic_string@DU?$char_traits@D@std@@V?$allocator@D@2@@std@@H@std@@V<lambda_70542a7f21a635fab700a8d613894b15>@@@std@@YAXPAU?$pair@V?$basic_string@DU?$char_traits@D@std@@V?$allocator@D@2@@std@@H@0@00V<lambda_70542a7f21a635fab700a8d613894b15>@@@Z 0043a110 f i ScoreState.obj
 0001:00039240       ??$_Hash_array_representation@D@std@@YAIQBDI@Z 0043a240 f i ScoreState.obj
 0001:00039260       ??$_Insertion_sort_unchecked@PAU?$pair@V?$basic_string@DU?$char_traits@D@std@@V?$allocator@D@2@@std@@H@std@@V<lambda_70542a7f21a635fab700a8d613894b15>@@@std@@YAPAU?$pair@V?$basic_string@DU?$char_traits@D@std@@V?$allocator@D@2@@std@@H@0@QAU10@0V<lambda_70542a7f21a635fab700a8d613894b15>@@@Z 0043a260 f i ScoreState.obj
 0001:00039410       ??$_Kfn@$$CBV?$basic_string@DU?$char_traits@D@std@@V?$allocator@D@2@@std@@H@?$_Umap_traits@V?$basic_string@DU?$char_traits@D@std@@V?$allocator@D@2@@std@@HV?$_Uhash_compare@V?$basic_string@DU?$char_traits@D@std@@V?$allocator@D@2@@std@@U?$hash@V?$basic_string@DU?$char_traits@D@std@@V?$allocator@D@2@@std@@@2@U?$equal_to@V?$basic_string@DU?$char_traits@D@std@@V?$allocator@D@2@@std@@@2@@2@V?$allocator@U?$pair@$$CBV?$basic_string@DU?$char_traits@D@std@@V?$allocator@D@2@@std@@H@std@@@2@$0A@@std@@SAABV?$basic_string@DU?$char_traits@D@std@@V?$allocator@D@2@@1@ABU?$pair@$$CBV?$basic_string@DU?$char_traits@D@std@@V?$allocator@D@2@@std@@H@1@@Z 0043a410 f i ScoreState.obj
 0001:00039420       ??$_Make_heap_unchecked@PAU?$pair@V?$basic_string@DU?$char_traits@D@std@@V?$allocator@D@2@@std@@H@std@@V<lambda_70542a7f21a635fab700a8d613894b15>@@@std@@YAXPAU?$pair@V?$basic_string@DU?$char_traits@D@std@@V?$allocator@D@2@@std@@H@0@0V<lambda_70542a7f21a635fab700a8d613894b15>@@@Z 0043a420 f i ScoreState.obj
 0001:00039510       ??$_Med3_unchecked@PAU?$pair@V?$basic_string@DU?$char_traits@D@std@@V?$allocator@D@2@@std@@H@std@@V<lambda_70542a7f21a635fab700a8d613894b15>@@@std@@YAXPAU?$pair@V?$basic_string@DU?$char_traits@D@std@@V?$allocator@D@2@@std@@H@0@00V<lambda_70542a7f21a635fab700a8d613894b15>@@@Z 0043a510 f i ScoreState.obj
 0001:000395c0       ??$_Move_backward_unchecked@PAU?$pair@V?$basic_string@DU?$char_traits@D@std@@V?$allocator@D@2@@std@@H@std@@PAU12@@std@@YAPAU?$pair@V?$basic_string@DU?$char_traits@D@std@@V?$allocator@D@2@@std@@H@0@PAU10@00@Z 0043a5c0 f i ScoreState.obj
 0001:00039610       ??$_Next_iter@PAU?$pair@V?$basic_string@DU?$char_traits@D@std@@V?$allocator@D@2@@std@@H@std@@@std@@YAPAU?$pair@V?$basic_string@DU?$char_traits@D@std@@V?$allocator@D@2@@std@@H@0@PAU10@@Z 0043a610 f i ScoreState.obj
 0001:00039630       ??$_Partition_by_median_guess_unchecked@PAU?$pair@V?$basic_string@DU?$char_traits@D@std@@V?$allocator@D@2@@std@@H@std@@V<lambda_70542a7f21a635fab700a8d613894b15>@@@std@@YA?AU?$pair@PAU?$pair@V?$basic_string@DU?$char_traits@D@std@@V?$allocator@D@2@@std@@H@std@@PAU12@@0@PAU?$pair@V?$basic_string@DU?$char_traits@D@std@@V?$allocator@D@2@@std@@H@0@0V<lambda_70542a7f21a635fab700a8d613894b15>@@@Z 0043a630 f i ScoreState.obj
 0001:000399e0       ??$_Pass_fn@V<lambda_70542a7f21a635fab700a8d613894b15>@@$0A@@std@@YA?AV<lambda_70542a7f21a635fab700a8d613894b15>@@V1@@Z 0043a9e0 f i ScoreState.obj
 0001:000399f0       ??$_Pocma@V?$allocator@U?$pair@V?$basic_string@DU?$char_traits@D@std@@V?$allocator@D@2@@std@@H@std@@@std@@@std@@YAXAAV?$allocator@U?$pair@V?$basic_string@DU?$char_traits@D@std@@V?$allocator@D@2@@std@@H@std@@@0@0@Z 0043a9f0 f i ScoreState.obj
 0001:00039a10       ??$_Pocs@V?$allocator@D@std@@@std@@YAXAAV?$allocator@D@0@0@Z 0043aa10 f i ScoreState.obj
 0001:00039aa0       ??$_Pop_heap_hole_by_index@PAU?$pair@V?$basic_string@DU?$char_traits@D@std@@V?$allocator@D@2@@std@@H@std@@U12@V<lambda_70542a7f21a635fab700a8d613894b15>@@@std@@YAXPAU?$pair@V?$basic_string@DU?$char_traits@D@std@@V?$allocator@D@2@@std@@H@0@HH$$QAU10@V<lambda_70542a7f21a635fab700a8d613894b15>@@@Z 0043aaa0 f i ScoreState.obj
 0001:00039be0       ??$_Pop_heap_hole_unchecked@PAU?$pair@V?$basic_string@DU?$char_traits@D@std@@V?$allocator@D@2@@std@@H@std@@U12@V<lambda_70542a7f21a635fab700a8d613894b15>@@@std@@YAXPAU?$pair@V?$basic_string@DU?$char_traits@D@std@@V?$allocator@D@2@@std@@H@0@00$$QAU10@V<lambda_70542a7f21a635fab700a8d613894b15>@@@Z 0043abe0 f i ScoreState.obj
 0001:00039c40       ??$_Pop_heap_unchecked@PAU?$pair@V?$basic_string@DU?$char_traits@D@std@@V?$allocator@D@2@@std@@H@std@@V<lambda_70542a7f21a635fab700a8d613894b15>@@@std@@YAXPAU?$pair@V?$basic_string@DU?$char_traits@D@std@@V?$allocator@D@2@@std@@H@0@0V<lambda_70542a7f21a635fab700a8d613894b15>@@@Z 0043ac40 f i ScoreState.obj
 0001:00039d20       ??$_Prev_iter@PAU?$pair@V?$basic_string@DU?$char_traits@D@std@@V?$allocator@D@2@@std@@H@std@@@std@@YAPAU?$pair@V?$basic_string@DU?$char_traits@D@std@@V?$allocator@D@2@@std@@H@0@PAU10@@Z 0043ad20 f i ScoreState.obj
 0001:00039d40       ??$_Push_heap_by_index@PAU?$pair@V?$basic_string@DU?$char_traits@D@std@@V?$allocator@D@2@@std@@H@std@@U12@V<lambda_70542a7f21a635fab700a8d613894b15>@@@std@@YAXPAU?$pair@V?$basic_string@DU?$char_traits@D@std@@V?$allocator@D@2@@std@@H@0@HH$$QAU10@V<lambda_70542a7f21a635fab700a8d613894b15>@@@Z 0043ad40 f i ScoreState.obj
 0001:00039df0       ??$_Sort_heap_unchecked@PAU?$pair@V?$basic_string@DU?$char_traits@D@std@@V?$allocator@D@2@@std@@H@std@@V<lambda_70542a7f21a635fab700a8d613894b15>@@@std@@YAXPAU?$pair@V?$basic_string@DU?$char_traits@D@std@@V?$allocator@D@2@@std@@H@0@0V<lambda_70542a7f21a635fab700a8d613894b15>@@@Z 0043adf0 f i ScoreState.obj
 0001:00039e40       ??$_Sort_unchecked@PAU?$pair@V?$basic_string@DU?$char_traits@D@std@@V?$allocator@D@2@@std@@H@std@@V<lambda_70542a7f21a635fab700a8d613894b15>@@@std@@YAXPAU?$pair@V?$basic_string@DU?$char_traits@D@std@@V?$allocator@D@2@@std@@H@0@0HV<lambda_70542a7f21a635fab700a8d613894b15>@@@Z 0043ae40 f i ScoreState.obj
 0001:00039f70       ??$_Swap_adl@H@std@@YAXAAH0@Z 0043af70 f i ScoreState.obj
 0001:00039f90       ??$_Swap_adl@V?$basic_string@DU?$char_traits@D@std@@V?$allocator@D@2@@std@@@std@@YAXAAV?$basic_string@DU?$char_traits@D@std@@V?$allocator@D@2@@0@0@Z 0043af90 f i ScoreState.obj
 0001:00039fb0       ??$_Try_emplace@ABV?$basic_string@DU?$char_traits@D@std@@V?$allocator@D@2@@std@@$$V@?$_Hash@V?$_Umap_traits@V?$basic_string@DU?$char_traits@D@std@@V?$allocator@D@2@@std@@HV?$_Uhash_compare@V?$basic_string@DU?$char_traits@D@std@@V?$allocator@D@2@@std@@U?$hash@V?$basic_string@DU?$char_traits@D@std@@V?$allocator@D@2@@std@@@2@U?$equal_to@V?$basic_string@DU?$char_traits@D@std@@V?$allocator@D@2@@std@@@2@@2@V?$allocator@U?$pair@$$CBV?$basic_string@DU?$char_traits@D@std@@V?$allocator@D@2@@std@@H@std@@@2@$0A@@std@@@std@@IAE?AU?$pair@PAU?$_List_node@U?$pair@$$CBV?$basic_string@DU?$char_traits@D@std@@V?$allocator@D@2@@std@@H@std@@PAX@std@@_N@1@ABV?$basic_string@DU?$char_traits@D@std@@V?$allocator@D@2@@1@@Z 0043afb0 f i ScoreState.obj
 0001:0003a160       ??$_Unfancy@U?$pair@V?$basic_string@DU?$char_traits@D@std@@V?$allocator@D@2@@std@@H@std@@@std@@YAPAU?$pair@V?$basic_string@DU?$char_traits@D@std@@V?$allocator@D@2@@std@@H@0@PAU10@@Z 0043b160 f i ScoreState.obj
 0001:0003a170       ??$_Uninitialized_move@PAU?$pair@V?$basic_string@DU?$char_traits@D@std@@V?$allocator@D@2@@std@@H@std@@V?$allocator@U?$pair@V?$basic_string@DU?$char_traits@D@std@@V?$allocator@D@2@@std@@H@std@@@2@@std@@YAPAU?$pair@V?$basic_string@DU?$char_traits@D@std@@V?$allocator@D@2@@std@@H@0@QAU10@0PAU10@AAV?$allocator@U?$pair@V?$basic_string@DU?$char_traits@D@std@@V?$allocator@D@2@@std@@H@std@@@0@@Z 0043b170 f i ScoreState.obj
 0001:0003a250       ??$_Verify_range@V?$_List_unchecked_iterator@V?$_List_val@U?$_List_simple_types@U?$pair@$$CBV?$basic_string@DU?$char_traits@D@std@@V?$allocator@D@2@@std@@H@std@@@std@@@std@@@std@@@std@@YAXQBV?$_List_unchecked_iterator@V?$_List_val@U?$_List_simple_types@U?$pair@$$CBV?$basic_string@DU?$char_traits@D@std@@V?$allocator@D@2@@std@@H@std@@@std@@@std@@@0@0@Z 0043b250 f i ScoreState.obj
 0001:0003a2d0       ??$addressof@$$CBV?$_List_val@U?$_List_simple_types@U?$pair@$$CBV?$basic_string@DU?$char_traits@D@std@@V?$allocator@D@2@@std@@H@std@@@std@@@std@@@std@@YAPBV?$_List_val@U?$_List_simple_types@U?$pair@$$CBV?$basic_string@DU?$char_traits@D@std@@V?$allocator@D@2@@std@@H@std@@@std@@@0@ABV10@@Z 0043b2d0 f i ScoreState.obj
 0001:0003a2e0       ??$addressof@PAU?$_List_node@U?$pair@$$CBV?$basic_string@DU?$char_traits@D@std@@V?$allocator@D@2@@std@@H@std@@PAX@std@@@std@@YAPAPAU?$_List_node@U?$pair@$$CBV?$basic_string@DU?$char_traits@D@std@@V?$allocator@D@2@@std@@H@std@@PAX@0@AAPAU10@@Z 0043b2e0 f i ScoreState.obj
 0001:0003a2f0       ??$addressof@U?$pair@$$CBV?$basic_string@DU?$char_traits@D@std@@V?$allocator@D@2@@std@@H@std@@@std@@YAPAU?$pair@$$CBV?$basic_string@DU?$char_traits@D@std@@V?$allocator@D@2@@std@@H@0@AAU10@@Z 0043b2f0 f i ScoreState.obj
 0001:0003a300       ??$addressof@U?$pair@V?$basic_string@DU?$char_traits@D@std@@V?$allocator@D@2@@std@@H@std@@@std@@YAPAU?$pair@V?$basic_string@DU?$char_traits@D@std@@V?$allocator@D@2@@std@@H@0@AAU10@@Z 0043b300 f i ScoreState.obj
 0001:0003a310       ??$addressof@V?$_List_unchecked_iterator@V?$_List_val@U?$_List_simple_types@U?$pair@$$CBV?$basic_string@DU?$char_traits@D@std@@V?$allocator@D@2@@std@@H@std@@@std@@@std@@@std@@@std@@YAPAV?$_List_unchecked_iterator@V?$_List_val@U?$_List_simple_types@U?$pair@$$CBV?$basic_string@DU?$char_traits@D@std@@V?$allocator@D@2@@std@@H@std@@@std@@@std@@@0@AAV10@@Z 0043b310 f i ScoreState.obj
 0001:0003a320       ??$addressof@V?$_List_val@U?$_List_simple_types@U?$pair@$$CBV?$basic_string@DU?$char_traits@D@std@@V?$allocator@D@2@@std@@H@std@@@std@@@std@@@std@@YAPAV?$_List_val@U?$_List_simple_types@U?$pair@$$CBV?$basic_string@DU?$char_traits@D@std@@V?$allocator@D@2@@std@@H@std@@@std@@@0@AAV10@@Z 0043b320 f i ScoreState.obj
 0001:0003a330       ??$addressof@V?$_Vector_val@U?$_Simple_types@U?$pair@V?$basic_string@DU?$char_traits@D@std@@V?$allocator@D@2@@std@@H@std@@@std@@@std@@@std@@YAPAV?$_Vector_val@U?$_Simple_types@U?$pair@V?$basic_string@DU?$char_traits@D@std@@V?$allocator@D@2@@std@@H@std@@@std@@@0@AAV10@@Z 0043b330 f i ScoreState.obj
 0001:0003a340       ??$addressof@V?$vector@U?$pair@V?$basic_string@DU?$char_traits@D@std@@V?$allocator@D@2@@std@@H@std@@V?$allocator@U?$pair@V?$basic_string@DU?$char_traits@D@std@@V?$allocator@D@2@@std@@H@std@@@2@@std@@@std@@YAPAV?$vector@U?$pair@V?$basic_string@DU?$char_traits@D@std@@V?$allocator@D@2@@std@@H@std@@V?$allocator@U?$pair@V?$basic_string@DU?$char_traits@D@std@@V?$allocator@D@2@@std@@H@std@@@2@@0@AAV10@@Z 0043b340 f i ScoreState.obj
 0001:0003a350       ??$construct@U?$pair@$$CBV?$basic_string@DU?$char_traits@D@std@@V?$allocator@D@2@@std@@H@std@@ABU12@@?$_Default_allocator_traits@V?$allocator@U?$_List_node@U?$pair@$$CBV?$basic_string@DU?$char_traits@D@std@@V?$allocator@D@2@@std@@H@std@@PAX@std@@@std@@@std@@SAXAAV?$allocator@U?$_List_node@U?$pair@$$CBV?$basic_string@DU?$char_traits@D@std@@V?$allocator@D@2@@std@@H@std@@PAX@std@@@1@QAU?$pair@$$CBV?$basic_string@DU?$char_traits@D@std@@V?$allocator@D@2@@std@@H@1@ABU31@@Z 0043b350 f i ScoreState.obj
 0001:0003a390       ??$construct@U?$pair@$$CBV?$basic_string@DU?$char_traits@D@std@@V?$allocator@D@2@@std@@H@std@@ABUpiecewise_construct_t@2@V?$tuple@ABV?$basic_string@DU?$char_traits@D@std@@V?$allocator@D@2@@std@@@2@V?$tuple@$$V@2@@?$_Default_allocator_traits@V?$allocator@U?$_List_node@U?$pair@$$CBV?$basic_string@DU?$char_traits@D@std@@V?$allocator@D@2@@std@@H@std@@PAX@std@@@std@@@std@@SAXAAV?$allocator@U?$_List_node@U?$pair@$$CBV?$basic_string@DU?$char_traits@D@std@@V?$allocator@D@2@@std@@H@std@@PAX@std@@@1@QAU?$pair@$$CBV?$basic_string@DU?$char_traits@D@std@@V?$allocator@D@2@@std@@H@1@ABUpiecewise_construct_t@1@$$QAV?$tuple@ABV?$basic_string@DU?$char_traits@D@std@@V?$allocator@D@2@@std@@@1@$$QAV?$tuple@$$V@1@@Z 0043b390 f i ScoreState.obj
 0001:0003a410       ??$construct@U?$pair@V?$basic_string@DU?$char_traits@D@std@@V?$allocator@D@2@@std@@H@std@@U12@@?$_Default_allocator_traits@V?$allocator@U?$pair@V?$basic_string@DU?$char_traits@D@std@@V?$allocator@D@2@@std@@H@std@@@std@@@std@@SAXAAV?$allocator@U?$pair@V?$basic_string@DU?$char_traits@D@std@@V?$allocator@D@2@@std@@H@std@@@1@QAU?$pair@V?$basic_string@DU?$char_traits@D@std@@V?$allocator@D@2@@std@@H@1@$$QAU31@@Z 0043b410 f i ScoreState.obj
 0001:0003a450       ??$destroy@U?$pair@$$CBV?$basic_string@DU?$char_traits@D@std@@V?$allocator@D@2@@std@@H@std@@@?$_Default_allocator_traits@V?$allocator@U?$_List_node@U?$pair@$$CBV?$basic_string@DU?$char_traits@D@std@@V?$allocator@D@2@@std@@H@std@@PAX@std@@@std@@@std@@SAXAAV?$allocator@U?$_List_node@U?$pair@$$CBV?$basic_string@DU?$char_traits@D@std@@V?$allocator@D@2@@std@@H@std@@PAX@std@@@1@QAU?$pair@$$CBV?$basic_string@DU?$char_traits@D@std@@V?$allocator@D@2@@std@@H@1@@Z 0043b450 f i ScoreState.obj
 0001:0003a470       ??$destroy@U?$pair@V?$basic_string@DU?$char_traits@D@std@@V?$allocator@D@2@@std@@H@std@@@?$_Default_allocator_traits@V?$allocator@U?$pair@V?$basic_string@DU?$char_traits@D@std@@V?$allocator@D@2@@std@@H@std@@@std@@@std@@SAXAAV?$allocator@U?$pair@V?$basic_string@DU?$char_traits@D@std@@V?$allocator@D@2@@std@@H@std@@@1@QAU?$pair@V?$basic_string@DU?$char_traits@D@std@@V?$allocator@D@2@@std@@H@1@@Z 0043b470 f i ScoreState.obj
 0001:0003a490       ??$emplace@ABU?$pair@$$CBV?$basic_string@DU?$char_traits@D@std@@V?$allocator@D@2@@std@@H@std@@@?$_Hash@V?$_Umap_traits@V?$basic_string@DU?$char_traits@D@std@@V?$allocator@D@2@@std@@HV?$_Uhash_compare@V?$basic_string@DU?$char_traits@D@std@@V?$allocator@D@2@@std@@U?$hash@V?$basic_string@DU?$char_traits@D@std@@V?$allocator@D@2@@std@@@2@U?$equal_to@V?$basic_string@DU?$char_traits@D@std@@V?$allocator@D@2@@std@@@2@@2@V?$allocator@U?$pair@$$CBV?$basic_string@DU?$char_traits@D@std@@V?$allocator@D@2@@std@@H@std@@@2@$0A@@std@@@std@@QAE?AU?$pair@V?$_List_iterator@V?$_List_val@U?$_List_simple_types@U?$pair@$$CBV?$basic_string@DU?$char_traits@D@std@@V?$allocator@D@2@@std@@H@std@@@std@@@std@@@std@@_N@1@ABU?$pair@$$CBV?$basic_string@DU?$char_traits@D@std@@V?$allocator@D@2@@std@@H@1@@Z 0043b490 f i ScoreState.obj
 0001:0003a6a0       ??$emplace_back@U?$pair@V?$basic_string@DU?$char_traits@D@std@@V?$allocator@D@2@@std@@H@std@@@?$vector@U?$pair@V?$basic_string@DU?$char_traits@D@std@@V?$allocator@D@2@@std@@H@std@@V?$allocator@U?$pair@V?$basic_string@DU?$char_traits@D@std@@V?$allocator@D@2@@std@@H@std@@@2@@std@@QAE@$$QAU?$pair@V?$basic_string@DU?$char_traits@D@std@@V?$allocator@D@2@@std@@H@1@@Z 0043b6a0 f i ScoreState.obj
 0001:0003a720       ??$exchange@PAU?$_List_node@U?$pair@$$CBV?$basic_string@DU?$char_traits@D@std@@V?$allocator@D@2@@std@@H@std@@PAX@std@@$$T@std@@YAPAU?$_List_node@U?$pair@$$CBV?$basic_string@DU?$char_traits@D@std@@V?$allocator@D@2@@std@@H@std@@PAX@0@AAPAU10@$$QA$$T@Z 0043b720 f i ScoreState.obj
 0001:0003a750       ??$fill@PAV?$_List_unchecked_iterator@V?$_List_val@U?$_List_simple_types@U?$pair@$$CBV?$basic_string@DU?$char_traits@D@std@@V?$allocator@D@2@@std@@H@std@@@std@@@std@@@std@@V12@@std@@YAXQAV?$_List_unchecked_iterator@V?$_List_val@U?$_List_simple_types@U?$pair@$$CBV?$basic_string@DU?$char_traits@D@std@@V?$allocator@D@2@@std@@H@std@@@std@@@std@@@0@0ABV10@@Z 0043b750 f i ScoreState.obj
 0001:0003a7c0       ??$forward@AAPAU?$_List_node@U?$pair@$$CBV?$basic_string@DU?$char_traits@D@std@@V?$allocator@D@2@@std@@H@std@@PAX@std@@@std@@YAAAPAU?$_List_node@U?$pair@$$CBV?$basic_string@DU?$char_traits@D@std@@V?$allocator@D@2@@std@@H@std@@PAX@0@AAPAU10@@Z 0043b7c0 f i ScoreState.obj
 0001:0003a7d0       ??$forward@AAPAU?$pair@V?$basic_string@DU?$char_traits@D@std@@V?$allocator@D@2@@std@@H@std@@@std@@YAAAPAU?$pair@V?$basic_string@DU?$char_traits@D@std@@V?$allocator@D@2@@std@@H@0@AAPAU10@@Z 0043b7d0 f i ScoreState.obj
 0001:0003a7e0       ??$forward@ABQAU?$_List_node@U?$pair@$$CBV?$basic_string@DU?$char_traits@D@std@@V?$allocator@D@2@@std@@H@std@@PAX@std@@@std@@YAABQAU?$_List_node@U?$pair@$$CBV?$basic_string@DU?$char_traits@D@std@@V?$allocator@D@2@@std@@H@std@@PAX@0@ABQAU10@@Z 0043b7e0 f i ScoreState.obj
 0001:0003a7f0       ??$forward@ABU?$pair@$$CBV?$basic_string@DU?$char_traits@D@std@@V?$allocator@D@2@@std@@H@std@@@std@@YAABU?$pair@$$CBV?$basic_string@DU?$char_traits@D@std@@V?$allocator@D@2@@std@@H@0@ABU10@@Z 0043b7f0 f i ScoreState.obj
 0001:0003a800       ??$forward@ABUpiecewise_construct_t@std@@@std@@YAABUpiecewise_construct_t@0@ABU10@@Z 0043b800 f i ScoreState.obj
 0001:0003a810       ??$forward@ABV?$_List_unchecked_iterator@V?$_List_val@U?$_List_simple_types@U?$pair@$$CBV?$basic_string@DU?$char_traits@D@std@@V?$allocator@D@2@@std@@H@std@@@std@@@std@@@std@@@std@@YAABV?$_List_unchecked_iterator@V?$_List_val@U?$_List_simple_types@U?$pair@$$CBV?$basic_string@DU?$char_traits@D@std@@V?$allocator@D@2@@std@@H@std@@@std@@@std@@@0@ABV10@@Z 0043b810 f i ScoreState.obj
 0001:0003a820       ??$forward@ABV?$allocator@U?$_List_node@U?$pair@$$CBV?$basic_string@DU?$char_traits@D@std@@V?$allocator@D@2@@std@@H@std@@PAX@std@@@std@@@std@@YAABV?$allocator@U?$_List_node@U?$pair@$$CBV?$basic_string@DU?$char_traits@D@std@@V?$allocator@D@2@@std@@H@std@@PAX@std@@@0@ABV10@@Z 0043b820 f i ScoreState.obj
 0001:0003a830       ??$forward@ABV?$allocator@U?$pair@$$CBV?$basic_string@DU?$char_traits@D@std@@V?$allocator@D@2@@std@@H@std@@@std@@@std@@YAABV?$allocator@U?$pair@$$CBV?$basic_string@DU?$char_traits@D@std@@V?$allocator@D@2@@std@@H@std@@@0@ABV10@@Z 0043b830 f i ScoreState.obj
 0001:0003a840       ??$forward@PAU?$_List_node@U?$pair@$$CBV?$basic_string@DU?$char_traits@D@std@@V?$allocator@D@2@@std@@H@std@@PAX@std@@@std@@YA$$QAPAU?$_List_node@U?$pair@$$CBV?$basic_string@DU?$char_traits@D@std@@V?$allocator@D@2@@std@@H@std@@PAX@0@AAPAU10@@Z 0043b840 f i ScoreState.obj
 0001:0003a850       ??$forward@U?$pair@V?$basic_string@DU?$char_traits@D@std@@V?$allocator@D@2@@std@@H@std@@@std@@YA$$QAU?$pair@V?$basic_string@DU?$char_traits@D@std@@V?$allocator@D@2@@std@@H@0@AAU10@@Z 0043b850 f i ScoreState.obj
 0001:0003a860       ??$forward@V?$_List_iterator@V?$_List_val@U?$_List_simple_types@U?$pair@$$CBV?$basic_string@DU?$char_traits@D@std@@V?$allocator@D@2@@std@@H@std@@@std@@@std@@@std@@@std@@YA$$QAV?$_List_iterator@V?$_List_val@U?$_List_simple_types@U?$pair@$$CBV?$basic_string@DU?$char_traits@D@std@@V?$allocator@D@2@@std@@H@std@@@std@@@std@@@0@AAV10@@Z 0043b860 f i ScoreState.obj
 0001:0003a870       ??$forward@V?$allocator@U?$pair@V?$basic_string@DU?$char_traits@D@std@@V?$allocator@D@2@@std@@H@std@@@std@@@std@@YA$$QAV?$allocator@U?$pair@V?$basic_string@DU?$char_traits@D@std@@V?$allocator@D@2@@std@@H@std@@@0@AAV10@@Z 0043b870 f i ScoreState.obj
 0001:0003a880       ??$forward@V?$tuple@$$V@std@@@std@@YA$$QAV?$tuple@$$V@0@AAV10@@Z 0043b880 f i ScoreState.obj
 0001:0003a890       ??$forward@V?$tuple@ABV?$basic_string@DU?$char_traits@D@std@@V?$allocator@D@2@@std@@@std@@@std@@YA$$QAV?$tuple@ABV?$basic_string@DU?$char_traits@D@std@@V?$allocator@D@2@@std@@@0@AAV10@@Z 0043b890 f i ScoreState.obj
 0001:0003a8a0       ??$forward_as_tuple@$$V@std@@YA?AV?$tuple@$$V@0@XZ 0043b8a0 f i ScoreState.obj
 0001:0003a8c0       ??$forward_as_tuple@ABV?$basic_string@DU?$char_traits@D@std@@V?$allocator@D@2@@std@@@std@@YA?AV?$tuple@ABV?$basic_string@DU?$char_traits@D@std@@V?$allocator@D@2@@std@@@0@ABV?$basic_string@DU?$char_traits@D@std@@V?$allocator@D@2@@0@@Z 0043b8c0 f i ScoreState.obj
 0001:0003a8f0       ??$get@$0A@ABV?$basic_string@DU?$char_traits@D@std@@V?$allocator@D@2@@std@@@std@@YAABV?$basic_string@DU?$char_traits@D@std@@V?$allocator@D@2@@0@$$QAV?$tuple@ABV?$basic_string@DU?$char_traits@D@std@@V?$allocator@D@2@@std@@@0@@Z 0043b8f0 f i ScoreState.obj
 0001:0003a900       ??$insert@V?$_List_unchecked_const_iterator@V?$_List_val@U?$_List_simple_types@U?$pair@$$CBV?$basic_string@DU?$char_traits@D@std@@V?$allocator@D@2@@std@@H@std@@@std@@@std@@U_Iterator_base0@2@@std@@@?$_Hash@V?$_Umap_traits@V?$basic_string@DU?$char_traits@D@std@@V?$allocator@D@2@@std@@HV?$_Uhash_compare@V?$basic_string@DU?$char_traits@D@std@@V?$allocator@D@2@@std@@U?$hash@V?$basic_string@DU?$char_traits@D@std@@V?$allocator@D@2@@std@@@2@U?$equal_to@V?$basic_string@DU?$char_traits@D@std@@V?$allocator@D@2@@std@@@2@@2@V?$allocator@U?$pair@$$CBV?$basic_string@DU?$char_traits@D@std@@V?$allocator@D@2@@std@@H@std@@@2@$0A@@std@@@std@@QAEXV?$_List_unchecked_const_iterator@V?$_List_val@U?$_List_simple_types@U?$pair@$$CBV?$basic_string@DU?$char_traits@D@std@@V?$allocator@D@2@@std@@H@std@@@std@@@std@@U_Iterator_base0@2@@1@0@Z 0043b900 f i ScoreState.obj
 0001:0003a9a0       ??$iter_swap@PAU?$pair@V?$basic_string@DU?$char_traits@D@std@@V?$allocator@D@2@@std@@H@std@@PAU12@@std@@YAXPAU?$pair@V?$basic_string@DU?$char_traits@D@std@@V?$allocator@D@2@@std@@H@0@0@Z 0043b9a0 f i ScoreState.obj
 0001:0003a9c0       ??$make_pair@ABV?$basic_string@DU?$char_traits@D@std@@V?$allocator@D@2@@std@@AAH@std@@YA?AU?$pair@V?$basic_string@DU?$char_traits@D@std@@V?$allocator@D@2@@std@@H@0@ABV?$basic_string@DU?$char_traits@D@std@@V?$allocator@D@2@@0@AAH@Z 0043b9c0 f i ScoreState.obj
 0001:0003aa10       ??$move@AAU?$pair@V?$basic_string@DU?$char_traits@D@std@@V?$allocator@D@2@@std@@H@std@@@std@@YA$$QAU?$pair@V?$basic_string@DU?$char_traits@D@std@@V?$allocator@D@2@@std@@H@0@AAU10@@Z 0043ba10 f i ScoreState.obj
 0001:0003aa20       ??$move@AAV?$allocator@U?$pair@V?$basic_string@DU?$char_traits@D@std@@V?$allocator@D@2@@std@@H@std@@@std@@@std@@YA$$QAV?$allocator@U?$pair@V?$basic_string@DU?$char_traits@D@std@@V?$allocator@D@2@@std@@H@std@@@0@AAV10@@Z 0043ba20 f i ScoreState.obj
 0001:0003aa30       ??$move@AAV?$tuple@ABV?$basic_string@DU?$char_traits@D@std@@V?$allocator@D@2@@std@@@std@@@std@@YA$$QAV?$tuple@ABV?$basic_string@DU?$char_traits@D@std@@V?$allocator@D@2@@std@@@0@AAV10@@Z 0043ba30 f i ScoreState.obj
 0001:0003aa40       ??$sort@V?$_Vector_iterator@V?$_Vector_val@U?$_Simple_types@U?$pair@V?$basic_string@DU?$char_traits@D@std@@V?$allocator@D@2@@std@@H@std@@@std@@@std@@@std@@V<lambda_70542a7f21a635fab700a8d613894b15>@@@std@@YAXV?$_Vector_iterator@V?$_Vector_val@U?$_Simple_types@U?$pair@V?$basic_string@DU?$char_traits@D@std@@V?$allocator@D@2@@std@@H@std@@@std@@@std@@@0@0V<lambda_70542a7f21a635fab700a8d613894b15>@@@Z 0043ba40 f i ScoreState.obj
 0001:0003ab30       ??$sortMap@V?$basic_string@DU?$char_traits@D@std@@V?$allocator@D@2@@std@@@@YA?AV?$vector@U?$pair@V?$basic_string@DU?$char_traits@D@std@@V?$allocator@D@2@@std@@H@std@@V?$allocator@U?$pair@V?$basic_string@DU?$char_traits@D@std@@V?$allocator@D@2@@std@@H@std@@@2@@std@@V?$unordered_map@V?$basic_string@DU?$char_traits@D@std@@V?$allocator@D@2@@std@@HU?$hash@V?$basic_string@DU?$char_traits@D@std@@V?$allocator@D@2@@std@@@2@U?$equal_to@V?$basic_string@DU?$char_traits@D@std@@V?$allocator@D@2@@std@@@2@V?$allocator@U?$pair@$$CBV?$basic_string@DU?$char_traits@D@std@@V?$allocator@D@2@@std@@H@std@@@2@@1@@Z 0043bb30 f i ScoreState.obj
 0001:0003ad00       ??$swap@DU?$char_traits@D@std@@V?$allocator@D@2@@std@@YAXAAV?$basic_string@DU?$char_traits@D@std@@V?$allocator@D@2@@0@0@Z 0043bd00 f i ScoreState.obj
 0001:0003ad20       ??$swap@V?$basic_string@DU?$char_traits@D@std@@V?$allocator@D@2@@std@@H$0A@@std@@YAXAAU?$pair@V?$basic_string@DU?$char_traits@D@std@@V?$allocator@D@2@@std@@H@0@0@Z 0043bd20 f i ScoreState.obj
 0001:0003ad40       ??$uninitialized_fill@PAV?$_List_unchecked_iterator@V?$_List_val@U?$_List_simple_types@U?$pair@$$CBV?$basic_string@DU?$char_traits@D@std@@V?$allocator@D@2@@std@@H@std@@@std@@@std@@@std@@V12@@std@@YAXQAV?$_List_unchecked_iterator@V?$_List_val@U?$_List_simple_types@U?$pair@$$CBV?$basic_string@DU?$char_traits@D@std@@V?$allocator@D@2@@std@@H@std@@@std@@@std@@@0@0ABV10@@Z 0043bd40 f i ScoreState.obj
 0001:0003ae10       ??0?$_Alloc_construct_ptr@V?$allocator@U?$_List_node@U?$pair@$$CBV?$basic_string@DU?$char_traits@D@std@@V?$allocator@D@2@@std@@H@std@@PAX@std@@@std@@@std@@QAE@AAV?$allocator@U?$_List_node@U?$pair@$$CBV?$basic_string@DU?$char_traits@D@std@@V?$allocator@D@2@@std@@H@std@@PAX@std@@@1@@Z 0043be10 f i ScoreState.obj
 0001:0003ae40       ??0?$_Hash@V?$_Umap_traits@V?$basic_string@DU?$char_traits@D@std@@V?$allocator@D@2@@std@@HV?$_Uhash_compare@V?$basic_string@DU?$char_traits@D@std@@V?$allocator@D@2@@std@@U?$hash@V?$basic_string@DU?$char_traits@D@std@@V?$allocator@D@2@@std@@@2@U?$equal_to@V?$basic_string@DU?$char_traits@D@std@@V?$allocator@D@2@@std@@@2@@2@V?$allocator@U?$pair@$$CBV?$basic_string@DU?$char_traits@D@std@@V?$allocator@D@2@@std@@H@std@@@2@$0A@@std@@@std@@IAE@ABV?$_Uhash_compare@V?$basic_string@DU?$char_traits@D@std@@V?$allocator@D@2@@std@@U?$hash@V?$basic_string@DU?$char_traits@D@std@@V?$allocator@D@2@@std@@@2@U?$equal_to@V?$basic_string@DU?$char_traits@D@std@@V?$allocator@D@2@@std@@@2@@1@ABV?$allocator@U?$pair@$$CBV?$basic_string@DU?$char_traits@D@std@@V?$allocator@D@2@@std@@H@std@@@1@@Z 0043be40 f i ScoreState.obj
 0001:0003af30       ??0?$_List_const_iterator@V?$_List_val@U?$_List_simple_types@U?$pair@$$CBV?$basic_string@DU?$char_traits@D@std@@V?$allocator@D@2@@std@@H@std@@@std@@@std@@@std@@QAE@$$QAV01@@Z 0043bf30 f i ScoreState.obj
 0001:0003af60       ??0?$_List_const_iterator@V?$_List_val@U?$_List_simple_types@U?$pair@$$CBV?$basic_string@DU?$char_traits@D@std@@V?$allocator@D@2@@std@@H@std@@@std@@@std@@@std@@QAE@ABV01@@Z 0043bf60 f i ScoreState.obj
 0001:0003af90       ??0?$_List_const_iterator@V?$_List_val@U?$_List_simple_types@U?$pair@$$CBV?$basic_string@DU?$char_traits@D@std@@V?$allocator@D@2@@std@@H@std@@@std@@@std@@@std@@QAE@PAU?$_List_node@U?$pair@$$CBV?$basic_string@DU?$char_traits@D@std@@V?$allocator@D@2@@std@@H@std@@PAX@1@PBV?$_List_val@U?$_List_simple_types@U?$pair@$$CBV?$basic_string@DU?$char_traits@D@std@@V?$allocator@D@2@@std@@H@std@@@std@@@1@@Z 0043bf90 f i ScoreState.obj
 0001:0003afc0       ??0?$_List_iterator@V?$_List_val@U?$_List_simple_types@U?$pair@$$CBV?$basic_string@DU?$char_traits@D@std@@V?$allocator@D@2@@std@@H@std@@@std@@@std@@@std@@QAE@$$QAV01@@Z 0043bfc0 f i ScoreState.obj
 0001:0003aff0       ??0?$_List_iterator@V?$_List_val@U?$_List_simple_types@U?$pair@$$CBV?$basic_string@DU?$char_traits@D@std@@V?$allocator@D@2@@std@@H@std@@@std@@@std@@@std@@QAE@ABV01@@Z 0043bff0 f i ScoreState.obj
 0001:0003b020       ??0?$_List_iterator@V?$_List_val@U?$_List_simple_types@U?$pair@$$CBV?$basic_string@DU?$char_traits@D@std@@V?$allocator@D@2@@std@@H@std@@@std@@@std@@@std@@QAE@PAU?$_List_node@U?$pair@$$CBV?$basic_string@DU?$char_traits@D@std@@V?$allocator@D@2@@std@@H@std@@PAX@1@PBV?$_List_val@U?$_List_simple_types@U?$pair@$$CBV?$basic_string@DU?$char_traits@D@std@@V?$allocator@D@2@@std@@H@std@@@std@@@1@@Z 0043c020 f i ScoreState.obj
 0001:0003b050       ??0?$_List_unchecked_const_iterator@V?$_List_val@U?$_List_simple_types@U?$pair@$$CBV?$basic_string@DU?$char_traits@D@std@@V?$allocator@D@2@@std@@H@std@@@std@@@std@@U_Iterator_base0@2@@std@@QAE@PAU?$_List_node@U?$pair@$$CBV?$basic_string@DU?$char_traits@D@std@@V?$allocator@D@2@@std@@H@std@@PAX@1@PBV?$_List_val@U?$_List_simple_types@U?$pair@$$CBV?$basic_string@DU?$char_traits@D@std@@V?$allocator@D@2@@std@@H@std@@@std@@@1@@Z 0043c050 f i ScoreState.obj
 0001:0003b080       ??0?$_List_unchecked_const_iterator@V?$_List_val@U?$_List_simple_types@U?$pair@$$CBV?$basic_string@DU?$char_traits@D@std@@V?$allocator@D@2@@std@@H@std@@@std@@@std@@U_Iterator_base12@2@@std@@QAE@$$QAV01@@Z 0043c080 f i ScoreState.obj
 0001:0003b0c0       ??0?$_List_unchecked_const_iterator@V?$_List_val@U?$_List_simple_types@U?$pair@$$CBV?$basic_string@DU?$char_traits@D@std@@V?$allocator@D@2@@std@@H@std@@@std@@@std@@U_Iterator_base12@2@@std@@QAE@ABV01@@Z 0043c0c0 f i ScoreState.obj
 0001:0003b100       ??0?$_List_unchecked_const_iterator@V?$_List_val@U?$_List_simple_types@U?$pair@$$CBV?$basic_string@DU?$char_traits@D@std@@V?$allocator@D@2@@std@@H@std@@@std@@@std@@U_Iterator_base12@2@@std@@QAE@PAU?$_List_node@U?$pair@$$CBV?$basic_string@DU?$char_traits@D@std@@V?$allocator@D@2@@std@@H@std@@PAX@1@PBV?$_List_val@U?$_List_simple_types@U?$pair@$$CBV?$basic_string@DU?$char_traits@D@std@@V?$allocator@D@2@@std@@H@std@@@std@@@1@@Z 0043c100 f i ScoreState.obj
 0001:0003b140       ??0?$_List_unchecked_iterator@V?$_List_val@U?$_List_simple_types@U?$pair@$$CBV?$basic_string@DU?$char_traits@D@std@@V?$allocator@D@2@@std@@H@std@@@std@@@std@@@std@@QAE@PAU?$_List_node@U?$pair@$$CBV?$basic_string@DU?$char_traits@D@std@@V?$allocator@D@2@@std@@H@std@@PAX@1@PBV?$_List_val@U?$_List_simple_types@U?$pair@$$CBV?$basic_string@DU?$char_traits@D@std@@V?$allocator@D@2@@std@@H@std@@@std@@@1@@Z 0043c140 f i ScoreState.obj
 0001:0003b170       ??0?$_List_val@U?$_List_simple_types@U?$pair@$$CBV?$basic_string@DU?$char_traits@D@std@@V?$allocator@D@2@@std@@H@std@@@std@@@std@@QAE@XZ 0043c170 f i ScoreState.obj
 0001:0003b1b0       ??0?$_Uhash_compare@V?$basic_string@DU?$char_traits@D@std@@V?$allocator@D@2@@std@@U?$hash@V?$basic_string@DU?$char_traits@D@std@@V?$allocator@D@2@@std@@@2@U?$equal_to@V?$basic_string@DU?$char_traits@D@std@@V?$allocator@D@2@@std@@@2@@std@@QAE@XZ 0043c1b0 f i ScoreState.obj
 0001:0003b1f0       ??0?$_Umap_traits@V?$basic_string@DU?$char_traits@D@std@@V?$allocator@D@2@@std@@HV?$_Uhash_compare@V?$basic_string@DU?$char_traits@D@std@@V?$allocator@D@2@@std@@U?$hash@V?$basic_string@DU?$char_traits@D@std@@V?$allocator@D@2@@std@@@2@U?$equal_to@V?$basic_string@DU?$char_traits@D@std@@V?$allocator@D@2@@std@@@2@@2@V?$allocator@U?$pair@$$CBV?$basic_string@DU?$char_traits@D@std@@V?$allocator@D@2@@std@@H@std@@@2@$0A@@std@@QAE@ABV?$_Uhash_compare@V?$basic_string@DU?$char_traits@D@std@@V?$allocator@D@2@@std@@U?$hash@V?$basic_string@DU?$char_traits@D@std@@V?$allocator@D@2@@std@@@2@U?$equal_to@V?$basic_string@DU?$char_traits@D@std@@V?$allocator@D@2@@std@@@2@@1@@Z 0043c1f0 f i ScoreState.obj
 0001:0003b210       ??0?$_Uninitialized_backout@PAV?$_List_unchecked_iterator@V?$_List_val@U?$_List_simple_types@U?$pair@$$CBV?$basic_string@DU?$char_traits@D@std@@V?$allocator@D@2@@std@@H@std@@@std@@@std@@@std@@@std@@QAE@PAV?$_List_unchecked_iterator@V?$_List_val@U?$_List_simple_types@U?$pair@$$CBV?$basic_string@DU?$char_traits@D@std@@V?$allocator@D@2@@std@@H@std@@@std@@@std@@@1@@Z 0043c210 f i ScoreState.obj
 0001:0003b240       ??0?$_Uninitialized_backout_al@V?$allocator@U?$pair@V?$basic_string@DU?$char_traits@D@std@@V?$allocator@D@2@@std@@H@std@@@std@@@std@@QAE@PAU?$pair@V?$basic_string@DU?$char_traits@D@std@@V?$allocator@D@2@@std@@H@1@AAV?$allocator@U?$pair@V?$basic_string@DU?$char_traits@D@std@@V?$allocator@D@2@@std@@H@std@@@1@@Z 0043c240 f i ScoreState.obj
 0001:0003b280       ??0?$_Vector_const_iterator@V?$_Vector_val@U?$_Simple_types@U?$pair@V?$basic_string@DU?$char_traits@D@std@@V?$allocator@D@2@@std@@H@std@@@std@@@std@@@std@@QAE@$$QAV01@@Z 0043c280 f i ScoreState.obj
 0001:0003b2c0       ??0?$_Vector_const_iterator@V?$_Vector_val@U?$_Simple_types@U?$pair@V?$basic_string@DU?$char_traits@D@std@@V?$allocator@D@2@@std@@H@std@@@std@@@std@@@std@@QAE@ABV01@@Z 0043c2c0 f i ScoreState.obj
 0001:0003b300       ??0?$_Vector_const_iterator@V?$_Vector_val@U?$_Simple_types@U?$pair@V?$basic_string@DU?$char_traits@D@std@@V?$allocator@D@2@@std@@H@std@@@std@@@std@@@std@@QAE@PAU?$pair@V?$basic_string@DU?$char_traits@D@std@@V?$allocator@D@2@@std@@H@1@PBU_Container_base12@1@@Z 0043c300 f i ScoreState.obj
 0001:0003b340       ??0?$_Vector_iterator@V?$_Vector_val@U?$_Simple_types@U?$pair@V?$basic_string@DU?$char_traits@D@std@@V?$allocator@D@2@@std@@H@std@@@std@@@std@@@std@@QAE@$$QAV01@@Z 0043c340 f i ScoreState.obj
 0001:0003b370       ??0?$_Vector_iterator@V?$_Vector_val@U?$_Simple_types@U?$pair@V?$basic_string@DU?$char_traits@D@std@@V?$allocator@D@2@@std@@H@std@@@std@@@std@@@std@@QAE@ABV01@@Z 0043c370 f i ScoreState.obj
 0001:0003b3a0       ??0?$_Vector_iterator@V?$_Vector_val@U?$_Simple_types@U?$pair@V?$basic_string@DU?$char_traits@D@std@@V?$allocator@D@2@@std@@H@std@@@std@@@std@@@std@@QAE@PAU?$pair@V?$basic_string@DU?$char_traits@D@std@@V?$allocator@D@2@@std@@H@1@PBU_Container_base12@1@@Z 0043c3a0 f i ScoreState.obj
 0001:0003b3d0       ??0?$_Vector_val@U?$_Simple_types@U?$pair@V?$basic_string@DU?$char_traits@D@std@@V?$allocator@D@2@@std@@H@std@@@std@@@std@@QAE@XZ 0043c3d0 f i ScoreState.obj
 0001:0003b420       ??0?$_Vector_val@U?$_Simple_types@V?$_List_unchecked_iterator@V?$_List_val@U?$_List_simple_types@U?$pair@$$CBV?$basic_string@DU?$char_traits@D@std@@V?$allocator@D@2@@std@@H@std@@@std@@@std@@@std@@@std@@@std@@QAE@XZ 0043c420 f i ScoreState.obj
 0001:0003b470       ??0?$allocator@U?$pair@$$CBV?$basic_string@DU?$char_traits@D@std@@V?$allocator@D@2@@std@@H@std@@@std@@QAE@XZ 0043c470 f i ScoreState.obj
 0001:0003b490       ??0?$allocator@U?$pair@V?$basic_string@DU?$char_traits@D@std@@V?$allocator@D@2@@std@@H@std@@@std@@QAE@XZ 0043c490 f i ScoreState.obj
 0001:0003b4b0       ??0?$list@U?$pair@$$CBV?$basic_string@DU?$char_traits@D@std@@V?$allocator@D@2@@std@@H@std@@V?$allocator@U?$pair@$$CBV?$basic_string@DU?$char_traits@D@std@@V?$allocator@D@2@@std@@H@std@@@2@@std@@QAE@ABV?$allocator@U?$pair@$$CBV?$basic_string@DU?$char_traits@D@std@@V?$allocator@D@2@@std@@H@std@@@1@@Z 0043c4b0 f i ScoreState.obj
 0001:0003b4f0       ??0?$pair@$$CBV?$basic_string@DU?$char_traits@D@std@@V?$allocator@D@2@@std@@H@std@@QAE@ABU01@@Z 0043c4f0 f i ScoreState.obj
 0001:0003b530       ??0?$pair@V?$basic_string@DU?$char_traits@D@std@@V?$allocator@D@2@@std@@H@std@@QAE@$$QAU01@@Z 0043c530 f i ScoreState.obj
 0001:0003b570       ??0?$tuple@$$V@std@@QAE@ABV01@@Z 0043c570 f i ScoreState.obj
 0001:0003b590       ??0?$tuple@$$V@std@@QAE@XZ 0043c590 f i ScoreState.obj
 0001:0003b5b0       ??0?$tuple@ABV?$basic_string@DU?$char_traits@D@std@@V?$allocator@D@2@@std@@@std@@QAE@$$QAV01@@Z 0043c5b0 f i ScoreState.obj
 0001:0003b5e0       ??0?$unordered_map@V?$basic_string@DU?$char_traits@D@std@@V?$allocator@D@2@@std@@HU?$hash@V?$basic_string@DU?$char_traits@D@std@@V?$allocator@D@2@@std@@@2@U?$equal_to@V?$basic_string@DU?$char_traits@D@std@@V?$allocator@D@2@@std@@@2@V?$allocator@U?$pair@$$CBV?$basic_string@DU?$char_traits@D@std@@V?$allocator@D@2@@std@@H@std@@@2@@std@@QAE@ABV01@@Z 0043c5e0 f i ScoreState.obj
 0001:0003b630       ??0?$unordered_map@V?$basic_string@DU?$char_traits@D@std@@V?$allocator@D@2@@std@@HU?$hash@V?$basic_string@DU?$char_traits@D@std@@V?$allocator@D@2@@std@@@2@U?$equal_to@V?$basic_string@DU?$char_traits@D@std@@V?$allocator@D@2@@std@@@2@V?$allocator@U?$pair@$$CBV?$basic_string@DU?$char_traits@D@std@@V?$allocator@D@2@@std@@H@std@@@2@@std@@QAE@XZ 0043c630 f i ScoreState.obj
 0001:0003b670       ??0?$vector@U?$pair@V?$basic_string@DU?$char_traits@D@std@@V?$allocator@D@2@@std@@H@std@@V?$allocator@U?$pair@V?$basic_string@DU?$char_traits@D@std@@V?$allocator@D@2@@std@@H@std@@@2@@std@@QAE@$$QAV01@@Z 0043c670 f i ScoreState.obj
 0001:0003b730       ??0?$vector@U?$pair@V?$basic_string@DU?$char_traits@D@std@@V?$allocator@D@2@@std@@H@std@@V?$allocator@U?$pair@V?$basic_string@DU?$char_traits@D@std@@V?$allocator@D@2@@std@@H@std@@@2@@std@@QAE@XZ 0043c730 f i ScoreState.obj
 0001:0003b7b0       ??0Scyzc3FilterPoints@@QAE@HHPAVFilterPoints@@@Z 0043c7b0 f i ScoreState.obj
 0001:0003b830       ??0Scyzc3FilterPointsTranslation@@QAE@HHPAVFilterPoints@@@Z 0043c830 f i ScoreState.obj
 0001:0003b880       ??0_Clear_guard@?$_Hash@V?$_Umap_traits@V?$basic_string@DU?$char_traits@D@std@@V?$allocator@D@2@@std@@HV?$_Uhash_compare@V?$basic_string@DU?$char_traits@D@std@@V?$allocator@D@2@@std@@U?$hash@V?$basic_string@DU?$char_traits@D@std@@V?$allocator@D@2@@std@@@2@U?$equal_to@V?$basic_string@DU?$char_traits@D@std@@V?$allocator@D@2@@std@@@2@@2@V?$allocator@U?$pair@$$CBV?$basic_string@DU?$char_traits@D@std@@V?$allocator@D@2@@std@@H@std@@@2@$0A@@std@@@std@@QAE@QAV12@@Z 0043c880 f i ScoreState.obj
 0001:0003b8a0       ??0_Range_eraser@?$_Hash@V?$_Umap_traits@V?$basic_string@DU?$char_traits@D@std@@V?$allocator@D@2@@std@@HV?$_Uhash_compare@V?$basic_string@DU?$char_traits@D@std@@V?$allocator@D@2@@std@@U?$hash@V?$basic_string@DU?$char_traits@D@std@@V?$allocator@D@2@@std@@@2@U?$equal_to@V?$basic_string@DU?$char_traits@D@std@@V?$allocator@D@2@@std@@@2@@2@V?$allocator@U?$pair@$$CBV?$basic_string@DU?$char_traits@D@std@@V?$allocator@D@2@@std@@H@std@@@2@$0A@@std@@@std@@QAE@AAV?$list@U?$pair@$$CBV?$basic_string@DU?$char_traits@D@std@@V?$allocator@D@2@@std@@H@std@@V?$allocator@U?$pair@$$CBV?$basic_string@DU?$char_traits@D@std@@V?$allocator@D@2@@std@@H@std@@@2@@2@QAU?$_List_node@U?$pair@$$CBV?$basic_string@DU?$char_traits@D@std@@V?$allocator@D@2@@std@@H@std@@PAX@2@@Z 0043c8a0 f i ScoreState.obj
 0001:0003b8e0       ??1?$_Alloc_construct_ptr@V?$allocator@U?$_List_node@U?$pair@$$CBV?$basic_string@DU?$char_traits@D@std@@V?$allocator@D@2@@std@@H@std@@PAX@std@@@std@@@std@@QAE@XZ 0043c8e0 f i ScoreState.obj
 0001:0003b950       ??1?$_Hash@V?$_Umap_traits@V?$basic_string@DU?$char_traits@D@std@@V?$allocator@D@2@@std@@HV?$_Uhash_compare@V?$basic_string@DU?$char_traits@D@std@@V?$allocator@D@2@@std@@U?$hash@V?$basic_string@DU?$char_traits@D@std@@V?$allocator@D@2@@std@@@2@U?$equal_to@V?$basic_string@DU?$char_traits@D@std@@V?$allocator@D@2@@std@@@2@@2@V?$allocator@U?$pair@$$CBV?$basic_string@DU?$char_traits@D@std@@V?$allocator@D@2@@std@@H@std@@@2@$0A@@std@@@std@@QAE@XZ 0043c950 f i ScoreState.obj
 0001:0003b980       ??1?$_Hash_vec@V?$allocator@V?$_List_unchecked_iterator@V?$_List_val@U?$_List_simple_types@U?$pair@$$CBV?$basic_string@DU?$char_traits@D@std@@V?$allocator@D@2@@std@@H@std@@@std@@@std@@@std@@@std@@@std@@QAE@XZ 0043c980 f i ScoreState.obj
 0001:0003b9f0       ??1?$_List_const_iterator@V?$_List_val@U?$_List_simple_types@U?$pair@$$CBV?$basic_string@DU?$char_traits@D@std@@V?$allocator@D@2@@std@@H@std@@@std@@@std@@@std@@QAE@XZ 0043c9f0 f i ScoreState.obj
 0001:0003ba10       ??1?$_List_iterator@V?$_List_val@U?$_List_simple_types@U?$pair@$$CBV?$basic_string@DU?$char_traits@D@std@@V?$allocator@D@2@@std@@H@std@@@std@@@std@@@std@@QAE@XZ 0043ca10 f i ScoreState.obj
 0001:0003ba30       ??1?$_List_node_emplace_op2@V?$allocator@U?$_List_node@U?$pair@$$CBV?$basic_string@DU?$char_traits@D@std@@V?$allocator@D@2@@std@@H@std@@PAX@std@@@std@@@std@@QAE@XZ 0043ca30 f i ScoreState.obj
 0001:0003bac0       ??1?$_List_unchecked_const_iterator@V?$_List_val@U?$_List_simple_types@U?$pair@$$CBV?$basic_string@DU?$char_traits@D@std@@V?$allocator@D@2@@std@@H@std@@@std@@@std@@U_Iterator_base12@2@@std@@QAE@XZ 0043cac0 f i ScoreState.obj
 0001:0003bae0       ??1?$_Uninitialized_backout@PAV?$_List_unchecked_iterator@V?$_List_val@U?$_List_simple_types@U?$pair@$$CBV?$basic_string@DU?$char_traits@D@std@@V?$allocator@D@2@@std@@H@std@@@std@@@std@@@std@@@std@@QAE@XZ 0043cae0 f i ScoreState.obj
 0001:0003bb10       ??1?$_Uninitialized_backout_al@V?$allocator@U?$pair@V?$basic_string@DU?$char_traits@D@std@@V?$allocator@D@2@@std@@H@std@@@std@@@std@@QAE@XZ 0043cb10 f i ScoreState.obj
 0001:0003bb40       ??1?$_Vector_const_iterator@V?$_Vector_val@U?$_Simple_types@U?$pair@V?$basic_string@DU?$char_traits@D@std@@V?$allocator@D@2@@std@@H@std@@@std@@@std@@@std@@QAE@XZ 0043cb40 f i ScoreState.obj
 0001:0003bb60       ??1?$_Vector_iterator@V?$_Vector_val@U?$_Simple_types@U?$pair@V?$basic_string@DU?$char_traits@D@std@@V?$allocator@D@2@@std@@H@std@@@std@@@std@@@std@@QAE@XZ 0043cb60 f i ScoreState.obj
 0001:0003bb80       ??1?$list@U?$pair@$$CBV?$basic_string@DU?$char_traits@D@std@@V?$allocator@D@2@@std@@H@std@@V?$allocator@U?$pair@$$CBV?$basic_string@DU?$char_traits@D@std@@V?$allocator@D@2@@std@@H@std@@@2@@std@@QAE@XZ 0043cb80 f i ScoreState.obj
 0001:0003bbd0       ??1?$pair@$$CBV?$basic_string@DU?$char_traits@D@std@@V?$allocator@D@2@@std@@H@std@@QAE@XZ 0043cbd0 f i ScoreState.obj
 0001:0003bbf0       ??1?$pair@V?$_List_iterator@V?$_List_val@U?$_List_simple_types@U?$pair@$$CBV?$basic_string@DU?$char_traits@D@std@@V?$allocator@D@2@@std@@H@std@@@std@@@std@@@std@@_N@std@@QAE@XZ 0043cbf0 f i ScoreState.obj
 0001:0003bc10       ??1?$pair@V?$basic_string@DU?$char_traits@D@std@@V?$allocator@D@2@@std@@H@std@@QAE@XZ 0043cc10 f i ScoreState.obj
 0001:0003bc30       ??1?$unordered_map@V?$basic_string@DU?$char_traits@D@std@@V?$allocator@D@2@@std@@HU?$hash@V?$basic_string@DU?$char_traits@D@std@@V?$allocator@D@2@@std@@@2@U?$equal_to@V?$basic_string@DU?$char_traits@D@std@@V?$allocator@D@2@@std@@@2@V?$allocator@U?$pair@$$CBV?$basic_string@DU?$char_traits@D@std@@V?$allocator@D@2@@std@@H@std@@@2@@std@@QAE@XZ 0043cc30 f i ScoreState.obj
 0001:0003bc50       ??1?$vector@U?$pair@V?$basic_string@DU?$char_traits@D@std@@V?$allocator@D@2@@std@@H@std@@V?$allocator@U?$pair@V?$basic_string@DU?$char_traits@D@std@@V?$allocator@D@2@@std@@H@std@@@2@@std@@QAE@XZ 0043cc50 f i ScoreState.obj
 0001:0003bcc0       ??1_Clear_guard@?$_Hash@V?$_Umap_traits@V?$basic_string@DU?$char_traits@D@std@@V?$allocator@D@2@@std@@HV?$_Uhash_compare@V?$basic_string@DU?$char_traits@D@std@@V?$allocator@D@2@@std@@U?$hash@V?$basic_string@DU?$char_traits@D@std@@V?$allocator@D@2@@std@@@2@U?$equal_to@V?$basic_string@DU?$char_traits@D@std@@V?$allocator@D@2@@std@@@2@@2@V?$allocator@U?$pair@$$CBV?$basic_string@DU?$char_traits@D@std@@V?$allocator@D@2@@std@@H@std@@@2@$0A@@std@@@std@@QAE@XZ 0043ccc0 f i ScoreState.obj
 0001:0003bcf0       ??1_Range_eraser@?$_Hash@V?$_Umap_traits@V?$basic_string@DU?$char_traits@D@std@@V?$allocator@D@2@@std@@HV?$_Uhash_compare@V?$basic_string@DU?$char_traits@D@std@@V?$allocator@D@2@@std@@U?$hash@V?$basic_string@DU?$char_traits@D@std@@V?$allocator@D@2@@std@@@2@U?$equal_to@V?$basic_string@DU?$char_traits@D@std@@V?$allocator@D@2@@std@@@2@@2@V?$allocator@U?$pair@$$CBV?$basic_string@DU?$char_traits@D@std@@V?$allocator@D@2@@std@@H@std@@@2@$0A@@std@@@std@@QAE@XZ 0043ccf0 f i ScoreState.obj
 0001:0003bd20       ??4?$vector@U?$pair@V?$basic_string@DU?$char_traits@D@std@@V?$allocator@D@2@@std@@H@std@@V?$allocator@U?$pair@V?$basic_string@DU?$char_traits@D@std@@V?$allocator@D@2@@std@@H@std@@@2@@std@@QAEAAV01@$$QAV01@@Z 0043cd20 f i ScoreState.obj
 0001:0003bd70       ??8?$_List_const_iterator@V?$_List_val@U?$_List_simple_types@U?$pair@$$CBV?$basic_string@DU?$char_traits@D@std@@V?$allocator@D@2@@std@@H@std@@@std@@@std@@@std@@QBE_NABV01@@Z 0043cd70 f i ScoreState.obj
 0001:0003be30       ??8?$_List_unchecked_const_iterator@V?$_List_val@U?$_List_simple_types@U?$pair@$$CBV?$basic_string@DU?$char_traits@D@std@@V?$allocator@D@2@@std@@H@std@@@std@@@std@@U_Iterator_base0@2@@std@@QBE_NABV01@@Z 0043ce30 f i ScoreState.obj
 0001:0003be70       ??8?$_Vector_const_iterator@V?$_Vector_val@U?$_Simple_types@U?$pair@V?$basic_string@DU?$char_traits@D@std@@V?$allocator@D@2@@std@@H@std@@@std@@@std@@@std@@QBE_NABV01@@Z 0043ce70 f i ScoreState.obj
 0001:0003bec0       ??9?$_List_const_iterator@V?$_List_val@U?$_List_simple_types@U?$pair@$$CBV?$basic_string@DU?$char_traits@D@std@@V?$allocator@D@2@@std@@H@std@@@std@@@std@@@std@@QBE_NABV01@@Z 0043cec0 f i ScoreState.obj
 0001:0003bf10       ??9?$_List_unchecked_const_iterator@V?$_List_val@U?$_List_simple_types@U?$pair@$$CBV?$basic_string@DU?$char_traits@D@std@@V?$allocator@D@2@@std@@H@std@@@std@@@std@@U_Iterator_base0@2@@std@@QBE_NABV01@@Z 0043cf10 f i ScoreState.obj
 0001:0003bf60       ??9?$_Vector_const_iterator@V?$_Vector_val@U?$_Simple_types@U?$pair@V?$basic_string@DU?$char_traits@D@std@@V?$allocator@D@2@@std@@H@std@@@std@@@std@@@std@@QBE_NABV01@@Z 0043cf60 f i ScoreState.obj
 0001:0003bfb0       ??A?$unordered_map@V?$basic_string@DU?$char_traits@D@std@@V?$allocator@D@2@@std@@HU?$hash@V?$basic_string@DU?$char_traits@D@std@@V?$allocator@D@2@@std@@@2@U?$equal_to@V?$basic_string@DU?$char_traits@D@std@@V?$allocator@D@2@@std@@@2@V?$allocator@U?$pair@$$CBV?$basic_string@DU?$char_traits@D@std@@V?$allocator@D@2@@std@@H@std@@@2@@std@@QAEAAHABV?$basic_string@DU?$char_traits@D@std@@V?$allocator@D@2@@1@@Z 0043cfb0 f i ScoreState.obj
 0001:0003bfe0       ??C?$_List_iterator@V?$_List_val@U?$_List_simple_types@U?$pair@$$CBV?$basic_string@DU?$char_traits@D@std@@V?$allocator@D@2@@std@@H@std@@@std@@@std@@@std@@QBEPAU?$pair@$$CBV?$basic_string@DU?$char_traits@D@std@@V?$allocator@D@2@@std@@H@1@XZ 0043cfe0 f i ScoreState.obj
 0001:0003c010       ??C?$_Vector_const_iterator@V?$_Vector_val@U?$_Simple_types@U?$pair@V?$basic_string@DU?$char_traits@D@std@@V?$allocator@D@2@@std@@H@std@@@std@@@std@@@std@@QBEPBU?$pair@V?$basic_string@DU?$char_traits@D@std@@V?$allocator@D@2@@std@@H@1@XZ 0043d010 f i ScoreState.obj
 0001:0003c120       ??C?$_Vector_iterator@V?$_Vector_val@U?$_Simple_types@U?$pair@V?$basic_string@DU?$char_traits@D@std@@V?$allocator@D@2@@std@@H@std@@@std@@@std@@@std@@QBEPAU?$pair@V?$basic_string@DU?$char_traits@D@std@@V?$allocator@D@2@@std@@H@1@XZ 0043d120 f i ScoreState.obj
 0001:0003c150       ??D?$_List_const_iterator@V?$_List_val@U?$_List_simple_types@U?$pair@$$CBV?$basic_string@DU?$char_traits@D@std@@V?$allocator@D@2@@std@@H@std@@@std@@@std@@@std@@QBEABU?$pair@$$CBV?$basic_string@DU?$char_traits@D@std@@V?$allocator@D@2@@std@@H@1@XZ 0043d150 f i ScoreState.obj
 0001:0003c260       ??D?$_List_iterator@V?$_List_val@U?$_List_simple_types@U?$pair@$$CBV?$basic_string@DU?$char_traits@D@std@@V?$allocator@D@2@@std@@H@std@@@std@@@std@@@std@@QBEAAU?$pair@$$CBV?$basic_string@DU?$char_traits@D@std@@V?$allocator@D@2@@std@@H@1@XZ 0043d260 f i ScoreState.obj
 0001:0003c280       ??D?$_List_unchecked_const_iterator@V?$_List_val@U?$_List_simple_types@U?$pair@$$CBV?$basic_string@DU?$char_traits@D@std@@V?$allocator@D@2@@std@@H@std@@@std@@@std@@U_Iterator_base0@2@@std@@QBEABU?$pair@$$CBV?$basic_string@DU?$char_traits@D@std@@V?$allocator@D@2@@std@@H@1@XZ 0043d280 f i ScoreState.obj
 0001:0003c2a0       ??D?$_List_unchecked_iterator@V?$_List_val@U?$_List_simple_types@U?$pair@$$CBV?$basic_string@DU?$char_traits@D@std@@V?$allocator@D@2@@std@@H@std@@@std@@@std@@@std@@QBEAAU?$pair@$$CBV?$basic_string@DU?$char_traits@D@std@@V?$allocator@D@2@@std@@H@1@XZ 0043d2a0 f i ScoreState.obj
 0001:0003c2c0       ??E?$_List_const_iterator@V?$_List_val@U?$_List_simple_types@U?$pair@$$CBV?$basic_string@DU?$char_traits@D@std@@V?$allocator@D@2@@std@@H@std@@@std@@@std@@@std@@QAEAAV01@XZ 0043d2c0 f i ScoreState.obj
 0001:0003c3e0       ??E?$_List_iterator@V?$_List_val@U?$_List_simple_types@U?$pair@$$CBV?$basic_string@DU?$char_traits@D@std@@V?$allocator@D@2@@std@@H@std@@@std@@@std@@@std@@QAE?AV01@H@Z 0043d3e0 f i ScoreState.obj
 0001:0003c430       ??E?$_List_unchecked_const_iterator@V?$_List_val@U?$_List_simple_types@U?$pair@$$CBV?$basic_string@DU?$char_traits@D@std@@V?$allocator@D@2@@std@@H@std@@@std@@@std@@U_Iterator_base0@2@@std@@QAEAAV01@XZ 0043d430 f i ScoreState.obj
 0001:0003c450       ??E?$_List_unchecked_iterator@V?$_List_val@U?$_List_simple_types@U?$pair@$$CBV?$basic_string@DU?$char_traits@D@std@@V?$allocator@D@2@@std@@H@std@@@std@@@std@@@std@@QAEAAV01@XZ 0043d450 f i ScoreState.obj
 0001:0003c470       ??E?$_Vector_const_iterator@V?$_Vector_val@U?$_Simple_types@U?$pair@V?$basic_string@DU?$char_traits@D@std@@V?$allocator@D@2@@std@@H@std@@@std@@@std@@@std@@QAEAAV01@XZ 0043d470 f i ScoreState.obj
 0001:0003c580       ??E?$_Vector_iterator@V?$_Vector_val@U?$_Simple_types@U?$pair@V?$basic_string@DU?$char_traits@D@std@@V?$allocator@D@2@@std@@H@std@@@std@@@std@@@std@@QAE?AV01@H@Z 0043d580 f i ScoreState.obj
 0001:0003c5d0       ??F?$_List_unchecked_const_iterator@V?$_List_val@U?$_List_simple_types@U?$pair@$$CBV?$basic_string@DU?$char_traits@D@std@@V?$allocator@D@2@@std@@H@std@@@std@@@std@@U_Iterator_base0@2@@std@@QAEAAV01@XZ 0043d5d0 f i ScoreState.obj
 0001:0003c600       ??R<lambda_70542a7f21a635fab700a8d613894b15>@@QBEHABU?$pair@V?$basic_string@DU?$char_traits@D@std@@V?$allocator@D@2@@std@@H@std@@0@Z 0043d600 f i ScoreState.obj
 0001:0003c640       ??R?$equal_to@V?$basic_string@DU?$char_traits@D@std@@V?$allocator@D@2@@std@@@std@@QBE_NABV?$basic_string@DU?$char_traits@D@std@@V?$allocator@D@2@@1@0@Z 0043d640 f i ScoreState.obj
 0001:0003c670       ??R?$hash@V?$basic_string@DU?$char_traits@D@std@@V?$allocator@D@2@@std@@@std@@QBEIABV?$basic_string@DU?$char_traits@D@std@@V?$allocator@D@2@@1@@Z 0043d670 f i ScoreState.obj
 0001:0003c6a0       ??_G?$pair@$$CBV?$basic_string@DU?$char_traits@D@std@@V?$allocator@D@2@@std@@H@std@@QAEPAXI@Z 0043d6a0 f i ScoreState.obj
 0001:0003c6e0       ??_G?$pair@V?$basic_string@DU?$char_traits@D@std@@V?$allocator@D@2@@std@@H@std@@QAEPAXI@Z 0043d6e0 f i ScoreState.obj
 0001:0003c720       ?_Alloc_sentinel_and_proxy@?$list@U?$pair@$$CBV?$basic_string@DU?$char_traits@D@std@@V?$allocator@D@2@@std@@H@std@@V?$allocator@U?$pair@$$CBV?$basic_string@DU?$char_traits@D@std@@V?$allocator@D@2@@std@@H@std@@@2@@std@@AAEXXZ 0043d720 f i ScoreState.obj
 0001:0003c810       ?_Allocate@?$_Alloc_construct_ptr@V?$allocator@U?$_List_node@U?$pair@$$CBV?$basic_string@DU?$char_traits@D@std@@V?$allocator@D@2@@std@@H@std@@PAX@std@@@std@@@std@@QAEXXZ 0043d810 f i ScoreState.obj
 0001:0003c840       ?_Assign_grow@?$_Hash_vec@V?$allocator@V?$_List_unchecked_iterator@V?$_List_val@U?$_List_simple_types@U?$pair@$$CBV?$basic_string@DU?$char_traits@D@std@@V?$allocator@D@2@@std@@H@std@@@std@@@std@@@std@@@std@@@std@@QAEXIV?$_List_unchecked_iterator@V?$_List_val@U?$_List_simple_types@U?$pair@$$CBV?$basic_string@DU?$char_traits@D@std@@V?$allocator@D@2@@std@@H@std@@@std@@@std@@@2@@Z 0043d840 f i ScoreState.obj
 0001:0003c940       ?_Bump_erased@_Range_eraser@?$_Hash@V?$_Umap_traits@V?$basic_string@DU?$char_traits@D@std@@V?$allocator@D@2@@std@@HV?$_Uhash_compare@V?$basic_string@DU?$char_traits@D@std@@V?$allocator@D@2@@std@@U?$hash@V?$basic_string@DU?$char_traits@D@std@@V?$allocator@D@2@@std@@@2@U?$equal_to@V?$basic_string@DU?$char_traits@D@std@@V?$allocator@D@2@@std@@@2@@2@V?$allocator@U?$pair@$$CBV?$basic_string@DU?$char_traits@D@std@@V?$allocator@D@2@@std@@H@std@@@2@$0A@@std@@@std@@QAEXXZ 0043d940 f i ScoreState.obj
 0001:0003c960       ?_Calculate_growth@?$vector@U?$pair@V?$basic_string@DU?$char_traits@D@std@@V?$allocator@D@2@@std@@H@std@@V?$allocator@U?$pair@V?$basic_string@DU?$char_traits@D@std@@V?$allocator@D@2@@std@@H@std@@@2@@std@@ABEII@Z 0043d960 f i ScoreState.obj
 0001:0003c9d0       ?_Ceiling_of_log_2@std@@YAKI@Z 0043d9d0 f i ScoreState.obj
 0001:0003c9f0       ?_Change_array@?$vector@U?$pair@V?$basic_string@DU?$char_traits@D@std@@V?$allocator@D@2@@std@@H@std@@V?$allocator@U?$pair@V?$basic_string@DU?$char_traits@D@std@@V?$allocator@D@2@@std@@H@std@@@2@@std@@AAEXQAU?$pair@V?$basic_string@DU?$char_traits@D@std@@V?$allocator@D@2@@std@@H@2@II@Z 0043d9f0 f i ScoreState.obj
 0001:0003cac0       ?_Check_max_size@?$_Hash@V?$_Umap_traits@V?$basic_string@DU?$char_traits@D@std@@V?$allocator@D@2@@std@@HV?$_Uhash_compare@V?$basic_string@DU?$char_traits@D@std@@V?$allocator@D@2@@std@@U?$hash@V?$basic_string@DU?$char_traits@D@std@@V?$allocator@D@2@@std@@@2@U?$equal_to@V?$basic_string@DU?$char_traits@D@std@@V?$allocator@D@2@@std@@@2@@2@V?$allocator@U?$pair@$$CBV?$basic_string@DU?$char_traits@D@std@@V?$allocator@D@2@@std@@H@std@@@2@$0A@@std@@@std@@IBEXXZ 0043dac0 f i ScoreState.obj
 0001:0003cb00       ?_Check_rehash_required_1@?$_Hash@V?$_Umap_traits@V?$basic_string@DU?$char_traits@D@std@@V?$allocator@D@2@@std@@HV?$_Uhash_compare@V?$basic_string@DU?$char_traits@D@std@@V?$allocator@D@2@@std@@U?$hash@V?$basic_string@DU?$char_traits@D@std@@V?$allocator@D@2@@std@@@2@U?$equal_to@V?$basic_string@DU?$char_traits@D@std@@V?$allocator@D@2@@std@@@2@@2@V?$allocator@U?$pair@$$CBV?$basic_string@DU?$char_traits@D@std@@V?$allocator@D@2@@std@@H@std@@@2@$0A@@std@@@std@@IBE_NXZ 0043db00 f i ScoreState.obj
 0001:0003cbe0       ?_Compat@?$_Vector_const_iterator@V?$_Vector_val@U?$_Simple_types@U?$pair@V?$basic_string@DU?$char_traits@D@std@@V?$allocator@D@2@@std@@H@std@@@std@@@std@@@std@@QBEXABV12@@Z 0043dbe0 f i ScoreState.obj
 0001:0003cc80       ?_Desired_grow_bucket_count@?$_Hash@V?$_Umap_traits@V?$basic_string@DU?$char_traits@D@std@@V?$allocator@D@2@@std@@HV?$_Uhash_compare@V?$basic_string@DU?$char_traits@D@std@@V?$allocator@D@2@@std@@U?$hash@V?$basic_string@DU?$char_traits@D@std@@V?$allocator@D@2@@std@@@2@U?$equal_to@V?$basic_string@DU?$char_traits@D@std@@V?$allocator@D@2@@std@@@2@@2@V?$allocator@U?$pair@$$CBV?$basic_string@DU?$char_traits@D@std@@V?$allocator@D@2@@std@@H@std@@@2@$0A@@std@@@std@@IBEII@Z 0043dc80 f i ScoreState.obj
 0001:0003cd10       ?_Destroy@?$vector@U?$pair@V?$basic_string@DU?$char_traits@D@std@@V?$allocator@D@2@@std@@H@std@@V?$allocator@U?$pair@V?$basic_string@DU?$char_traits@D@std@@V?$allocator@D@2@@std@@H@std@@@2@@std@@AAEXPAU?$pair@V?$basic_string@DU?$char_traits@D@std@@V?$allocator@D@2@@std@@H@2@0@Z 0043dd10 f i ScoreState.obj
 0001:0003cd40       ?_Equal@?$basic_string@DU?$char_traits@D@std@@V?$allocator@D@2@@std@@QBE_NABV12@@Z 0043dd40 f i ScoreState.obj
 0001:0003cd90       ?_Extract@?$_In_place_key_extract_map@V?$basic_string@DU?$char_traits@D@std@@V?$allocator@D@2@@std@@U?$pair@$$CBV?$basic_string@DU?$char_traits@D@std@@V?$allocator@D@2@@std@@H@2@@std@@SAABV?$basic_string@DU?$char_traits@D@std@@V?$allocator@D@2@@2@ABU?$pair@$$CBV?$basic_string@DU?$char_traits@D@std@@V?$allocator@D@2@@std@@H@2@@Z 0043dd90 f i ScoreState.obj
 0001:0003cda0       ?_Floor_of_log_2@std@@YAKI@Z 0043dda0 f i ScoreState.obj
 0001:0003cdd0       ?_Fnv1a_append_bytes@std@@YAIIQBEI@Z 0043ddd0 f i ScoreState.obj
 0001:0003ce20       ?_Forced_rehash@?$_Hash@V?$_Umap_traits@V?$basic_string@DU?$char_traits@D@std@@V?$allocator@D@2@@std@@HV?$_Uhash_compare@V?$basic_string@DU?$char_traits@D@std@@V?$allocator@D@2@@std@@U?$hash@V?$basic_string@DU?$char_traits@D@std@@V?$allocator@D@2@@std@@@2@U?$equal_to@V?$basic_string@DU?$char_traits@D@std@@V?$allocator@D@2@@std@@@2@@2@V?$allocator@U?$pair@$$CBV?$basic_string@DU?$char_traits@D@std@@V?$allocator@D@2@@std@@H@std@@@2@$0A@@std@@@std@@IAEXI@Z 0043de20 f i ScoreState.obj
 0001:0003d140       ?_Get_first@?$_Compressed_pair@U?$equal_to@V?$basic_string@DU?$char_traits@D@std@@V?$allocator@D@2@@std@@@std@@M$00@std@@QBEABU?$equal_to@V?$basic_string@DU?$char_traits@D@std@@V?$allocator@D@2@@std@@@2@XZ 0043e140 f i ScoreState.obj
 0001:0003d160       ?_Get_first@?$_Compressed_pair@U?$hash@V?$basic_string@DU?$char_traits@D@std@@V?$allocator@D@2@@std@@@std@@V?$_Compressed_pair@U?$equal_to@V?$basic_string@DU?$char_traits@D@std@@V?$allocator@D@2@@std@@@std@@M$00@2@$00@std@@QBEABU?$hash@V?$basic_string@DU?$char_traits@D@std@@V?$allocator@D@2@@std@@@2@XZ 0043e160 f i ScoreState.obj
 0001:0003d180       ?_Get_first@?$_Compressed_pair@V?$allocator@U?$_List_node@U?$pair@$$CBV?$basic_string@DU?$char_traits@D@std@@V?$allocator@D@2@@std@@H@std@@PAX@std@@@std@@V?$_List_val@U?$_List_simple_types@U?$pair@$$CBV?$basic_string@DU?$char_traits@D@std@@V?$allocator@D@2@@std@@H@std@@@std@@@2@$00@std@@QAEAAV?$allocator@U?$_List_node@U?$pair@$$CBV?$basic_string@DU?$char_traits@D@std@@V?$allocator@D@2@@std@@H@std@@PAX@std@@@2@XZ 0043e180 f i ScoreState.obj
 0001:0003d1a0       ?_Get_first@?$_Compressed_pair@V?$allocator@U?$_List_node@U?$pair@$$CBV?$basic_string@DU?$char_traits@D@std@@V?$allocator@D@2@@std@@H@std@@PAX@std@@@std@@V?$_List_val@U?$_List_simple_types@U?$pair@$$CBV?$basic_string@DU?$char_traits@D@std@@V?$allocator@D@2@@std@@H@std@@@std@@@2@$00@std@@QBEABV?$allocator@U?$_List_node@U?$pair@$$CBV?$basic_string@DU?$char_traits@D@std@@V?$allocator@D@2@@std@@H@std@@PAX@std@@@2@XZ 0043e1a0 f i ScoreState.obj
 0001:0003d1c0       ?_Get_first@?$_Compressed_pair@V?$allocator@U?$pair@V?$basic_string@DU?$char_traits@D@std@@V?$allocator@D@2@@std@@H@std@@@std@@V?$_Vector_val@U?$_Simple_types@U?$pair@V?$basic_string@DU?$char_traits@D@std@@V?$allocator@D@2@@std@@H@std@@@std@@@2@$00@std@@QAEAAV?$allocator@U?$pair@V?$basic_string@DU?$char_traits@D@std@@V?$allocator@D@2@@std@@H@std@@@2@XZ 0043e1c0 f i ScoreState.obj
 0001:0003d1e0       ?_Get_first@?$_Compressed_pair@V?$allocator@U?$pair@V?$basic_string@DU?$char_traits@D@std@@V?$allocator@D@2@@std@@H@std@@@std@@V?$_Vector_val@U?$_Simple_types@U?$pair@V?$basic_string@DU?$char_traits@D@std@@V?$allocator@D@2@@std@@H@std@@@std@@@2@$00@std@@QBEABV?$allocator@U?$pair@V?$basic_string@DU?$char_traits@D@std@@V?$allocator@D@2@@std@@H@std@@@2@XZ 0043e1e0 f i ScoreState.obj
 0001:0003d200       ?_Get_first@?$_Compressed_pair@V?$allocator@V?$_List_unchecked_iterator@V?$_List_val@U?$_List_simple_types@U?$pair@$$CBV?$basic_string@DU?$char_traits@D@std@@V?$allocator@D@2@@std@@H@std@@@std@@@std@@@std@@@std@@V?$_Vector_val@U?$_Simple_types@V?$_List_unchecked_iterator@V?$_List_val@U?$_List_simple_types@U?$pair@$$CBV?$basic_string@DU?$char_traits@D@std@@V?$allocator@D@2@@std@@H@std@@@std@@@std@@@std@@@std@@@2@$00@std@@QAEAAV?$allocator@V?$_List_unchecked_iterator@V?$_List_val@U?$_List_simple_types@U?$pair@$$CBV?$basic_string@DU?$char_traits@D@std@@V?$allocator@D@2@@std@@H@std@@@std@@@std@@@std@@@2@XZ 0043e200 f i ScoreState.obj
 0001:0003d220       ?_Get_first@?$_Compressed_pair@V?$allocator@V?$_List_unchecked_iterator@V?$_List_val@U?$_List_simple_types@U?$pair@$$CBV?$basic_string@DU?$char_traits@D@std@@V?$allocator@D@2@@std@@H@std@@@std@@@std@@@std@@@std@@V?$_Vector_val@U?$_Simple_types@V?$_List_unchecked_iterator@V?$_List_val@U?$_List_simple_types@U?$pair@$$CBV?$basic_string@DU?$char_traits@D@std@@V?$allocator@D@2@@std@@H@std@@@std@@@std@@@std@@@std@@@2@$00@std@@QBEABV?$allocator@V?$_List_unchecked_iterator@V?$_List_val@U?$_List_simple_types@U?$pair@$$CBV?$basic_string@DU?$char_traits@D@std@@V?$allocator@D@2@@std@@H@std@@@std@@@std@@@std@@@2@XZ 0043e220 f i ScoreState.obj
 0001:0003d240       ?_Get_max_bucket_size@?$_Uhash_compare@V?$basic_string@DU?$char_traits@D@std@@V?$allocator@D@2@@std@@U?$hash@V?$basic_string@DU?$char_traits@D@std@@V?$allocator@D@2@@std@@@2@U?$equal_to@V?$basic_string@DU?$char_traits@D@std@@V?$allocator@D@2@@std@@@2@@std@@QAEAAMXZ 0043e240 f i ScoreState.obj
 0001:0003d260       ?_Get_max_bucket_size@?$_Uhash_compare@V?$basic_string@DU?$char_traits@D@std@@V?$allocator@D@2@@std@@U?$hash@V?$basic_string@DU?$char_traits@D@std@@V?$allocator@D@2@@std@@@2@U?$equal_to@V?$basic_string@DU?$char_traits@D@std@@V?$allocator@D@2@@std@@@2@@std@@QBEABMXZ 0043e260 f i ScoreState.obj
 0001:0003d280       ?_Getal@?$_Hash@V?$_Umap_traits@V?$basic_string@DU?$char_traits@D@std@@V?$allocator@D@2@@std@@HV?$_Uhash_compare@V?$basic_string@DU?$char_traits@D@std@@V?$allocator@D@2@@std@@U?$hash@V?$basic_string@DU?$char_traits@D@std@@V?$allocator@D@2@@std@@@2@U?$equal_to@V?$basic_string@DU?$char_traits@D@std@@V?$allocator@D@2@@std@@@2@@2@V?$allocator@U?$pair@$$CBV?$basic_string@DU?$char_traits@D@std@@V?$allocator@D@2@@std@@H@std@@@2@$0A@@std@@@std@@IBEABV?$allocator@U?$_List_node@U?$pair@$$CBV?$basic_string@DU?$char_traits@D@std@@V?$allocator@D@2@@std@@H@std@@PAX@std@@@2@XZ 0043e280 f i ScoreState.obj
 0001:0003d2a0       ?_Getal@?$list@U?$pair@$$CBV?$basic_string@DU?$char_traits@D@std@@V?$allocator@D@2@@std@@H@std@@V?$allocator@U?$pair@$$CBV?$basic_string@DU?$char_traits@D@std@@V?$allocator@D@2@@std@@H@std@@@2@@std@@AAEAAV?$allocator@U?$_List_node@U?$pair@$$CBV?$basic_string@DU?$char_traits@D@std@@V?$allocator@D@2@@std@@H@std@@PAX@std@@@2@XZ 0043e2a0 f i ScoreState.obj
 0001:0003d2c0       ?_Getal@?$list@U?$pair@$$CBV?$basic_string@DU?$char_traits@D@std@@V?$allocator@D@2@@std@@H@std@@V?$allocator@U?$pair@$$CBV?$basic_string@DU?$char_traits@D@std@@V?$allocator@D@2@@std@@H@std@@@2@@std@@ABEABV?$allocator@U?$_List_node@U?$pair@$$CBV?$basic_string@DU?$char_traits@D@std@@V?$allocator@D@2@@std@@H@std@@PAX@std@@@2@XZ 0043e2c0 f i ScoreState.obj
 0001:0003d2e0       ?_Getal@?$vector@U?$pair@V?$basic_string@DU?$char_traits@D@std@@V?$allocator@D@2@@std@@H@std@@V?$allocator@U?$pair@V?$basic_string@DU?$char_traits@D@std@@V?$allocator@D@2@@std@@H@std@@@2@@std@@AAEAAV?$allocator@U?$pair@V?$basic_string@DU?$char_traits@D@std@@V?$allocator@D@2@@std@@H@std@@@2@XZ 0043e2e0 f i ScoreState.obj
 0001:0003d300       ?_Getal@?$vector@U?$pair@V?$basic_string@DU?$char_traits@D@std@@V?$allocator@D@2@@std@@H@std@@V?$allocator@U?$pair@V?$basic_string@DU?$char_traits@D@std@@V?$allocator@D@2@@std@@H@std@@@2@@std@@ABEABV?$allocator@U?$pair@V?$basic_string@DU?$char_traits@D@std@@V?$allocator@D@2@@std@@H@std@@@2@XZ 0043e300 f i ScoreState.obj
 0001:0003d320       ?_Insert_new_node_before@?$_Hash@V?$_Umap_traits@V?$basic_string@DU?$char_traits@D@std@@V?$allocator@D@2@@std@@HV?$_Uhash_compare@V?$basic_string@DU?$char_traits@D@std@@V?$allocator@D@2@@std@@U?$hash@V?$basic_string@DU?$char_traits@D@std@@V?$allocator@D@2@@std@@@2@U?$equal_to@V?$basic_string@DU?$char_traits@D@std@@V?$allocator@D@2@@std@@@2@@2@V?$allocator@U?$pair@$$CBV?$basic_string@DU?$char_traits@D@std@@V?$allocator@D@2@@std@@H@std@@@2@$0A@@std@@@std@@IAEPAU?$_List_node@U?$pair@$$CBV?$basic_string@DU?$char_traits@D@std@@V?$allocator@D@2@@std@@H@std@@PAX@2@IQAU32@0@Z 0043e320 f i ScoreState.obj
 0001:0003d440       ?_Make_iter@?$list@U?$pair@$$CBV?$basic_string@DU?$char_traits@D@std@@V?$allocator@D@2@@std@@H@std@@V?$allocator@U?$pair@$$CBV?$basic_string@DU?$char_traits@D@std@@V?$allocator@D@2@@std@@H@std@@@2@@std@@QBE?AV?$_List_iterator@V?$_List_val@U?$_List_simple_types@U?$pair@$$CBV?$basic_string@DU?$char_traits@D@std@@V?$allocator@D@2@@std@@H@std@@@std@@@std@@@2@PAU?$_List_node@U?$pair@$$CBV?$basic_string@DU?$char_traits@D@std@@V?$allocator@D@2@@std@@H@std@@PAX@2@@Z 0043e440 f i ScoreState.obj
 0001:0003d480       ?_Max_bucket_size@?$_Hash@V?$_Umap_traits@V?$basic_string@DU?$char_traits@D@std@@V?$allocator@D@2@@std@@HV?$_Uhash_compare@V?$basic_string@DU?$char_traits@D@std@@V?$allocator@D@2@@std@@U?$hash@V?$basic_string@DU?$char_traits@D@std@@V?$allocator@D@2@@std@@@2@U?$equal_to@V?$basic_string@DU?$char_traits@D@std@@V?$allocator@D@2@@std@@@2@@2@V?$allocator@U?$pair@$$CBV?$basic_string@DU?$char_traits@D@std@@V?$allocator@D@2@@std@@H@std@@@2@$0A@@std@@@std@@IAEAAMXZ 0043e480 f i ScoreState.obj
 0001:0003d4a0       ?_Max_bucket_size@?$_Hash@V?$_Umap_traits@V?$basic_string@DU?$char_traits@D@std@@V?$allocator@D@2@@std@@HV?$_Uhash_compare@V?$basic_string@DU?$char_traits@D@std@@V?$allocator@D@2@@std@@U?$hash@V?$basic_string@DU?$char_traits@D@std@@V?$allocator@D@2@@std@@@2@U?$equal_to@V?$basic_string@DU?$char_traits@D@std@@V?$allocator@D@2@@std@@@2@@2@V?$allocator@U?$pair@$$CBV?$basic_string@DU?$char_traits@D@std@@V?$allocator@D@2@@std@@H@std@@@2@$0A@@std@@@std@@IBEABMXZ 0043e4a0 f i ScoreState.obj
 0001:0003d4c0       ?_Min_load_factor_buckets@?$_Hash@V?$_Umap_traits@V?$basic_string@DU?$char_traits@D@std@@V?$allocator@D@2@@std@@HV?$_Uhash_compare@V?$basic_string@DU?$char_traits@D@std@@V?$allocator@D@2@@std@@U?$hash@V?$basic_string@DU?$char_traits@D@std@@V?$allocator@D@2@@std@@@2@U?$equal_to@V?$basic_string@DU?$char_traits@D@std@@V?$allocator@D@2@@std@@@2@@2@V?$allocator@U?$pair@$$CBV?$basic_string@DU?$char_traits@D@std@@V?$allocator@D@2@@std@@H@std@@@2@$0A@@std@@@std@@IBEII@Z 0043e4c0 f i ScoreState.obj
 0001:0003d550       ?_Move_assign@?$vector@U?$pair@V?$basic_string@DU?$char_traits@D@std@@V?$allocator@D@2@@std@@H@std@@V?$allocator@U?$pair@V?$basic_string@DU?$char_traits@D@std@@V?$allocator@D@2@@std@@H@std@@@2@@std@@AAEXAAV12@U_Equal_allocators@2@@Z 0043e550 f i ScoreState.obj
 0001:0003d5a0       ?_Move_construct@?$vector@U?$pair@V?$basic_string@DU?$char_traits@D@std@@V?$allocator@D@2@@std@@H@std@@V?$allocator@U?$pair@V?$basic_string@DU?$char_traits@D@std@@V?$allocator@D@2@@std@@H@std@@@2@@std@@AAEXAAV12@U?$integral_constant@_N$00@2@@Z 0043e5a0 f i ScoreState.obj
 0001:0003d5c0       ?_Orphan_non_end@?$_List_val@U?$_List_simple_types@U?$pair@$$CBV?$basic_string@DU?$char_traits@D@std@@V?$allocator@D@2@@std@@H@std@@@std@@@std@@QAEXXZ 0043e5c0 f i ScoreState.obj
 0001:0003d660       ?_Orphan_range@?$vector@U?$pair@V?$basic_string@DU?$char_traits@D@std@@V?$allocator@D@2@@std@@H@std@@V?$allocator@U?$pair@V?$basic_string@DU?$char_traits@D@std@@V?$allocator@D@2@@std@@H@std@@@2@@std@@ABEXPAU?$pair@V?$basic_string@DU?$char_traits@D@std@@V?$allocator@D@2@@std@@H@2@0@Z 0043e660 f i ScoreState.obj
 0001:0003d700       ?_Rehash_for_1@?$_Hash@V?$_Umap_traits@V?$basic_string@DU?$char_traits@D@std@@V?$allocator@D@2@@std@@HV?$_Uhash_compare@V?$basic_string@DU?$char_traits@D@std@@V?$allocator@D@2@@std@@U?$hash@V?$basic_string@DU?$char_traits@D@std@@V?$allocator@D@2@@std@@@2@U?$equal_to@V?$basic_string@DU?$char_traits@D@std@@V?$allocator@D@2@@std@@@2@@2@V?$allocator@U?$pair@$$CBV?$basic_string@DU?$char_traits@D@std@@V?$allocator@D@2@@std@@H@std@@@2@$0A@@std@@@std@@IAEXXZ 0043e700 f i ScoreState.obj
 0001:0003d750       ?_Release@?$_Alloc_construct_ptr@V?$allocator@U?$_List_node@U?$pair@$$CBV?$basic_string@DU?$char_traits@D@std@@V?$allocator@D@2@@std@@H@std@@PAX@std@@@std@@@std@@QAEPAU?$_List_node@U?$pair@$$CBV?$basic_string@DU?$char_traits@D@std@@V?$allocator@D@2@@std@@H@std@@PAX@2@XZ 0043e750 f i ScoreState.obj
 0001:0003d780       ?_Release@?$_Uninitialized_backout@PAV?$_List_unchecked_iterator@V?$_List_val@U?$_List_simple_types@U?$pair@$$CBV?$basic_string@DU?$char_traits@D@std@@V?$allocator@D@2@@std@@H@std@@@std@@@std@@@std@@@std@@QAEPAV?$_List_unchecked_iterator@V?$_List_val@U?$_List_simple_types@U?$pair@$$CBV?$basic_string@DU?$char_traits@D@std@@V?$allocator@D@2@@std@@H@std@@@std@@@std@@@2@XZ 0043e780 f i ScoreState.obj
 0001:0003d7b0       ?_Release@?$_Uninitialized_backout_al@V?$allocator@U?$pair@V?$basic_string@DU?$char_traits@D@std@@V?$allocator@D@2@@std@@H@std@@@std@@@std@@QAEPAU?$pair@V?$basic_string@DU?$char_traits@D@std@@V?$allocator@D@2@@std@@H@2@XZ 0043e7b0 f i ScoreState.obj
 0001:0003d7e0       ?_Swap_data@?$basic_string@DU?$char_traits@D@std@@V?$allocator@D@2@@std@@QAEXAAV12@U?$integral_constant@_N$00@2@@Z 0043e7e0 f i ScoreState.obj
 0001:0003d880       ?_Take_contents@?$_Vector_val@U?$_Simple_types@U?$pair@V?$basic_string@DU?$char_traits@D@std@@V?$allocator@D@2@@std@@H@std@@@std@@@std@@QAEXAAV12@@Z 0043e880 f i ScoreState.obj
 0001:0003d900       ?_Tidy@?$_Hash_vec@V?$allocator@V?$_List_unchecked_iterator@V?$_List_val@U?$_List_simple_types@U?$pair@$$CBV?$basic_string@DU?$char_traits@D@std@@V?$allocator@D@2@@std@@H@std@@@std@@@std@@@std@@@std@@@std@@QAEXXZ 0043e900 f i ScoreState.obj
 0001:0003d9b0       ?_Tidy@?$list@U?$pair@$$CBV?$basic_string@DU?$char_traits@D@std@@V?$allocator@D@2@@std@@H@std@@V?$allocator@U?$pair@$$CBV?$basic_string@DU?$char_traits@D@std@@V?$allocator@D@2@@std@@H@std@@@2@@std@@AAEXXZ 0043e9b0 f i ScoreState.obj
 0001:0003da10       ?_Tidy@?$vector@U?$pair@V?$basic_string@DU?$char_traits@D@std@@V?$allocator@D@2@@std@@H@std@@V?$allocator@U?$pair@V?$basic_string@DU?$char_traits@D@std@@V?$allocator@D@2@@std@@H@std@@@2@@std@@AAEXXZ 0043ea10 f i ScoreState.obj
 0001:0003db00       ?_Umove@?$vector@U?$pair@V?$basic_string@DU?$char_traits@D@std@@V?$allocator@D@2@@std@@H@std@@V?$allocator@U?$pair@V?$basic_string@DU?$char_traits@D@std@@V?$allocator@D@2@@std@@H@std@@@2@@std@@AAEPAU?$pair@V?$basic_string@DU?$char_traits@D@std@@V?$allocator@D@2@@std@@H@2@PAU32@00@Z 0043eb00 f i ScoreState.obj
 0001:0003db40       ?_Umove_if_noexcept1@?$vector@U?$pair@V?$basic_string@DU?$char_traits@D@std@@V?$allocator@D@2@@std@@H@std@@V?$allocator@U?$pair@V?$basic_string@DU?$char_traits@D@std@@V?$allocator@D@2@@std@@H@std@@@2@@std@@AAEXPAU?$pair@V?$basic_string@DU?$char_traits@D@std@@V?$allocator@D@2@@std@@H@2@00U?$integral_constant@_N$00@2@@Z 0043eb40 f i ScoreState.obj
 0001:0003db80       ?_Umove_if_noexcept@?$vector@U?$pair@V?$basic_string@DU?$char_traits@D@std@@V?$allocator@D@2@@std@@H@std@@V?$allocator@U?$pair@V?$basic_string@DU?$char_traits@D@std@@V?$allocator@D@2@@std@@H@std@@@2@@std@@AAEXPAU?$pair@V?$basic_string@DU?$char_traits@D@std@@V?$allocator@D@2@@std@@H@2@00@Z 0043eb80 f i ScoreState.obj
 0001:0003dbc0       ?_Unchecked_begin@?$_Hash@V?$_Umap_traits@V?$basic_string@DU?$char_traits@D@std@@V?$allocator@D@2@@std@@HV?$_Uhash_compare@V?$basic_string@DU?$char_traits@D@std@@V?$allocator@D@2@@std@@U?$hash@V?$basic_string@DU?$char_traits@D@std@@V?$allocator@D@2@@std@@@2@U?$equal_to@V?$basic_string@DU?$char_traits@D@std@@V?$allocator@D@2@@std@@@2@@2@V?$allocator@U?$pair@$$CBV?$basic_string@DU?$char_traits@D@std@@V?$allocator@D@2@@std@@H@std@@@2@$0A@@std@@@std@@QAE?AV?$_List_unchecked_iterator@V?$_List_val@U?$_List_simple_types@U?$pair@$$CBV?$basic_string@DU?$char_traits@D@std@@V?$allocator@D@2@@std@@H@std@@@std@@@std@@@2@XZ 0043ebc0 f i ScoreState.obj
 0001:0003dbf0       ?_Unchecked_begin@?$_Hash@V?$_Umap_traits@V?$basic_string@DU?$char_traits@D@std@@V?$allocator@D@2@@std@@HV?$_Uhash_compare@V?$basic_string@DU?$char_traits@D@std@@V?$allocator@D@2@@std@@U?$hash@V?$basic_string@DU?$char_traits@D@std@@V?$allocator@D@2@@std@@@2@U?$equal_to@V?$basic_string@DU?$char_traits@D@std@@V?$allocator@D@2@@std@@@2@@2@V?$allocator@U?$pair@$$CBV?$basic_string@DU?$char_traits@D@std@@V?$allocator@D@2@@std@@H@std@@@2@$0A@@std@@@std@@QBE?AV?$_List_unchecked_const_iterator@V?$_List_val@U?$_List_simple_types@U?$pair@$$CBV?$basic_string@DU?$char_traits@D@std@@V?$allocator@D@2@@std@@H@std@@@std@@@std@@U_Iterator_base0@2@@2@XZ 0043ebf0 f i ScoreState.obj
 0001:0003dc20       ?_Unchecked_begin@?$list@U?$pair@$$CBV?$basic_string@DU?$char_traits@D@std@@V?$allocator@D@2@@std@@H@std@@V?$allocator@U?$pair@$$CBV?$basic_string@DU?$char_traits@D@std@@V?$allocator@D@2@@std@@H@std@@@2@@std@@QAE?AV?$_List_unchecked_iterator@V?$_List_val@U?$_List_simple_types@U?$pair@$$CBV?$basic_string@DU?$char_traits@D@std@@V?$allocator@D@2@@std@@H@std@@@std@@@std@@@2@XZ 0043ec20 f i ScoreState.obj
 0001:0003dc50       ?_Unchecked_begin@?$list@U?$pair@$$CBV?$basic_string@DU?$char_traits@D@std@@V?$allocator@D@2@@std@@H@std@@V?$allocator@U?$pair@$$CBV?$basic_string@DU?$char_traits@D@std@@V?$allocator@D@2@@std@@H@std@@@2@@std@@QBE?AV?$_List_unchecked_const_iterator@V?$_List_val@U?$_List_simple_types@U?$pair@$$CBV?$basic_string@DU?$char_traits@D@std@@V?$allocator@D@2@@std@@H@std@@@std@@@std@@U_Iterator_base0@2@@2@XZ 0043ec50 f i ScoreState.obj
 0001:0003dc80       ?_Unchecked_end@?$_Hash@V?$_Umap_traits@V?$basic_string@DU?$char_traits@D@std@@V?$allocator@D@2@@std@@HV?$_Uhash_compare@V?$basic_string@DU?$char_traits@D@std@@V?$allocator@D@2@@std@@U?$hash@V?$basic_string@DU?$char_traits@D@std@@V?$allocator@D@2@@std@@@2@U?$equal_to@V?$basic_string@DU?$char_traits@D@std@@V?$allocator@D@2@@std@@@2@@2@V?$allocator@U?$pair@$$CBV?$basic_string@DU?$char_traits@D@std@@V?$allocator@D@2@@std@@H@std@@@2@$0A@@std@@@std@@QAE?AV?$_List_unchecked_iterator@V?$_List_val@U?$_List_simple_types@U?$pair@$$CBV?$basic_string@DU?$char_traits@D@std@@V?$allocator@D@2@@std@@H@std@@@std@@@std@@@2@XZ 0043ec80 f i ScoreState.obj
 0001:0003dcb0       ?_Unchecked_end@?$_Hash@V?$_Umap_traits@V?$basic_string@DU?$char_traits@D@std@@V?$allocator@D@2@@std@@HV?$_Uhash_compare@V?$basic_string@DU?$char_traits@D@std@@V?$allocator@D@2@@std@@U?$hash@V?$basic_string@DU?$char_traits@D@std@@V?$allocator@D@2@@std@@@2@U?$equal_to@V?$basic_string@DU?$char_traits@D@std@@V?$allocator@D@2@@std@@@2@@2@V?$allocator@U?$pair@$$CBV?$basic_string@DU?$char_traits@D@std@@V?$allocator@D@2@@std@@H@std@@@2@$0A@@std@@@std@@QBE?AV?$_List_unchecked_const_iterator@V?$_List_val@U?$_List_simple_types@U?$pair@$$CBV?$basic_string@DU?$char_traits@D@std@@V?$allocator@D@2@@std@@H@std@@@std@@@std@@U_Iterator_base0@2@@2@XZ 0043ecb0 f i ScoreState.obj
 0001:0003dce0       ?_Unchecked_end@?$list@U?$pair@$$CBV?$basic_string@DU?$char_traits@D@std@@V?$allocator@D@2@@std@@H@std@@V?$allocator@U?$pair@$$CBV?$basic_string@DU?$char_traits@D@std@@V?$allocator@D@2@@std@@H@std@@@2@@std@@QAE?AV?$_List_unchecked_iterator@V?$_List_val@U?$_List_simple_types@U?$pair@$$CBV?$basic_string@DU?$char_traits@D@std@@V?$allocator@D@2@@std@@H@std@@@std@@@std@@@2@XZ 0043ece0 f i ScoreState.obj
 0001:0003dd10       ?_Unchecked_end@?$list@U?$pair@$$CBV?$basic_string@DU?$char_traits@D@std@@V?$allocator@D@2@@std@@H@std@@V?$allocator@U?$pair@$$CBV?$basic_string@DU?$char_traits@D@std@@V?$allocator@D@2@@std@@H@std@@@2@@std@@QBE?AV?$_List_unchecked_const_iterator@V?$_List_val@U?$_List_simple_types@U?$pair@$$CBV?$basic_string@DU?$char_traits@D@std@@V?$allocator@D@2@@std@@H@std@@@std@@@std@@U_Iterator_base0@2@@2@XZ 0043ed10 f i ScoreState.obj
 0001:0003dd40       ?_Unchecked_erase@?$_Hash@V?$_Umap_traits@V?$basic_string@DU?$char_traits@D@std@@V?$allocator@D@2@@std@@HV?$_Uhash_compare@V?$basic_string@DU?$char_traits@D@std@@V?$allocator@D@2@@std@@U?$hash@V?$basic_string@DU?$char_traits@D@std@@V?$allocator@D@2@@std@@@2@U?$equal_to@V?$basic_string@DU?$char_traits@D@std@@V?$allocator@D@2@@std@@@2@@2@V?$allocator@U?$pair@$$CBV?$basic_string@DU?$char_traits@D@std@@V?$allocator@D@2@@std@@H@std@@@2@$0A@@std@@@std@@AAEPAU?$_List_node@U?$pair@$$CBV?$basic_string@DU?$char_traits@D@std@@V?$allocator@D@2@@std@@H@std@@PAX@2@PAU32@QAU32@@Z 0043ed40 f i ScoreState.obj
 0001:0003dfa0       ?_Unchecked_erase@?$list@U?$pair@$$CBV?$basic_string@DU?$char_traits@D@std@@V?$allocator@D@2@@std@@H@std@@V?$allocator@U?$pair@$$CBV?$basic_string@DU?$char_traits@D@std@@V?$allocator@D@2@@std@@H@std@@@2@@std@@AAEPAU?$_List_node@U?$pair@$$CBV?$basic_string@DU?$char_traits@D@std@@V?$allocator@D@2@@std@@H@std@@PAX@2@PAU32@QAU32@@Z 0043efa0 f i ScoreState.obj
 0001:0003e130       ?_Unchecked_splice@?$_List_val@U?$_List_simple_types@U?$pair@$$CBV?$basic_string@DU?$char_traits@D@std@@V?$allocator@D@2@@std@@H@std@@@std@@@std@@SAPAU?$_List_node@U?$pair@$$CBV?$basic_string@DU?$char_traits@D@std@@V?$allocator@D@2@@std@@H@std@@PAX@2@QAU32@00@Z 0043f130 f i ScoreState.obj
 0001:0003e1b0       ?_Unwrapped@?$_Vector_iterator@V?$_Vector_val@U?$_Simple_types@U?$pair@V?$basic_string@DU?$char_traits@D@std@@V?$allocator@D@2@@std@@H@std@@@std@@@std@@@std@@QBEPAU?$pair@V?$basic_string@DU?$char_traits@D@std@@V?$allocator@D@2@@std@@H@2@XZ 0043f1b0 f i ScoreState.obj
 0001:0003e1d0       ?_Verify_range@std@@YAXABV?$_Vector_const_iterator@V?$_Vector_val@U?$_Simple_types@U?$pair@V?$basic_string@DU?$char_traits@D@std@@V?$allocator@D@2@@std@@H@std@@@std@@@std@@@1@0@Z 0043f1d0 f i ScoreState.obj
 0001:0003e2d0       ?_Xlength@?$vector@U?$pair@V?$basic_string@DU?$char_traits@D@std@@V?$allocator@D@2@@std@@H@std@@V?$allocator@U?$pair@V?$basic_string@DU?$char_traits@D@std@@V?$allocator@D@2@@std@@H@std@@@2@@std@@CAXXZ 0043f2d0 f i ScoreState.obj
 0001:0003e2f0       ?allocate@?$allocator@U?$_List_node@U?$pair@$$CBV?$basic_string@DU?$char_traits@D@std@@V?$allocator@D@2@@std@@H@std@@PAX@std@@@std@@QAEPAU?$_List_node@U?$pair@$$CBV?$basic_string@DU?$char_traits@D@std@@V?$allocator@D@2@@std@@H@std@@PAX@2@I@Z 0043f2f0 f i ScoreState.obj
 0001:0003e320       ?allocate@?$allocator@U?$pair@V?$basic_string@DU?$char_traits@D@std@@V?$allocator@D@2@@std@@H@std@@@std@@QAEPAU?$pair@V?$basic_string@DU?$char_traits@D@std@@V?$allocator@D@2@@std@@H@2@I@Z 0043f320 f i ScoreState.obj
 0001:0003e350       ?allocate@?$allocator@V?$_List_unchecked_iterator@V?$_List_val@U?$_List_simple_types@U?$pair@$$CBV?$basic_string@DU?$char_traits@D@std@@V?$allocator@D@2@@std@@H@std@@@std@@@std@@@std@@@std@@QAEPAV?$_List_unchecked_iterator@V?$_List_val@U?$_List_simple_types@U?$pair@$$CBV?$basic_string@DU?$char_traits@D@std@@V?$allocator@D@2@@std@@H@std@@@std@@@std@@@2@I@Z 0043f350 f i ScoreState.obj
 0001:0003e380       ?begin@?$_Hash@V?$_Umap_traits@V?$basic_string@DU?$char_traits@D@std@@V?$allocator@D@2@@std@@HV?$_Uhash_compare@V?$basic_string@DU?$char_traits@D@std@@V?$allocator@D@2@@std@@U?$hash@V?$basic_string@DU?$char_traits@D@std@@V?$allocator@D@2@@std@@@2@U?$equal_to@V?$basic_string@DU?$char_traits@D@std@@V?$allocator@D@2@@std@@@2@@2@V?$allocator@U?$pair@$$CBV?$basic_string@DU?$char_traits@D@std@@V?$allocator@D@2@@std@@H@std@@@2@$0A@@std@@@std@@QAE?AV?$_List_iterator@V?$_List_val@U?$_List_simple_types@U?$pair@$$CBV?$basic_string@DU?$char_traits@D@std@@V?$allocator@D@2@@std@@H@std@@@std@@@std@@@2@XZ 0043f380 f i ScoreState.obj
 0001:0003e3b0       ?begin@?$list@U?$pair@$$CBV?$basic_string@DU?$char_traits@D@std@@V?$allocator@D@2@@std@@H@std@@V?$allocator@U?$pair@$$CBV?$basic_string@DU?$char_traits@D@std@@V?$allocator@D@2@@std@@H@std@@@2@@std@@QAE?AV?$_List_iterator@V?$_List_val@U?$_List_simple_types@U?$pair@$$CBV?$basic_string@DU?$char_traits@D@std@@V?$allocator@D@2@@std@@H@std@@@std@@@std@@@2@XZ 0043f3b0 f i ScoreState.obj
 0001:0003e3f0       ?begin@?$vector@U?$pair@V?$basic_string@DU?$char_traits@D@std@@V?$allocator@D@2@@std@@H@std@@V?$allocator@U?$pair@V?$basic_string@DU?$char_traits@D@std@@V?$allocator@D@2@@std@@H@std@@@2@@std@@QAE?AV?$_Vector_iterator@V?$_Vector_val@U?$_Simple_types@U?$pair@V?$basic_string@DU?$char_traits@D@std@@V?$allocator@D@2@@std@@H@std@@@std@@@std@@@2@XZ 0043f3f0 f i ScoreState.obj
 0001:0003e440       ?bucket@?$_Hash@V?$_Umap_traits@V?$basic_string@DU?$char_traits@D@std@@V?$allocator@D@2@@std@@HV?$_Uhash_compare@V?$basic_string@DU?$char_traits@D@std@@V?$allocator@D@2@@std@@U?$hash@V?$basic_string@DU?$char_traits@D@std@@V?$allocator@D@2@@std@@@2@U?$equal_to@V?$basic_string@DU?$char_traits@D@std@@V?$allocator@D@2@@std@@@2@@2@V?$allocator@U?$pair@$$CBV?$basic_string@DU?$char_traits@D@std@@V?$allocator@D@2@@std@@H@std@@@2@$0A@@std@@@std@@QBEIABV?$basic_string@DU?$char_traits@D@std@@V?$allocator@D@2@@2@@Z 0043f440 f i ScoreState.obj
 0001:0003e470       ?bucket_count@?$_Hash@V?$_Umap_traits@V?$basic_string@DU?$char_traits@D@std@@V?$allocator@D@2@@std@@HV?$_Uhash_compare@V?$basic_string@DU?$char_traits@D@std@@V?$allocator@D@2@@std@@U?$hash@V?$basic_string@DU?$char_traits@D@std@@V?$allocator@D@2@@std@@@2@U?$equal_to@V?$basic_string@DU?$char_traits@D@std@@V?$allocator@D@2@@std@@@2@@2@V?$allocator@U?$pair@$$CBV?$basic_string@DU?$char_traits@D@std@@V?$allocator@D@2@@std@@H@std@@@2@$0A@@std@@@std@@QBEIXZ 0043f470 f i ScoreState.obj
 0001:0003e490       ?capacity@?$vector@U?$pair@V?$basic_string@DU?$char_traits@D@std@@V?$allocator@D@2@@std@@H@std@@V?$allocator@U?$pair@V?$basic_string@DU?$char_traits@D@std@@V?$allocator@D@2@@std@@H@std@@@2@@std@@QBEIXZ 0043f490 f i ScoreState.obj
 0001:0003e4c0       ?changeOffset@Scyzc3FilterPointsTranslation@@QAEXHH@Z 0043f4c0 f i ScoreState.obj
 0001:0003e500       ?clear@?$_Hash@V?$_Umap_traits@V?$basic_string@DU?$char_traits@D@std@@V?$allocator@D@2@@std@@HV?$_Uhash_compare@V?$basic_string@DU?$char_traits@D@std@@V?$allocator@D@2@@std@@U?$hash@V?$basic_string@DU?$char_traits@D@std@@V?$allocator@D@2@@std@@@2@U?$equal_to@V?$basic_string@DU?$char_traits@D@std@@V?$allocator@D@2@@std@@@2@@2@V?$allocator@U?$pair@$$CBV?$basic_string@DU?$char_traits@D@std@@V?$allocator@D@2@@std@@H@std@@@2@$0A@@std@@@std@@QAEXXZ 0043f500 f i ScoreState.obj
 0001:0003e5e0       ?clear@?$list@U?$pair@$$CBV?$basic_string@DU?$char_traits@D@std@@V?$allocator@D@2@@std@@H@std@@V?$allocator@U?$pair@$$CBV?$basic_string@DU?$char_traits@D@std@@V?$allocator@D@2@@std@@H@std@@@2@@std@@QAEXXZ 0043f5e0 f i ScoreState.obj
 0001:0003e650       ?clear@?$vector@U?$pair@V?$basic_string@DU?$char_traits@D@std@@V?$allocator@D@2@@std@@H@std@@V?$allocator@U?$pair@V?$basic_string@DU?$char_traits@D@std@@V?$allocator@D@2@@std@@H@std@@@2@@std@@QAEXXZ 0043f650 f i ScoreState.obj
 0001:0003e6f0       ?compress@Scyzc3FilterPoints@@QAEXXZ 0043f6f0 f i ScoreState.obj
 0001:0003e720       ?compressX@Scyzc3FilterPoints@@QAEXXZ 0043f720 f i ScoreState.obj
 0001:0003e770       ?compressY@Scyzc3FilterPoints@@QAEXXZ 0043f770 f i ScoreState.obj
 0001:0003e7c0       ?convertClickedToVirtualPixelXPosition@BaseEngine@@QAEHH@Z 0043f7c0 f i ScoreState.obj
 0001:0003e7f0       ?convertClickedToVirtualPixelYPosition@BaseEngine@@QAEHH@Z 0043f7f0 f i ScoreState.obj
 0001:0003e820       ?deallocate@?$_Default_allocator_traits@V?$allocator@U?$_List_node@U?$pair@$$CBV?$basic_string@DU?$char_traits@D@std@@V?$allocator@D@2@@std@@H@std@@PAX@std@@@std@@@std@@SAXAAV?$allocator@U?$_List_node@U?$pair@$$CBV?$basic_string@DU?$char_traits@D@std@@V?$allocator@D@2@@std@@H@std@@PAX@std@@@2@QAU?$_List_node@U?$pair@$$CBV?$basic_string@DU?$char_traits@D@std@@V?$allocator@D@2@@std@@H@std@@PAX@2@I@Z 0043f820 f i ScoreState.obj
 0001:0003e840       ?deallocate@?$allocator@U?$_List_node@U?$pair@$$CBV?$basic_string@DU?$char_traits@D@std@@V?$allocator@D@2@@std@@H@std@@PAX@std@@@std@@QAEXQAU?$_List_node@U?$pair@$$CBV?$basic_string@DU?$char_traits@D@std@@V?$allocator@D@2@@std@@H@std@@PAX@2@I@Z 0043f840 f i ScoreState.obj
 0001:0003e870       ?deallocate@?$allocator@U?$pair@V?$basic_string@DU?$char_traits@D@std@@V?$allocator@D@2@@std@@H@std@@@std@@QAEXQAU?$pair@V?$basic_string@DU?$char_traits@D@std@@V?$allocator@D@2@@std@@H@2@I@Z 0043f870 f i ScoreState.obj
 0001:0003e8a0       ?deallocate@?$allocator@V?$_List_unchecked_iterator@V?$_List_val@U?$_List_simple_types@U?$pair@$$CBV?$basic_string@DU?$char_traits@D@std@@V?$allocator@D@2@@std@@H@std@@@std@@@std@@@std@@@std@@QAEXQAV?$_List_unchecked_iterator@V?$_List_val@U?$_List_simple_types@U?$pair@$$CBV?$basic_string@DU?$char_traits@D@std@@V?$allocator@D@2@@std@@H@std@@@std@@@std@@@2@I@Z 0043f8a0 f i ScoreState.obj
 0001:0003e8d0       ?end@?$_Hash@V?$_Umap_traits@V?$basic_string@DU?$char_traits@D@std@@V?$allocator@D@2@@std@@HV?$_Uhash_compare@V?$basic_string@DU?$char_traits@D@std@@V?$allocator@D@2@@std@@U?$hash@V?$basic_string@DU?$char_traits@D@std@@V?$allocator@D@2@@std@@@2@U?$equal_to@V?$basic_string@DU?$char_traits@D@std@@V?$allocator@D@2@@std@@@2@@2@V?$allocator@U?$pair@$$CBV?$basic_string@DU?$char_traits@D@std@@V?$allocator@D@2@@std@@H@std@@@2@$0A@@std@@@std@@QAE?AV?$_List_iterator@V?$_List_val@U?$_List_simple_types@U?$pair@$$CBV?$basic_string@DU?$char_traits@D@std@@V?$allocator@D@2@@std@@H@std@@@std@@@std@@@2@XZ 0043f8d0 f i ScoreState.obj
 0001:0003e900       ?end@?$list@U?$pair@$$CBV?$basic_string@DU?$char_traits@D@std@@V?$allocator@D@2@@std@@H@std@@V?$allocator@U?$pair@$$CBV?$basic_string@DU?$char_traits@D@std@@V?$allocator@D@2@@std@@H@std@@@2@@std@@QAE?AV?$_List_iterator@V?$_List_val@U?$_List_simple_types@U?$pair@$$CBV?$basic_string@DU?$char_traits@D@std@@V?$allocator@D@2@@std@@H@std@@@std@@@std@@@2@XZ 0043f900 f i ScoreState.obj
 0001:0003e940       ?end@?$vector@U?$pair@V?$basic_string@DU?$char_traits@D@std@@V?$allocator@D@2@@std@@H@std@@V?$allocator@U?$pair@V?$basic_string@DU?$char_traits@D@std@@V?$allocator@D@2@@std@@H@std@@@2@@std@@QAE?AV?$_Vector_iterator@V?$_Vector_val@U?$_Simple_types@U?$pair@V?$basic_string@DU?$char_traits@D@std@@V?$allocator@D@2@@std@@H@std@@@std@@@std@@@2@XZ 0043f940 f i ScoreState.obj
 0001:0003e990       ?filter@Scyzc3FilterPoints@@UAE_NPAVDrawingSurface@@AAH1AAI@Z 0043f990 f i ScoreState.obj
 0001:0003e9d0       ?filter@Scyzc3FilterPointsTranslation@@UAE_NPAVDrawingSurface@@AAH1AAI@Z 0043f9d0 f i ScoreState.obj
 0001:0003ea70       ?filterConvertRealToVirtualXPosition@Scyzc3FilterPoints@@UAEHH@Z 0043fa70 f i ScoreState.obj
 0001:0003eae0       ?filterConvertRealToVirtualXPosition@Scyzc3FilterPointsTranslation@@UAEHH@Z 0043fae0 f i ScoreState.obj
 0001:0003eb30       ?filterConvertRealToVirtualYPosition@Scyzc3FilterPoints@@UAEHH@Z 0043fb30 f i ScoreState.obj
 0001:0003eba0       ?filterConvertRealToVirtualYPosition@Scyzc3FilterPointsTranslation@@UAEHH@Z 0043fba0 f i ScoreState.obj
 0001:0003ebf0       ?filterConvertVirtualToRealXPosition@Scyzc3FilterPoints@@UAEHH@Z 0043fbf0 f i ScoreState.obj
 0001:0003eca0       ?filterConvertVirtualToRealXPosition@Scyzc3FilterPointsTranslation@@UAEHH@Z 0043fca0 f i ScoreState.obj
 0001:0003ecf0       ?filterConvertVirtualToRealYPosition@Scyzc3FilterPoints@@UAEHH@Z 0043fcf0 f i ScoreState.obj
 0001:0003eda0       ?filterConvertVirtualToRealYPosition@Scyzc3FilterPointsTranslation@@UAEHH@Z 0043fda0 f i ScoreState.obj
 0001:0003edf0       ?handleXthenY@Scyzc3FilterPoints@@AAEXPAVDrawingSurface@@HHAAI@Z 0043fdf0 f i ScoreState.obj
 0001:0003eea0       ?handleY@Scyzc3FilterPoints@@AAEXPAVDrawingSurface@@HHAAI@Z 0043fea0 f i ScoreState.obj
 0001:0003efd0       ?max_load_factor@?$_Hash@V?$_Umap_traits@V?$basic_string@DU?$char_traits@D@std@@V?$allocator@D@2@@std@@HV?$_Uhash_compare@V?$basic_string@DU?$char_traits@D@std@@V?$allocator@D@2@@std@@U?$hash@V?$basic_string@DU?$char_traits@D@std@@V?$allocator@D@2@@std@@@2@U?$equal_to@V?$basic_string@DU?$char_traits@D@std@@V?$allocator@D@2@@std@@@2@@2@V?$allocator@U?$pair@$$CBV?$basic_string@DU?$char_traits@D@std@@V?$allocator@D@2@@std@@H@std@@@2@$0A@@std@@@std@@QBEMXZ 0043ffd0 f i ScoreState.obj
 0001:0003eff0       ?max_size@?$_Default_allocator_traits@V?$allocator@U?$_List_node@U?$pair@$$CBV?$basic_string@DU?$char_traits@D@std@@V?$allocator@D@2@@std@@H@std@@PAX@std@@@std@@@std@@SAIABV?$allocator@U?$_List_node@U?$pair@$$CBV?$basic_string@DU?$char_traits@D@std@@V?$allocator@D@2@@std@@H@std@@PAX@std@@@2@@Z 0043fff0 f i ScoreState.obj
 0001:0003f000       ?max_size@?$_Default_allocator_traits@V?$allocator@U?$pair@V?$basic_string@DU?$char_traits@D@std@@V?$allocator@D@2@@std@@H@std@@@std@@@std@@SAIABV?$allocator@U?$pair@V?$basic_string@DU?$char_traits@D@std@@V?$allocator@D@2@@std@@H@std@@@2@@Z 00440000 f i ScoreState.obj
 0001:0003f010       ?max_size@?$_Default_allocator_traits@V?$allocator@V?$_List_unchecked_iterator@V?$_List_val@U?$_List_simple_types@U?$pair@$$CBV?$basic_string@DU?$char_traits@D@std@@V?$allocator@D@2@@std@@H@std@@@std@@@std@@@std@@@std@@@std@@SAIABV?$allocator@V?$_List_unchecked_iterator@V?$_List_val@U?$_List_simple_types@U?$pair@$$CBV?$basic_string@DU?$char_traits@D@std@@V?$allocator@D@2@@std@@H@std@@@std@@@std@@@std@@@2@@Z 00440010 f i ScoreState.obj
 0001:0003f020       ?max_size@?$_Hash_vec@V?$allocator@V?$_List_unchecked_iterator@V?$_List_val@U?$_List_simple_types@U?$pair@$$CBV?$basic_string@DU?$char_traits@D@std@@V?$allocator@D@2@@std@@H@std@@@std@@@std@@@std@@@std@@@std@@QBEIXZ 00440020 f i ScoreState.obj
 0001:0003f070       ?max_size@?$list@U?$pair@$$CBV?$basic_string@DU?$char_traits@D@std@@V?$allocator@D@2@@std@@H@std@@V?$allocator@U?$pair@$$CBV?$basic_string@DU?$char_traits@D@std@@V?$allocator@D@2@@std@@H@std@@@2@@std@@QBEIXZ 00440070 f i ScoreState.obj
 0001:0003f0c0       ?max_size@?$vector@U?$pair@V?$basic_string@DU?$char_traits@D@std@@V?$allocator@D@2@@std@@H@std@@V?$allocator@U?$pair@V?$basic_string@DU?$char_traits@D@std@@V?$allocator@D@2@@std@@H@std@@@2@@std@@QBEIXZ 004400c0 f i ScoreState.obj
 0001:0003f110       ?pointer_to@?$pointer_traits@PAU?$pair@$$CBV?$basic_string@DU?$char_traits@D@std@@V?$allocator@D@2@@std@@H@std@@@std@@SAPAU?$pair@$$CBV?$basic_string@DU?$char_traits@D@std@@V?$allocator@D@2@@std@@H@2@AAU32@@Z 00440110 f i ScoreState.obj
 0001:0003f130       ?push_back@?$vector@U?$pair@V?$basic_string@DU?$char_traits@D@std@@V?$allocator@D@2@@std@@H@std@@V?$allocator@U?$pair@V?$basic_string@DU?$char_traits@D@std@@V?$allocator@D@2@@std@@H@std@@@2@@std@@QAEX$$QAU?$pair@V?$basic_string@DU?$char_traits@D@std@@V?$allocator@D@2@@std@@H@2@@Z 00440130 f i ScoreState.obj
 0001:0003f160       ?select_on_container_copy_construction@?$_Default_allocator_traits@V?$allocator@U?$_List_node@U?$pair@$$CBV?$basic_string@DU?$char_traits@D@std@@V?$allocator@D@2@@std@@H@std@@PAX@std@@@std@@@std@@SA?AV?$allocator@U?$_List_node@U?$pair@$$CBV?$basic_string@DU?$char_traits@D@std@@V?$allocator@D@2@@std@@H@std@@PAX@std@@@2@ABV32@@Z 00440160 f i ScoreState.obj
 0001:0003f170       ?setOffset@Scyzc3FilterPointsTranslation@@QAEXHH@Z 00440170 f i ScoreState.obj
 0001:0003f1a0       ?setRunTime@Scyzc3Engine@@QAEXN@Z 004401a0 f i ScoreState.obj
 0001:0003f1d0       ?setStretch@Scyzc3FilterPoints@@QAEXHH@Z 004401d0 f i ScoreState.obj
 0001:0003f2c0       ?size@?$_Hash_vec@V?$allocator@V?$_List_unchecked_iterator@V?$_List_val@U?$_List_simple_types@U?$pair@$$CBV?$basic_string@DU?$char_traits@D@std@@V?$allocator@D@2@@std@@H@std@@@std@@@std@@@std@@@std@@@std@@QBEIXZ 004402c0 f i ScoreState.obj
 0001:0003f2e0       ?stretch@Scyzc3FilterPoints@@QAEXXZ 004402e0 f i ScoreState.obj
 0001:0003f310       ?stretchX@Scyzc3FilterPoints@@QAEXXZ 00440310 f i ScoreState.obj
 0001:0003f360       ?stretchY@Scyzc3FilterPoints@@QAEXXZ 00440360 f i ScoreState.obj
 0001:0003f3b0       ?swap@?$basic_string@DU?$char_traits@D@std@@V?$allocator@D@2@@std@@QAEXAAV12@@Z 004403b0 f i ScoreState.obj
 0001:0003f4c0       ?swap@?$pair@V?$basic_string@DU?$char_traits@D@std@@V?$allocator@D@2@@std@@H@std@@QAEXAAU12@@Z 004404c0 f i ScoreState.obj
 0001:0003f520       ?virtInitialiseObjects@ScoreState@@UAEHXZ 00440520 f i ScoreState.obj
 0001:0003f530       _ceilf                     00440530 f i ScoreState.obj
 0001:0003f560       ??0Scyzc3Engine@@QAE@XZ    00440560 f   Scyzc3Engine.obj
 0001:0003f930       ??1Scyzc3Engine@@UAE@XZ    00440930 f   Scyzc3Engine.obj
 0001:0003fb30       ?virtSetupBackgroundBuffer@Scyzc3Engine@@UAEXXZ 00440b30 f   Scyzc3Engine.obj
 0001:0003fb60       ?virtMouseDown@Scyzc3Engine@@UAEXHHH@Z 00440b60 f   Scyzc3Engine.obj
 0001:0003fba0       ?virtInitialiseObjects@Scyzc3Engine@@UAEHXZ 00440ba0 f   Scyzc3Engine.obj
 0001:0003fbd0       ?virtDrawStringsOnTop@Scyzc3Engine@@UAEXXZ 00440bd0 f   Scyzc3Engine.obj
 0001:0003fc00       ?StateSwitch@Scyzc3Engine@@QAEXH@Z 00440c00 f   Scyzc3Engine.obj
 0001:0003fc40       ?virtKeyDown@Scyzc3Engine@@UAEXH@Z 00440c40 f   Scyzc3Engine.obj
 0001:0003fc70       ?virtMainLoopDoBeforeUpdate@Scyzc3Engine@@UAEXXZ 00440c70 f   Scyzc3Engine.obj
 0001:0003fca0       ?copyAllBackgroundBuffer@Scyzc3Engine@@UAEXXZ 00440ca0 f   Scyzc3Engine.obj
 0001:0003fcd0       ?virtMouseWheel@Scyzc3Engine@@UAEXHHHH@Z 00440cd0 f   Scyzc3Engine.obj
 0001:0003fd10       ?virtMouseMoved@Scyzc3Engine@@UAEXHH@Z 00440d10 f   Scyzc3Engine.obj
 0001:0003ff40       ??1WinState@@QAE@XZ        00440f40 f i Scyzc3Engine.obj
 0001:0003ff70       ??_GBgm@@QAEPAXI@Z         00440f70 f i Scyzc3Engine.obj
 0001:0003ffb0       ??_GChooseState@@QAEPAXI@Z 00440fb0 f i Scyzc3Engine.obj
 0001:0003fff0       ??_GHelpState@@QAEPAXI@Z   00440ff0 f i Scyzc3Engine.obj
 0001:00040030       ??_GLoadState@@QAEPAXI@Z   00441030 f i Scyzc3Engine.obj
 0001:00040070       ??_GRunningState@@QAEPAXI@Z 00441070 f i Scyzc3Engine.obj
 0001:000400b0       ??_GSaveState@@QAEPAXI@Z   004410b0 f i Scyzc3Engine.obj
 0001:000400f0       ??_GScoreState@@QAEPAXI@Z  004410f0 f i Scyzc3Engine.obj
 0001:00040130       ??_GScyzc3Engine@@UAEPAXI@Z 00441130 f i Scyzc3Engine.obj
 0001:00040130       ??_EScyzc3Engine@@UAEPAXI@Z 00441130 f i Scyzc3Engine.obj
 0001:00040170       ??_GStartUpState@@QAEPAXI@Z 00441170 f i Scyzc3Engine.obj
 0001:000401b0       ??_GWinState@@QAEPAXI@Z    004411b0 f i Scyzc3Engine.obj
 0001:000401f0       ??0Scyzc3Object@@QAE@PAVScyzc3Engine@@PAVRunningState@@V?$basic_string@DU?$char_traits@D@std@@V?$allocator@D@2@@std@@@Z 004411f0 f   Scyzc3Object.obj
 0001:00040390       ??1Scyzc3Object@@UAE@XZ    00441390 f   Scyzc3Object.obj
 0001:000403d0       ?check_collision@Scyzc3Object@@QAE_NAAV?$vector@USDL_Rect@@V?$allocator@USDL_Rect@@@std@@@std@@0@Z 004413d0 f   Scyzc3Object.obj
 0001:00040540       ?isCollision@Scyzc3Object@@UAE_NXZ 00441540 f   Scyzc3Object.obj
 0001:00040600       ?detectBound@Scyzc3Object@@UAE_NXZ 00441600 f   Scyzc3Object.obj
 0001:00040720       ?drawHP@Scyzc3Object@@UAEXXZ 00441720 f   Scyzc3Object.obj
 0001:00040820       ?savePixel@Scyzc3Object@@QAEXVSimpleImage@@HHHH@Z 00441820 f   Scyzc3Object.obj
 0001:000409a0       ??0player@@QAE@PAVScyzc3Engine@@PAVRunningState@@V?$basic_string@DU?$char_traits@D@std@@V?$allocator@D@2@@std@@2HH@Z 004419a0 f   Scyzc3Object.obj
 0001:00040af0       ??1player@@UAE@XZ          00441af0 f   Scyzc3Object.obj
 0001:00040bb0       ?virtDraw@player@@UAEXXZ   00441bb0 f   Scyzc3Object.obj
 0001:00040ec0       ?virtDoUpdate@player@@UAEXH@Z 00441ec0 f   Scyzc3Object.obj
 0001:00041390       ?setPosition@player@@QAEXNN@Z 00442390 f   Scyzc3Object.obj
 0001:000413c0       ?goNextMap@player@@QAEXXZ  004423c0 f   Scyzc3Object.obj
 0001:000417a0       ?goNextMap@rival@@QAEXXZ   004427a0 f   Scyzc3Object.obj
 0001:00041b80       ??0rival@@QAE@PAVScyzc3Engine@@PAVRunningState@@V?$basic_string@DU?$char_traits@D@std@@V?$allocator@D@2@@std@@2HH@Z 00442b80 f   Scyzc3Object.obj
 0001:00041cd0       ?virtDraw@rival@@UAEXXZ    00442cd0 f   Scyzc3Object.obj
 0001:00041fe0       ?virtDoUpdate@rival@@UAEXH@Z 00442fe0 f   Scyzc3Object.obj
 0001:00042470       ?setPosition@rival@@QAEXNN@Z 00443470 f   Scyzc3Object.obj
 0001:00042d40       ??$?0$$V@?$_Compressed_pair@V?$allocator@USDL_Rect@@@std@@V?$_Vector_val@U?$_Simple_types@USDL_Rect@@@std@@@2@$00@std@@QAE@U_Zero_then_variadic_args_t@1@@Z 00443d40 f i Scyzc3Object.obj
 0001:00042d70       ??0?$allocator@USDL_Rect@@@std@@QAE@XZ 00443d70 f i Scyzc3Object.obj
 0001:00042d90       ??0?$vector@USDL_Rect@@V?$allocator@USDL_Rect@@@std@@@std@@QAE@XZ 00443d90 f i Scyzc3Object.obj
 0001:00042e10       ??1rival@@UAE@XZ           00443e10 f i Scyzc3Object.obj
 0001:00042ef0       ??A?$vector@USDL_Rect@@V?$allocator@USDL_Rect@@@std@@@std@@QAEAAUSDL_Rect@@I@Z 00443ef0 f i Scyzc3Object.obj
 0001:00042fa0       ??_EScyzc3Object@@UAEPAXI@Z 00443fa0 f i Scyzc3Object.obj
 0001:00042fa0       ??_GScyzc3Object@@UAEPAXI@Z 00443fa0 f i Scyzc3Object.obj
 0001:00042fe0       ??_Eplayer@@UAEPAXI@Z      00443fe0 f i Scyzc3Object.obj
 0001:00042fe0       ??_Gplayer@@UAEPAXI@Z      00443fe0 f i Scyzc3Object.obj
 0001:00043020       ??_Erival@@UAEPAXI@Z       00444020 f i Scyzc3Object.obj
 0001:00043020       ??_Grival@@UAEPAXI@Z       00444020 f i Scyzc3Object.obj
 0001:00043060       ?GetTileHeight@RunningState@@QAEHXZ 00444060 f i Scyzc3Object.obj
 0001:00043080       ?GetTileWidth@RunningState@@QAEHXZ 00444080 f i Scyzc3Object.obj
 0001:000430a0       ?checkRectangles@CollisionDetection@@SA_NHHHHHHHH@Z 004440a0 f i Scyzc3Object.obj
 0001:000430f0       ?clear@?$vector@USDL_Rect@@V?$allocator@USDL_Rect@@@std@@@std@@QAEXXZ 004440f0 f i Scyzc3Object.obj
 0001:00043190       ?getClassId@Scyzc3Object@@UAEHXZ 00444190 f i Scyzc3Object.obj
 0001:000431a0       ?getClassId@player@@UAEHXZ 004441a0 f i Scyzc3Object.obj
 0001:000431c0       ?getClassId@rival@@UAEHXZ  004441c0 f i Scyzc3Object.obj
 0001:000431e0       ?getHP@player@@UAEHXZ      004441e0 f i Scyzc3Object.obj
 0001:00043200       ?getHP@rival@@UAEHXZ       00444200 f i Scyzc3Object.obj
 0001:00043220       ?getScore@player@@UAEHXZ   00444220 f i Scyzc3Object.obj
 0001:00043240       ?getScore@rival@@UAEHXZ    00444240 f i Scyzc3Object.obj
 0001:00043260       ?getXCentre@DisplayableObject@@QBEHXZ 00444260 f i Scyzc3Object.obj
 0001:00043290       ?getYCentre@DisplayableObject@@QBEHXZ 00444290 f i Scyzc3Object.obj
 0001:000432c0       ?getdirection@player@@UAEHXZ 004442c0 f i Scyzc3Object.obj
 0001:000432e0       ?getdirection@rival@@UAEHXZ 004442e0 f i Scyzc3Object.obj
 0001:00043300       ?setAttack@Scyzc3Object@@QAEXH@Z 00444300 f i Scyzc3Object.obj
 0001:00043320       ?setDirection@Scyzc3Object@@UAEXH@Z 00444320 f i Scyzc3Object.obj
 0001:00043340       ?setDirection@player@@UAEXH@Z 00444340 f i Scyzc3Object.obj
 0001:00043360       ?setDirection@rival@@UAEXH@Z 00444360 f i Scyzc3Object.obj
 0001:00043380       ?setHP@player@@UAEXH@Z     00444380 f i Scyzc3Object.obj
 0001:000433a0       ?setHP@rival@@UAEXH@Z      004443a0 f i Scyzc3Object.obj
 0001:000433c0       ?setScore@player@@UAEXH@Z  004443c0 f i Scyzc3Object.obj
 0001:000433e0       ?setScore@rival@@UAEXH@Z   004443e0 f i Scyzc3Object.obj
 0001:00043400       ?size@?$vector@USDL_Rect@@V?$allocator@USDL_Rect@@@std@@@std@@QBEIXZ 00444400 f i Scyzc3Object.obj
 0001:00043430       ?virtDoUpdate@Scyzc3Object@@UAEXH@Z 00444430 f i Scyzc3Object.obj
 0001:00043440       ?virtDraw@Scyzc3Object@@UAEXXZ 00444440 f i Scyzc3Object.obj
 0001:00043450       ?virtDrawTileAt@Scyzc3TileManager@@UBEXPAVBaseEngine@@PAVDrawingSurface@@HHHH@Z 00444450 f   Scyzc3TileManager.obj
 0001:000437a0       ?changePixelColour@ImagePixelMapping@@UAE_NHHAAHPAVDrawingSurface@@@Z 004447a0 f i SimpleImage.obj
 0001:000437c0       ?mapCoordinates@CroppedImagePixelMapping@@UAE_NAAN0ABVSimpleImage@@@Z 004447c0 f i SimpleImage.obj
 0001:00043860       ??0SimpleImage@@QAE@XZ     00444860 f   SimpleImage.obj
 0001:00043890       ??0SimpleImage@@QAE@V?$shared_ptr@VRawImageData@@@std@@@Z 00444890 f   SimpleImage.obj
 0001:000438d0       ?exists@SimpleImage@@QBE_NXZ 004448d0 f   SimpleImage.obj
 0001:000438f0       ?renderImage@SimpleImage@@QBEXPAVDrawingSurface@@HHHHHH@Z 004448f0 f   SimpleImage.obj
 0001:00043a00       ?renderImageWithMask@SimpleImage@@QBEXPAVDrawingSurface@@HHHHHHH@Z 00444a00 f   SimpleImage.obj
 0001:00043b40       ?renderImageWithMaskAndTransparency@SimpleImage@@QBEXPAVDrawingSurface@@HHHHHHHH@Z 00444b40 f   SimpleImage.obj
 0001:00043d10       ?renderImageBlit@SimpleImage@@QAEXPAVBaseEngine@@PAVDrawingSurface@@HHHHHHHH@Z 00444d10 f   SimpleImage.obj
 0001:00043fc0       ?adjustXYWidthHeight@SimpleImage@@SA_NPAVDrawingSurface@@AAH11111@Z 00444fc0 f   SimpleImage.obj
 0001:000441c0       ?renderImageApplyingMapping@SimpleImage@@QBEXPAVBaseEngine@@PAVDrawingSurface@@HHHHPAVImagePixelMapping@@@Z 004451c0 f   SimpleImage.obj
 0001:000447d0       ??BDrawingSurface@@QAEPAUSDL_Surface@@XZ 004457d0 f i SimpleImage.obj
 0001:000447f0       ?getSurface@RawImageData@@QAEPAUSDL_Surface@@XZ 004457f0 f i SimpleImage.obj
 0001:00044810       ?rawGetPixel@DrawingSurface@@QBEIHH@Z 00445810 f i SimpleImage.obj
 0001:00044880       ?virtSetupBackgroundBuffer@SimpleDemo@@UAEXXZ 00445880 f   SimpleDemo.obj
 0001:000449c0       ?virtInitialiseObjects@SimpleDemo@@UAEHXZ 004459c0 f   SimpleDemo.obj
 0001:00044b40       ?virtDrawStringsUnderneath@SimpleDemo@@UAEXXZ 00445b40 f   SimpleDemo.obj
 0001:00044bc0       ?virtDrawStringsOnTop@SimpleDemo@@UAEXXZ 00445bc0 f   SimpleDemo.obj
 0001:00044c80       ?virtMouseDown@SimpleDemo@@UAEXHHH@Z 00445c80 f   SimpleDemo.obj
 0001:00044ca0       ?virtKeyDown@SimpleDemo@@UAEXH@Z 00445ca0 f   SimpleDemo.obj
 0001:00044e10       ??$_Emplace_back_with_unused_capacity@ABQAVDisplayableObject@@@?$vector@PAVDisplayableObject@@V?$allocator@PAVDisplayableObject@@@std@@@std@@AAE@ABQAVDisplayableObject@@@Z 00445e10 f i SimpleDemo.obj
 0001:00044eb0       ??$_Emplace_reallocate@ABQAVDisplayableObject@@@?$vector@PAVDisplayableObject@@V?$allocator@PAVDisplayableObject@@@std@@@std@@QAEPAPAVDisplayableObject@@QAPAV2@ABQAV2@@Z 00445eb0 f i SimpleDemo.obj
 0001:00045100       ??$construct@PAVDisplayableObject@@ABQAV1@@?$_Default_allocator_traits@V?$allocator@PAVDisplayableObject@@@std@@@std@@SAXAAV?$allocator@PAVDisplayableObject@@@1@QAPAVDisplayableObject@@ABQAV3@@Z 00446100 f i SimpleDemo.obj
 0001:00045140       ??$emplace_back@ABQAVDisplayableObject@@@?$vector@PAVDisplayableObject@@V?$allocator@PAVDisplayableObject@@@std@@@std@@QAE@ABQAVDisplayableObject@@@Z 00446140 f i SimpleDemo.obj
 0001:000451c0       ??$forward@ABQAVDisplayableObject@@@std@@YAABQAVDisplayableObject@@ABQAV1@@Z 004461c0 f i SimpleDemo.obj
 0001:000451d0       ??0BouncingObject@@QAE@PAVBaseEngine@@HHNNNN@Z 004461d0 f i SimpleDemo.obj
 0001:000452a0       ??1BouncingObject@@UAE@XZ  004462a0 f i SimpleDemo.obj
 0001:000452c0       ??_EBouncingObject@@UAEPAXI@Z 004462c0 f i SimpleDemo.obj
 0001:000452c0       ??_GBouncingObject@@UAEPAXI@Z 004462c0 f i SimpleDemo.obj
 0001:00045300       ?_Umove@?$vector@PAVDisplayableObject@@V?$allocator@PAVDisplayableObject@@@std@@@std@@AAEPAPAVDisplayableObject@@PAPAV3@00@Z 00446300 f i SimpleDemo.obj
 0001:00045340       ?appendObjectToArray@DisplayableObjectContainer@@QAEXPAVDisplayableObject@@@Z 00446340 f i SimpleDemo.obj
 0001:00045380       ?push_back@?$vector@PAVDisplayableObject@@V?$allocator@PAVDisplayableObject@@@std@@@std@@QAEXABQAVDisplayableObject@@@Z 00446380 f i SimpleDemo.obj
 0001:000453a0       ?virtDoUpdate@BouncingObject@@UAEXH@Z 004463a0 f i SimpleDemo.obj
 0001:000457a0       ?virtDraw@BouncingObject@@UAEXXZ 004467a0 f i SimpleDemo.obj
 0001:00045840       ??0StarfieldDemo@@QAE@XZ   00446840 f   StarfieldDemo.obj
 0001:00045880       ??1StarfieldDemo@@UAE@XZ   00446880 f   StarfieldDemo.obj
 0001:000458b0       ?virtSetupBackgroundBuffer@StarfieldDemo@@UAEXXZ 004468b0 f   StarfieldDemo.obj
 0001:000459f0       ?virtMainLoopDoBeforeUpdate@StarfieldDemo@@UAEXXZ 004469f0 f   StarfieldDemo.obj
 0001:00045a40       ?copyAllBackgroundBuffer@StarfieldDemo@@UAEXXZ 00446a40 f   StarfieldDemo.obj
 0001:00045b80       ??_GStarfieldDemo@@UAEPAXI@Z 00446b80 f i StarfieldDemo.obj
 0001:00045b80       ??_EStarfieldDemo@@UAEPAXI@Z 00446b80 f i StarfieldDemo.obj
 0001:00045c00       ?Handle@StartUpState@@UAEXPAVContext@@@Z 00446c00 f   StartUpState.obj
 0001:00045c30       ??0StartUpState@@QAE@PAVScyzc3Engine@@@Z 00446c30 f   StartUpState.obj
 0001:00045da0       ??1StartUpState@@QAE@XZ    00446da0 f   StartUpState.obj
 0001:00045e20       ?virtSetupBackgroundBuffer@StartUpState@@UAEXXZ 00446e20 f   StartUpState.obj
 0001:00045ee0       ?virtMouseDown@StartUpState@@UAEXHHH@Z 00446ee0 f   StartUpState.obj
 0001:00046090       ?virtInitialiseObjects@StartUpState@@UAEHXZ 00447090 f   StartUpState.obj
 0001:00046260       ?virtDrawStringsOnTop@StartUpState@@UAEXXZ 00447260 f   StartUpState.obj
 0001:00046430       ?virtMainLoopDoBeforeUpdate@StartUpState@@UAEXXZ 00447430 f   StartUpState.obj
 0001:00046510       ?copyAllBackgroundBuffer@StartUpState@@UAEXXZ 00447510 f   StartUpState.obj
 0001:000465c0       ?mapCoordinates@StartUpState@@UAE_NAAN0ABVSimpleImage@@@Z 004475c0 f   StartUpState.obj
 0001:00046860       ??0?$auto_ptr@_J@std@@QAE@PA_J@Z 00447860 f i StartUpState.obj
 0001:00046880       ??0ImagePixelMapping@@QAE@XZ 00447880 f i StartUpState.obj
 0001:000468a0       ??0Scyzc3ImagePixelMappingRotate@@QAE@N@Z 004478a0 f i StartUpState.obj
 0001:000468e0       ??0Scyzc3ImagePixelMappingShiftXY@@QAE@NN@Z 004478e0 f i StartUpState.obj
 0001:00046930       ??1?$auto_ptr@_J@std@@QAE@XZ 00447930 f i StartUpState.obj
 0001:00046960       ?get@?$auto_ptr@_J@std@@QBEPA_JXZ 00447960 f i StartUpState.obj
 0001:00046980       ?mapCoordinates@Scyzc3ImagePixelMappingRotate@@UAE_NAAN0ABVSimpleImage@@@Z 00447980 f i StartUpState.obj
 0001:00046c70       ?mapCoordinates@Scyzc3ImagePixelMappingShiftXY@@UAE_NAAN0ABVSimpleImage@@@Z 00447c70 f i StartUpState.obj
 0001:00046d60       ?setRotation@Scyzc3ImagePixelMappingRotate@@QAEXN@Z 00447d60 f i StartUpState.obj
 0001:00046d80       ?setXShift@Scyzc3ImagePixelMappingShiftXY@@QAEXN@Z 00447d80 f i StartUpState.obj
 0001:00046da0       ?virtKeyDown@StartUpState@@UAEXH@Z 00447da0 f i StartUpState.obj
 0001:00046db0       ?drawAllTiles@TileManager@@QBEXPAVBaseEngine@@PAVDrawingSurface@@@Z 00447db0 f   TileManager.obj
 0001:00046e50       ?drawSomeTiles@TileManager@@QBEXPAVBaseEngine@@PAVDrawingSurface@@HHHH@Z 00447e50 f   TileManager.obj
 0001:00046ef0       ?virtDrawTileAt@TileManager@@UBEXPAVBaseEngine@@PAVDrawingSurface@@HHHH@Z 00447ef0 f   TileManager.obj
 0001:00046fe0       ??0BouncingBall@@QAE@PAVBouncingBallMain@@HHHHPBDHH@Z 00447fe0 f   BouncingBall.obj
 0001:000470b0       ??1BouncingBall@@UAE@XZ    004480b0 f   BouncingBall.obj
 0001:000470d0       ?virtDraw@BouncingBall@@UAEXXZ 004480d0 f   BouncingBall.obj
 0001:000473a0       ?virtDoUpdate@BouncingBall@@UAEXH@Z 004483a0 f   BouncingBall.obj
 0001:000473c0       ??0BouncingBall1@@QAE@PAVBouncingBallMain@@HHHHPBDHHPAVTileManager@@@Z 004483c0 f   BouncingBall.obj
 0001:00047460       ?setMovement@BouncingBall1@@QAEXHHHHHHH@Z 00448460 f   BouncingBall.obj
 0001:000474d0       ?virtDoUpdate@BouncingBall1@@UAEXH@Z 004484d0 f   BouncingBall.obj
 0001:00047640       ??0BouncingBall2@@QAE@PAVBouncingBallMain@@HHHHPBDHH@Z 00448640 f   BouncingBall.obj
 0001:000476c0       ?setPosition@BouncingBall2@@QAEXNN@Z 004486c0 f   BouncingBall.obj
 0001:000476f0       ?setSpeed@BouncingBall2@@QAEXNN@Z 004486f0 f   BouncingBall.obj
 0001:00047720       ?virtDoUpdate@BouncingBall2@@UAEXH@Z 00448720 f   BouncingBall.obj
 0001:00047d10       ??0MovementPosition@@QAE@XZ 00448d10 f i BouncingBall.obj
 0001:00047d90       ??1BouncingBall1@@UAE@XZ   00448d90 f i BouncingBall.obj
 0001:00047db0       ??1BouncingBall2@@UAE@XZ   00448db0 f i BouncingBall.obj
 0001:00047dd0       ??_GBouncingBall1@@UAEPAXI@Z 00448dd0 f i BouncingBall.obj
 0001:00047dd0       ??_EBouncingBall1@@UAEPAXI@Z 00448dd0 f i BouncingBall.obj
 0001:00047e10       ??_EBouncingBall2@@UAEPAXI@Z 00448e10 f i BouncingBall.obj
 0001:00047e10       ??_GBouncingBall2@@UAEPAXI@Z 00448e10 f i BouncingBall.obj
 0001:00047e50       ??_GBouncingBall@@UAEPAXI@Z 00448e50 f i BouncingBall.obj
 0001:00047e50       ??_EBouncingBall@@UAEPAXI@Z 00448e50 f i BouncingBall.obj
 0001:00047e90       ?calculate@MovementPosition@@QAEXH@Z 00448e90 f i BouncingBall.obj
 0001:00047f80       ?getX@MovementPosition@@QBEHXZ 00448f80 f i BouncingBall.obj
 0001:00047fa0       ?getY@MovementPosition@@QBEHXZ 00448fa0 f i BouncingBall.obj
 0001:00047fc0       ?hasMovementFinished@MovementPosition@@QBE_NH@Z 00448fc0 f i BouncingBall.obj
 0001:00048000       ?reverse@MovementPosition@@QAEXXZ 00449000 f i BouncingBall.obj
 0001:00048090       ?setup@MovementPosition@@QAEXHHHHHH@Z 00449090 f i BouncingBall.obj
 0001:00048100       ?virtMouseDown@BouncingBall@@UAEXHHH@Z 00449100 f i BouncingBall.obj
 0001:00048140       ?virtSetupBackgroundBuffer@BouncingBallMain@@UAEXXZ 00449140 f   BouncingBallMain.obj
 0001:00048610       ?virtInitialiseObjects@BouncingBallMain@@UAEHXZ 00449610 f   BouncingBallMain.obj
 0001:000488e0       ?virtDrawStringsUnderneath@BouncingBallMain@@UAEXXZ 004498e0 f   BouncingBallMain.obj
 0001:00048920       ?virtMouseDown@BouncingBallMain@@UAEXHHH@Z 00449920 f   BouncingBallMain.obj
 0001:00048960       ?virtKeyDown@BouncingBallMain@@UAEXH@Z 00449960 f   BouncingBallMain.obj
 0001:00048ba0       ??0ImagePixelMappingRotate@@QAE@N@Z 00449ba0 f i BouncingBallMain.obj
 0001:00048be0       ??0ImagePixelMappingRotateAndColour@@QAE@NHH@Z 00449be0 f i BouncingBallMain.obj
 0001:00048ca0       ??1ImagePixelMappingRotateAndColour@@UAE@XZ 00449ca0 f i BouncingBallMain.obj
 0001:00048cc0       ??_EImagePixelMappingRotateAndColour@@UAEPAXI@Z 00449cc0 f i BouncingBallMain.obj
 0001:00048cc0       ??_GImagePixelMappingRotateAndColour@@UAEPAXI@Z 00449cc0 f i BouncingBallMain.obj
 0001:00048d00       ?changePixelColour@ImagePixelMappingRotateAndColour@@UAE_NHHAAHPAVDrawingSurface@@@Z 00449d00 f i BouncingBallMain.obj
 0001:000490e0       ?getPixel@DrawingSurface@@QAEIHH@Z 0044a0e0 f i BouncingBallMain.obj
 0001:00049150       ?mapCoordinates@ImagePixelMappingRotate@@UAE_NAAN0ABVSimpleImage@@@Z 0044a150 f i BouncingBallMain.obj
 0001:00049440       ?mapCoordinates@ImagePixelMappingRotateAndColour@@UAE_NAAN0ABVSimpleImage@@@Z 0044a440 f i BouncingBallMain.obj
 0001:00049760       ?setBrightnessPercentage@ImagePixelMappingRotateAndColour@@QAEXH@Z 0044a760 f i BouncingBallMain.obj
 0001:00049780       ?setMergePercentage@ImagePixelMappingRotateAndColour@@QAEXHH@Z 0044a780 f i BouncingBallMain.obj
 0001:000497b0       ?setNthPixelColours@ImagePixelMappingRotateAndColour@@QAEXHHH@Z 0044a7b0 f i BouncingBallMain.obj
 0001:000497f0       ?setTopLeftPositionInImage@ImagePixelMappingRotateAndColour@@QAEXHH@Z 0044a7f0 f i BouncingBallMain.obj
 0001:00049820       ?setTransparencyColour@ImagePixelMappingRotateAndColour@@QAEXH@Z 0044a820 f i BouncingBallMain.obj
 0001:00049840       ?Handle@WinState@@UAEXPAVContext@@@Z 0044a840 f   WinState.obj
 0001:00049870       ??0WinState@@QAE@PAVScyzc3Engine@@@Z 0044a870 f   WinState.obj
 0001:00049930       ?virtSetupBackgroundBuffer@WinState@@UAEXXZ 0044a930 f   WinState.obj
 0001:00049980       ?virtDrawStringsOnTop@WinState@@UAEXXZ 0044a980 f   WinState.obj
 0001:00049a00       ?virtKeyDown@WinState@@UAEXH@Z 0044aa00 f   WinState.obj
 0001:00049b40       ?writeScore@WinState@@QAEXXZ 0044ab40 f   WinState.obj
 0001:00049c10       ?copyAllBackgroundBuffer@WinState@@UAEXXZ 0044ac10 f   WinState.obj
 0001:00049d40       ??$?9DU?$char_traits@D@std@@V?$allocator@D@1@@std@@YA_NABV?$basic_string@DU?$char_traits@D@std@@V?$allocator@D@2@@0@QBD@Z 0044ad40 f i WinState.obj
 0001:00049d80       ??$_Refancy@PAD$0A@@std@@YAPADPAD@Z 0044ad80 f i WinState.obj
 0001:00049d90       ??$_Unfancy@$$CBD@std@@YAPBDPBD@Z 0044ad90 f i WinState.obj
 0001:00049da0       ??0?$_String_const_iterator@V?$_String_val@U?$_Simple_types@D@std@@@std@@@std@@QAE@$$QAV01@@Z 0044ada0 f i WinState.obj
 0001:00049de0       ??0?$_String_const_iterator@V?$_String_val@U?$_Simple_types@D@std@@@std@@@std@@QAE@ABV01@@Z 0044ade0 f i WinState.obj
 0001:00049e20       ??0?$_String_const_iterator@V?$_String_val@U?$_Simple_types@D@std@@@std@@@std@@QAE@PBDPBU_Container_base12@1@@Z 0044ae20 f i WinState.obj
 0001:00049e60       ??0?$_String_iterator@V?$_String_val@U?$_Simple_types@D@std@@@std@@@std@@QAE@ABV01@@Z 0044ae60 f i WinState.obj
 0001:00049e90       ??0?$_String_iterator@V?$_String_val@U?$_Simple_types@D@std@@@std@@@std@@QAE@PBDPBU_Container_base12@1@@Z 0044ae90 f i WinState.obj
 0001:00049ec0       ??1?$_String_const_iterator@V?$_String_val@U?$_Simple_types@D@std@@@std@@@std@@QAE@XZ 0044aec0 f i WinState.obj
 0001:00049ee0       ??1?$_String_iterator@V?$_String_val@U?$_Simple_types@D@std@@@std@@@std@@QAE@XZ 0044aee0 f i WinState.obj
 0001:00049f00       ??G?$_String_iterator@V?$_String_val@U?$_Simple_types@D@std@@@std@@@std@@QBE?AV01@H@Z 0044af00 f i WinState.obj
 0001:00049f50       ??H?$_String_iterator@V?$_String_val@U?$_Simple_types@D@std@@@std@@@std@@QBE?AV01@H@Z 0044af50 f i WinState.obj
 0001:00049fa0       ??Y?$_String_const_iterator@V?$_String_val@U?$_Simple_types@D@std@@@std@@@std@@QAEAAV01@H@Z 0044afa0 f i WinState.obj
 0001:00049fe0       ??Y?$_String_iterator@V?$_String_val@U?$_Simple_types@D@std@@@std@@@std@@QAEAAV01@H@Z 0044afe0 f i WinState.obj
 0001:0004a010       ??Z?$_String_const_iterator@V?$_String_val@U?$_Simple_types@D@std@@@std@@@std@@QAEAAV01@H@Z 0044b010 f i WinState.obj
 0001:0004a040       ??Z?$_String_iterator@V?$_String_val@U?$_Simple_types@D@std@@@std@@@std@@QAEAAV01@H@Z 0044b040 f i WinState.obj
 0001:0004a070       ?_Verify_offset@?$_String_const_iterator@V?$_String_val@U?$_Simple_types@D@std@@@std@@@std@@QBEXH@Z 0044b070 f i WinState.obj
 0001:0004a2b0       ?begin@?$basic_string@DU?$char_traits@D@std@@V?$allocator@D@2@@std@@QAE?AV?$_String_iterator@V?$_String_val@U?$_Simple_types@D@std@@@std@@@2@XZ 0044b2b0 f i WinState.obj
 0001:0004a300       ?end@?$basic_string@DU?$char_traits@D@std@@V?$allocator@D@2@@std@@QAE?AV?$_String_iterator@V?$_String_val@U?$_Simple_types@D@std@@@std@@@2@XZ 0044b300 f i WinState.obj
 0001:0004a350       ?erase@?$basic_string@DU?$char_traits@D@std@@V?$allocator@D@2@@std@@QAE?AV?$_String_iterator@V?$_String_val@U?$_Simple_types@D@std@@@std@@@2@V?$_String_const_iterator@V?$_String_val@U?$_Simple_types@D@std@@@std@@@2@@Z 0044b350 f i WinState.obj
 0001:0004a460       ?getWinId@Scyzc3Engine@@QAEHXZ 0044b460 f i WinState.obj
 0001:0004a480       ?getWinScore@Scyzc3Engine@@QAEHXZ 0044b480 f i WinState.obj
 0001:0004a4a0       ?virtInitialiseObjects@WinState@@UAEHXZ 0044b4a0 f i WinState.obj
 0001:0004a4b0       ?virtMouseDown@WinState@@UAEXHHH@Z 0044b4b0 f i WinState.obj
 0001:0004a4c0       ?virtInitialise@ZoomingDemo@@UAEHXZ 0044b4c0 f   ZoomingDemo.obj
 0001:0004a510       ?virtSetupBackgroundBuffer@ZoomingDemo@@UAEXXZ 0044b510 f   ZoomingDemo.obj
 0001:0004a530       ?virtInitialiseObjects@ZoomingDemo@@UAEHXZ 0044b530 f   ZoomingDemo.obj
 0001:0004a6f0       ?virtDrawStringsUnderneath@ZoomingDemo@@UAEXXZ 0044b6f0 f   ZoomingDemo.obj
 0001:0004a7a0       ?virtDrawStringsOnTop@ZoomingDemo@@UAEXXZ 0044b7a0 f   ZoomingDemo.obj
 0001:0004a820       ?virtMouseDown@ZoomingDemo@@UAEXHHH@Z 0044b820 f   ZoomingDemo.obj
 0001:0004a870       ?virtKeyDown@ZoomingDemo@@UAEXH@Z 0044b870 f   ZoomingDemo.obj
 0001:0004a970       ?virtMouseWheel@ZoomingDemo@@UAEXHHHH@Z 0044b970 f   ZoomingDemo.obj
 0001:0004ab70       ??0SimpleFlashingDragableImageObject@@QAE@HHPAVBaseEngine@@V?$basic_string@DU?$char_traits@D@std@@V?$allocator@D@2@@std@@1_N2@Z 0044bb70 f i ZoomingDemo.obj
 0001:0004ad70       ??1SimpleFlashingDragableImageObject@@UAE@XZ 0044bd70 f i ZoomingDemo.obj
 0001:0004adb0       ??_GSimpleFlashingDragableImageObject@@UAEPAXI@Z 0044bdb0 f i ZoomingDemo.obj
 0001:0004adb0       ??_ESimpleFlashingDragableImageObject@@UAEPAXI@Z 0044bdb0 f i ZoomingDemo.obj
 0001:0004adf0       ?changeOffset@FilterPointsTranslation@@QAEXHH@Z 0044bdf0 f i ZoomingDemo.obj
 0001:0004ae30       ?compress@FilterPointsScaling@@QAEXXZ 0044be30 f i ZoomingDemo.obj
 0001:0004ae60       ?compressX@FilterPointsScaling@@QAEXXZ 0044be60 f i ZoomingDemo.obj
 0001:0004aeb0       ?compressY@FilterPointsScaling@@QAEXXZ 0044beb0 f i ZoomingDemo.obj
 0001:0004af00       ?setOffset@FilterPointsTranslation@@QAEXHH@Z 0044bf00 f i ZoomingDemo.obj
 0001:0004af30       ?stretch@FilterPointsScaling@@QAEXXZ 0044bf30 f i ZoomingDemo.obj
 0001:0004af60       ?stretchX@FilterPointsScaling@@QAEXXZ 0044bf60 f i ZoomingDemo.obj
 0001:0004afb0       ?stretchY@FilterPointsScaling@@QAEXXZ 0044bfb0 f i ZoomingDemo.obj
 0001:0004b000       ?virtDoUpdate@SimpleFlashingDragableImageObject@@UAEXH@Z 0044c000 f i ZoomingDemo.obj
 0001:0004b060       ?virtDraw@SimpleFlashingDragableImageObject@@UAEXXZ 0044c060 f i ZoomingDemo.obj
 0001:0004b150       ?virtMouseDown@SimpleFlashingDragableImageObject@@UAEXHHH@Z 0044c150 f i ZoomingDemo.obj
 0001:0004b1c0       ?virtMouseMoved@SimpleFlashingDragableImageObject@@UAEXHH@Z 0044c1c0 f i ZoomingDemo.obj
 0001:0004b220       ?virtMouseUp@SimpleFlashingDragableImageObject@@UAEXHHH@Z 0044c220 f i ZoomingDemo.obj
 0001:0004b240       ??0MazeDemoMain@@QAE@XZ    0044c240 f   MazeDemoMain.obj
 0001:0004b2c0       ??1MazeDemoMain@@UAE@XZ    0044c2c0 f   MazeDemoMain.obj
 0001:0004b300       ?virtSetupBackgroundBuffer@MazeDemoMain@@UAEXXZ 0044c300 f   MazeDemoMain.obj
 0001:0004b4f0       ?virtInitialiseObjects@MazeDemoMain@@UAEHXZ 0044c4f0 f   MazeDemoMain.obj
 0001:0004b6f0       ?virtDrawStringsUnderneath@MazeDemoMain@@UAEXXZ 0044c6f0 f   MazeDemoMain.obj
 0001:0004b780       ?virtMouseDown@MazeDemoMain@@UAEXHHH@Z 0044c780 f   MazeDemoMain.obj
 0001:0004b790       ?virtKeyDown@MazeDemoMain@@UAEXH@Z 0044c790 f   MazeDemoMain.obj
 0001:0004b9e0       ??0MazeDemoTileManager@@QAE@XZ 0044c9e0 f i MazeDemoMain.obj
 0001:0004ba10       ??1MazeDemoTileManager@@UAE@XZ 0044ca10 f i MazeDemoMain.obj
 0001:0004ba40       ??_EMazeDemoMain@@UAEPAXI@Z 0044ca40 f i MazeDemoMain.obj
 0001:0004ba40       ??_GMazeDemoMain@@UAEPAXI@Z 0044ca40 f i MazeDemoMain.obj
 0001:0004ba80       ??_EMazeDemoTileManager@@UAEPAXI@Z 0044ca80 f i MazeDemoMain.obj
 0001:0004ba80       ??_GMazeDemoTileManager@@UAEPAXI@Z 0044ca80 f i MazeDemoMain.obj
 0001:0004bac0       ??0MazeDemoObject@@QAE@PAVMazeDemoMain@@HH@Z 0044cac0 f   MazeDemoObject.obj
 0001:0004bba0       ??1MazeDemoObject@@UAE@XZ  0044cba0 f   MazeDemoObject.obj
 0001:0004bbc0       ?virtDraw@MazeDemoObject@@UAEXXZ 0044cbc0 f   MazeDemoObject.obj
 0001:0004bc70       ?virtDoUpdate@MazeDemoObject@@UAEXH@Z 0044cc70 f   MazeDemoObject.obj
 0001:0004c2e0       ??_GMazeDemoObject@@UAEPAXI@Z 0044d2e0 f i MazeDemoObject.obj
 0001:0004c2e0       ??_EMazeDemoObject@@UAEPAXI@Z 0044d2e0 f i MazeDemoObject.obj
 0001:0004c320       ?GetTileManager@MazeDemoMain@@QAEAAVMazeDemoTileManager@@XZ 0044d320 f i MazeDemoObject.obj
 0001:0004c340       ?checkCircles@CollisionDetection@@SA_NHHHHH@Z 0044d340 f i MazeDemoObject.obj
 0001:0004c3a0       ?drawForegroundOval@BaseEngine@@QAEXHHHHI@Z 0044d3a0 f i MazeDemoObject.obj
 0001:0004c3e0       ?getXDiffForDirection@MazeDemoObject@@QAEHH@Z 0044d3e0 f i MazeDemoObject.obj
 0001:0004c450       ?getYDiffForDirection@MazeDemoObject@@QAEHH@Z 0044d450 f i MazeDemoObject.obj
 0001:0004c4c0       ?virtDrawTileAt@MazeDemoTileManager@@UBEXPAVBaseEngine@@PAVDrawingSurface@@HHHH@Z 0044d4c0 f   MazeDemoTileManager.obj
 0001:0004c697       _SDL_GetError              0044d697 f   SDL2:SDL2.dll
 0001:0004c69d       _SDL_RWFromFile            0044d69d f   SDL2:SDL2.dll
 0001:0004c6a3       _SDL_Init                  0044d6a3 f   SDL2:SDL2.dll
 0001:0004c6a9       _SDL_CreateRGBSurface      0044d6a9 f   SDL2:SDL2.dll
 0001:0004c6af       _SDL_FreeSurface           0044d6af f   SDL2:SDL2.dll
 0001:0004c6b5       _SDL_UpperBlit             0044d6b5 f   SDL2:SDL2.dll
 0001:0004c6bb       _SDL_LockSurface           0044d6bb f   SDL2:SDL2.dll
 0001:0004c6c1       _SDL_UnlockSurface         0044d6c1 f   SDL2:SDL2.dll
 0001:0004c6c7       _SDL_FillRect              0044d6c7 f   SDL2:SDL2.dll
 0001:0004c6cd       _SDL_CreateWindow          0044d6cd f   SDL2:SDL2.dll
 0001:0004c6d3       _SDL_PollEvent             0044d6d3 f   SDL2:SDL2.dll
 0001:0004c6d9       _SDL_WaitEvent             0044d6d9 f   SDL2:SDL2.dll
 0001:0004c6df       _SDL_CreateRenderer        0044d6df f   SDL2:SDL2.dll
 0001:0004c6e5       _SDL_CreateTexture         0044d6e5 f   SDL2:SDL2.dll
 0001:0004c6eb       _SDL_UpdateTexture         0044d6eb f   SDL2:SDL2.dll
 0001:0004c6f1       _SDL_RenderCopy            0044d6f1 f   SDL2:SDL2.dll
 0001:0004c6f7       _SDL_RenderPresent         0044d6f7 f   SDL2:SDL2.dll
 0001:0004c6fd       _SDL_GetTicks              0044d6fd f   SDL2:SDL2.dll
 0001:0004c703       _SDL_Quit                  0044d703 f   SDL2:SDL2.dll
 0001:0004c709       _SDL_SetClipRect           0044d709 f   SDL2:SDL2.dll
 0001:0004c70f       _SDL_UpperBlitScaled       0044d70f f   SDL2:SDL2.dll
 0001:0004c715       _IMG_Load                  0044d715 f   SDL2_image:SDL2_image.dll
 0001:0004c71b       _TTF_RenderText_Solid      0044d71b f   SDL2_ttf:SDL2_ttf.dll
 0001:0004c721       _TTF_Init                  0044d721 f   SDL2_ttf:SDL2_ttf.dll
 0001:0004c727       _TTF_Quit                  0044d727 f   SDL2_ttf:SDL2_ttf.dll
 0001:0004c72d       _TTF_OpenFont              0044d72d f   SDL2_ttf:SDL2_ttf.dll
 0001:0004c733       _TTF_CloseFont             0044d733 f   SDL2_ttf:SDL2_ttf.dll
 0001:0004c739       _Mix_Quit                  0044d739 f   SDL2_mixer:SDL2_mixer.dll
 0001:0004c73f       _Mix_OpenAudio             0044d73f f   SDL2_mixer:SDL2_mixer.dll
 0001:0004c745       _Mix_LoadWAV_RW            0044d745 f   SDL2_mixer:SDL2_mixer.dll
 0001:0004c74b       _Mix_LoadMUS               0044d74b f   SDL2_mixer:SDL2_mixer.dll
 0001:0004c751       _Mix_FreeChunk             0044d751 f   SDL2_mixer:SDL2_mixer.dll
 0001:0004c757       _Mix_PlayChannelTimed      0044d757 f   SDL2_mixer:SDL2_mixer.dll
 0001:0004c75d       _Mix_PlayMusic             0044d75d f   SDL2_mixer:SDL2_mixer.dll
 0001:0004c763       _Mix_Pause                 0044d763 f   SDL2_mixer:SDL2_mixer.dll
 0001:0004c769       _Mix_Resume                0044d769 f   SDL2_mixer:SDL2_mixer.dll
 0001:0004c76f       _Mix_PauseMusic            0044d76f f   SDL2_mixer:SDL2_mixer.dll
 0001:0004c775       _Mix_ResumeMusic           0044d775 f   SDL2_mixer:SDL2_mixer.dll
 0001:0004c77b       _Mix_CloseAudio            0044d77b f   SDL2_mixer:SDL2_mixer.dll
 0001:0004c781       _Mix_PausedMusic           0044d781 f   SDL2_mixer:SDL2_mixer.dll
 0001:0004c787       ?uncaught_exception@std@@YA_NXZ 0044d787 f   msvcprtd:MSVCP140D.dll
 0001:0004c78d       ?good@ios_base@std@@QBE_NXZ 0044d78d f   msvcprtd:MSVCP140D.dll
 0001:0004c793       ?flags@ios_base@std@@QBEHXZ 0044d793 f   msvcprtd:MSVCP140D.dll
 0001:0004c799       ?width@ios_base@std@@QBE_JXZ 0044d799 f   msvcprtd:MSVCP140D.dll
 0001:0004c79f       ?width@ios_base@std@@QAE_J_J@Z 0044d79f f   msvcprtd:MSVCP140D.dll
 0001:0004c7a5       ?sputc@?$basic_streambuf@DU?$char_traits@D@std@@@std@@QAEHD@Z 0044d7a5 f   msvcprtd:MSVCP140D.dll
 0001:0004c7ab       ?sputn@?$basic_streambuf@DU?$char_traits@D@std@@@std@@QAE_JPBD_J@Z 0044d7ab f   msvcprtd:MSVCP140D.dll
 0001:0004c7b1       ?setstate@?$basic_ios@DU?$char_traits@D@std@@@std@@QAEXH_N@Z 0044d7b1 f   msvcprtd:MSVCP140D.dll
 0001:0004c7b7       ?tie@?$basic_ios@DU?$char_traits@D@std@@@std@@QBEPAV?$basic_ostream@DU?$char_traits@D@std@@@2@XZ 0044d7b7 f   msvcprtd:MSVCP140D.dll
 0001:0004c7bd       ?rdbuf@?$basic_ios@DU?$char_traits@D@std@@@std@@QBEPAV?$basic_streambuf@DU?$char_traits@D@std@@@2@XZ 0044d7bd f   msvcprtd:MSVCP140D.dll
 0001:0004c7c3       ?fill@?$basic_ios@DU?$char_traits@D@std@@@std@@QBEDXZ 0044d7c3 f   msvcprtd:MSVCP140D.dll
 0001:0004c7c9       ?widen@?$basic_ios@DU?$char_traits@D@std@@@std@@QBEDD@Z 0044d7c9 f   msvcprtd:MSVCP140D.dll
 0001:0004c7cf       ?_Osfx@?$basic_ostream@DU?$char_traits@D@std@@@std@@QAEXXZ 0044d7cf f   msvcprtd:MSVCP140D.dll
 0001:0004c7d5       ??6?$basic_ostream@DU?$char_traits@D@std@@@std@@QAEAAV01@P6AAAV01@AAV01@@Z@Z 0044d7d5 f   msvcprtd:MSVCP140D.dll
 0001:0004c7db       ?put@?$basic_ostream@DU?$char_traits@D@std@@@std@@QAEAAV12@D@Z 0044d7db f   msvcprtd:MSVCP140D.dll
 0001:0004c7e1       ?flush@?$basic_ostream@DU?$char_traits@D@std@@@std@@QAEAAV12@XZ 0044d7e1 f   msvcprtd:MSVCP140D.dll
 0001:0004c7e7       ??0_Lockit@std@@QAE@H@Z    0044d7e7 f   msvcprtd:MSVCP140D.dll
 0001:0004c7ed       ??1_Lockit@std@@QAE@XZ     0044d7ed f   msvcprtd:MSVCP140D.dll
 0001:0004c7f3       ?_Xlength_error@std@@YAXPBD@Z 0044d7f3 f   msvcprtd:MSVCP140D.dll
 0001:0004c7f9       ?_Xout_of_range@std@@YAXPBD@Z 0044d7f9 f   msvcprtd:MSVCP140D.dll
 0001:0004c800       ??0_Fac_node@std@@QAE@PAU01@PAV_Facet_base@1@@Z 0044d800 f i msvcprtd:locale0_implib.obj
 0001:0004c830       ??1_Fac_node@std@@QAE@XZ   0044d830 f i msvcprtd:locale0_implib.obj
 0001:0004c8b0       ??1_Fac_tidy_reg_t@std@@QAE@XZ 0044d8b0 f i msvcprtd:locale0_implib.obj
 0001:0004c910       ??2_Fac_node@std@@SAPAXI@Z 0044d910 f i msvcprtd:locale0_implib.obj
 0001:0004c970       ??3_Fac_node@std@@SAXPAX@Z 0044d970 f i msvcprtd:locale0_implib.obj
 0001:0004c990       ??_G_Fac_node@std@@QAEPAXI@Z 0044d990 f i msvcprtd:locale0_implib.obj
 0001:0004c9f0       ?_Facet_Register@std@@YAXPAV_Facet_base@1@@Z 0044d9f0 f   msvcprtd:locale0_implib.obj
 0001:0004caa0       ?__empty_global_delete@@YAXPAXIW4align_val_t@std@@@Z 0044daa0 f i msvcprtd:locale0_implib.obj
 0001:0004cab0       ?__empty_global_delete@@YAXPAXW4align_val_t@std@@@Z 0044dab0 f i msvcprtd:locale0_implib.obj
 0001:0004cab5       ??Bid@locale@std@@QAEIXZ   0044dab5 f   msvcprtd:MSVCP140D.dll
 0001:0004cabb       ?_Getgloballocale@locale@std@@CAPAV_Locimp@12@XZ 0044dabb f   msvcprtd:MSVCP140D.dll
 0001:0004cac1       ?always_noconv@codecvt_base@std@@QBE_NXZ 0044dac1 f   msvcprtd:MSVCP140D.dll
 0001:0004cac7       ?is@?$ctype@D@std@@QBE_NFD@Z 0044dac7 f   msvcprtd:MSVCP140D.dll
 0001:0004cacd       ?_Getcat@?$ctype@D@std@@SAIPAPBVfacet@locale@2@PBV42@@Z 0044dacd f   msvcprtd:MSVCP140D.dll
 0001:0004cad3       ?in@?$codecvt@DDU_Mbstatet@@@std@@QBEHAAU_Mbstatet@@PBD1AAPBDPAD3AAPAD@Z 0044dad3 f   msvcprtd:MSVCP140D.dll
 0001:0004cad9       ?out@?$codecvt@DDU_Mbstatet@@@std@@QBEHAAU_Mbstatet@@PBD1AAPBDPAD3AAPAD@Z 0044dad9 f   msvcprtd:MSVCP140D.dll
 0001:0004cadf       ?unshift@?$codecvt@DDU_Mbstatet@@@std@@QBEHAAU_Mbstatet@@PAD1AAPAD@Z 0044dadf f   msvcprtd:MSVCP140D.dll
 0001:0004cae5       ?_Getcat@?$codecvt@DDU_Mbstatet@@@std@@SAIPAPBVfacet@locale@2@PBV42@@Z 0044dae5 f   msvcprtd:MSVCP140D.dll
 0001:0004caeb       ?eof@ios_base@std@@QBE_NXZ 0044daeb f   msvcprtd:MSVCP140D.dll
 0001:0004caf1       ?getloc@ios_base@std@@QBE?AVlocale@2@XZ 0044daf1 f   msvcprtd:MSVCP140D.dll
 0001:0004caf7       ??0?$basic_streambuf@DU?$char_traits@D@std@@@std@@IAE@XZ 0044daf7 f   msvcprtd:MSVCP140D.dll
 0001:0004cafd       ??1?$basic_streambuf@DU?$char_traits@D@std@@@std@@UAE@XZ 0044dafd f   msvcprtd:MSVCP140D.dll
 0001:0004cb03       ?getloc@?$basic_streambuf@DU?$char_traits@D@std@@@std@@QBE?AVlocale@2@XZ 0044db03 f   msvcprtd:MSVCP140D.dll
 0001:0004cb09       ?sgetc@?$basic_streambuf@DU?$char_traits@D@std@@@std@@QAEHXZ 0044db09 f   msvcprtd:MSVCP140D.dll
 0001:0004cb0f       ?snextc@?$basic_streambuf@DU?$char_traits@D@std@@@std@@QAEHXZ 0044db0f f   msvcprtd:MSVCP140D.dll
 0001:0004cb15       ?eback@?$basic_streambuf@DU?$char_traits@D@std@@@std@@IBEPADXZ 0044db15 f   msvcprtd:MSVCP140D.dll
 0001:0004cb1b       ?gptr@?$basic_streambuf@DU?$char_traits@D@std@@@std@@IBEPADXZ 0044db1b f   msvcprtd:MSVCP140D.dll
 0001:0004cb21       ?pptr@?$basic_streambuf@DU?$char_traits@D@std@@@std@@IBEPADXZ 0044db21 f   msvcprtd:MSVCP140D.dll
 0001:0004cb27       ?egptr@?$basic_streambuf@DU?$char_traits@D@std@@@std@@IBEPADXZ 0044db27 f   msvcprtd:MSVCP140D.dll
 0001:0004cb2d       ?gbump@?$basic_streambuf@DU?$char_traits@D@std@@@std@@IAEXH@Z 0044db2d f   msvcprtd:MSVCP140D.dll
 0001:0004cb33       ?setg@?$basic_streambuf@DU?$char_traits@D@std@@@std@@IAEXPAD00@Z 0044db33 f   msvcprtd:MSVCP140D.dll
 0001:0004cb39       ?epptr@?$basic_streambuf@DU?$char_traits@D@std@@@std@@IBEPADXZ 0044db39 f   msvcprtd:MSVCP140D.dll
 0001:0004cb3f       ?_Gndec@?$basic_streambuf@DU?$char_traits@D@std@@@std@@IAEPADXZ 0044db3f f   msvcprtd:MSVCP140D.dll
 0001:0004cb45       ?_Gninc@?$basic_streambuf@DU?$char_traits@D@std@@@std@@IAEPADXZ 0044db45 f   msvcprtd:MSVCP140D.dll
 0001:0004cb4b       ?_Gnavail@?$basic_streambuf@DU?$char_traits@D@std@@@std@@IBE_JXZ 0044db4b f   msvcprtd:MSVCP140D.dll
 0001:0004cb51       ?pbump@?$basic_streambuf@DU?$char_traits@D@std@@@std@@IAEXH@Z 0044db51 f   msvcprtd:MSVCP140D.dll
 0001:0004cb57       ?_Pninc@?$basic_streambuf@DU?$char_traits@D@std@@@std@@IAEPADXZ 0044db57 f   msvcprtd:MSVCP140D.dll
 0001:0004cb5d       ?_Pnavail@?$basic_streambuf@DU?$char_traits@D@std@@@std@@IBE_JXZ 0044db5d f   msvcprtd:MSVCP140D.dll
 0001:0004cb63       ?_Init@?$basic_streambuf@DU?$char_traits@D@std@@@std@@IAEXXZ 0044db63 f   msvcprtd:MSVCP140D.dll
 0001:0004cb69       ?_Init@?$basic_streambuf@DU?$char_traits@D@std@@@std@@IAEXPAPAD0PAH001@Z 0044db69 f   msvcprtd:MSVCP140D.dll
 0001:0004cb6f       ?xsgetn@?$basic_streambuf@DU?$char_traits@D@std@@@std@@MAE_JPAD_J@Z 0044db6f f   msvcprtd:MSVCP140D.dll
 0001:0004cb75       ?xsputn@?$basic_streambuf@DU?$char_traits@D@std@@@std@@MAE_JPBD_J@Z 0044db75 f   msvcprtd:MSVCP140D.dll
 0001:0004cb7b       ??1?$basic_ios@DU?$char_traits@D@std@@@std@@UAE@XZ 0044db7b f   msvcprtd:MSVCP140D.dll
 0001:0004cb81       ?clear@?$basic_ios@DU?$char_traits@D@std@@@std@@QAEXH_N@Z 0044db81 f   msvcprtd:MSVCP140D.dll
 0001:0004cb87       ??0?$basic_ios@DU?$char_traits@D@std@@@std@@IAE@XZ 0044db87 f   msvcprtd:MSVCP140D.dll
 0001:0004cb8d       ??0?$basic_istream@DU?$char_traits@D@std@@@std@@QAE@PAV?$basic_streambuf@DU?$char_traits@D@std@@@1@_N@Z 0044db8d f   msvcprtd:MSVCP140D.dll
 0001:0004cb93       ??1?$basic_istream@DU?$char_traits@D@std@@@std@@UAE@XZ 0044db93 f   msvcprtd:MSVCP140D.dll
 0001:0004cb99       ?_Ipfx@?$basic_istream@DU?$char_traits@D@std@@@std@@QAE_N_N@Z 0044db99 f   msvcprtd:MSVCP140D.dll
 0001:0004cb9f       ??5?$basic_istream@DU?$char_traits@D@std@@@std@@QAEAAV01@AAH@Z 0044db9f f   msvcprtd:MSVCP140D.dll
 0001:0004cba5       ?_Fiopen@std@@YAPAU_iobuf@@PBDHH@Z 0044dba5 f   msvcprtd:MSVCP140D.dll
 0001:0004cbab       ?showmanyc@?$basic_streambuf@DU?$char_traits@D@std@@@std@@MAE_JXZ 0044dbab f   msvcprtd:MSVCP140D.dll
 0001:0004cbb1       ??Bios_base@std@@QBE_NXZ   0044dbb1 f   msvcprtd:MSVCP140D.dll
 0001:0004cbb7       ?sbumpc@?$basic_streambuf@DU?$char_traits@D@std@@@std@@QAEHXZ 0044dbb7 f   msvcprtd:MSVCP140D.dll
 0001:0004cbbd       ??0?$basic_ostream@DU?$char_traits@D@std@@@std@@QAE@PAV?$basic_streambuf@DU?$char_traits@D@std@@@1@_N@Z 0044dbbd f   msvcprtd:MSVCP140D.dll
 0001:0004cbc3       ??1?$basic_ostream@DU?$char_traits@D@std@@@std@@UAE@XZ 0044dbc3 f   msvcprtd:MSVCP140D.dll
 0001:0004cbc9       ??6?$basic_ostream@DU?$char_traits@D@std@@@std@@QAEAAV01@H@Z 0044dbc9 f   msvcprtd:MSVCP140D.dll
 0001:0004cbcf       ?_Xbad_alloc@std@@YAXXZ    0044dbcf f   msvcprtd:MSVCP140D.dll
 0001:0004cfb0       ?configure_argv@__scrt_narrow_argv_policy@@SAHXZ 0044dfb0 f i MSVCRTD:exe_main.obj
 0001:0004cfd0       ?initialize_environment@__scrt_narrow_environment_policy@@SAHXZ 0044dfd0 f i MSVCRTD:exe_main.obj
 0001:0004d030       ?set_app_type@__scrt_main_policy@@SAXXZ 0044e030 f i MSVCRTD:exe_main.obj
 0001:0004d050       ?set_commode@__scrt_file_policy@@SAXXZ 0044e050 f i MSVCRTD:exe_main.obj
 0001:0004d070       ?set_fmode@__scrt_file_policy@@SAXXZ 0044e070 f i MSVCRTD:exe_main.obj
 0001:0004d090       _mainCRTStartup            0044e090 f   MSVCRTD:exe_main.obj
 0001:0004d0a0       @__security_check_cookie@4 0044e0a0 f   MSVCRTD:secchk.obj
 0001:0004d0c0       ??2@YAPAXI@Z               0044e0c0 f   MSVCRTD:new_scalar.obj
 0001:0004d120       ??3@YAXPAXI@Z              0044e120 f   MSVCRTD:delete_scalar_size.obj
 0001:0004d140       ??_V@YAXPAX@Z              0044e140 f   MSVCRTD:delete_array.obj
 0001:0004d160       ??1type_info@@UAE@XZ       0044e160 f   MSVCRTD:std_type_info_static.obj
 0001:0004d180       ??_Gtype_info@@UAEPAXI@Z   0044e180 f i MSVCRTD:std_type_info_static.obj
 0001:0004d180       ??_Etype_info@@UAEPAXI@Z   0044e180 f i MSVCRTD:std_type_info_static.obj
 0001:0004d1c0       ??_U@YAPAXI@Z              0044e1c0 f   MSVCRTD:new_array.obj
 0001:0004d320       _NtCurrentTeb              0044e320 f i MSVCRTD:utility.obj
 0001:0004d330       ___scrt_acquire_startup_lock 0044e330 f   MSVCRTD:utility.obj
 0001:0004d390       ___scrt_dllmain_after_initialize_c 0044e390 f   MSVCRTD:utility.obj
 0001:0004d3d0       ___scrt_dllmain_before_initialize_c 0044e3d0 f   MSVCRTD:utility.obj
 0001:0004d400       ___scrt_dllmain_crt_thread_attach 0044e400 f   MSVCRTD:utility.obj
 0001:0004d440       ___scrt_dllmain_crt_thread_detach 0044e440 f   MSVCRTD:utility.obj
 0001:0004d460       ___scrt_dllmain_exception_filter 0044e460 f   MSVCRTD:utility.obj
 0001:0004d4c0       ___scrt_dllmain_uninitialize_c 0044e4c0 f   MSVCRTD:utility.obj
 0001:0004d500       ___scrt_dllmain_uninitialize_critical 0044e500 f   MSVCRTD:utility.obj
 0001:0004d520       ___scrt_initialize_crt     0044e520 f   MSVCRTD:utility.obj
 0001:0004d580       ___scrt_initialize_onexit_tables 0044e580 f   MSVCRTD:utility.obj
 0001:0004d690       ___scrt_is_nonwritable_in_current_image 0044e690 f   MSVCRTD:utility.obj
 0001:0004d810       ___scrt_release_startup_lock 0044e810 f   MSVCRTD:utility.obj
 0001:0004d840       ___scrt_uninitialize_crt   0044e840 f   MSVCRTD:utility.obj
 0001:0004d890       __onexit                   0044e890 f   MSVCRTD:utility.obj
 0001:0004d910       _at_quick_exit             0044e910 f   MSVCRTD:utility.obj
 0001:0004d960       _atexit                    0044e960 f   MSVCRTD:utility.obj
 0001:0004d9a0       __ftol2_sse                0044e9a0     MSVCRTD:ftol2.obj
 0001:0004d9a0       __ftoi2                    0044e9a0 f   MSVCRTD:ftol2.obj
 0001:0004d9a0       __ftol2_sse_excpt          0044e9a0     MSVCRTD:ftol2.obj
 0001:0004da20       __ftoui2                   0044ea20 f   MSVCRTD:ftol2.obj
 0001:0004dad0       __ftol2                    0044ead0 f   MSVCRTD:ftol2.obj
 0001:0004db80       __ftoul2                   0044eb80 f   MSVCRTD:ftol2.obj
 0001:0004dce0       ??_M@YGXPAXIHP6EX0@Z@Z     0044ece0 f   MSVCRTD:ehvecdtr.obj
 0001:0004dd10       ??_M@YGXPAXIIP6EX0@Z@Z     0044ed10 f   MSVCRTD:ehvecdtr.obj
 0001:0004de70       ?__ArrayUnwind@@YGXPAXIIP6EX0@Z@Z 0044ee70 f   MSVCRTD:ehvecdtr.obj
 0001:0004df50       __ftoui3                   0044ef50 f   MSVCRTD:ftol3.obj
 0001:0004df96       __ftoul3                   0044ef96 f   MSVCRTD:ftol3.obj
 0001:0004e008       __ftol3                    0044f008 f   MSVCRTD:ftol3.obj
 0001:0004e075       __dtoui3                   0044f075 f   MSVCRTD:ftol3.obj
 0001:0004e0e9       __dtoul3                   0044f0e9 f   MSVCRTD:ftol3.obj
 0001:0004e18b       __dtol3                    0044f18b f   MSVCRTD:ftol3.obj
 0001:0004e240       __ultod3                   0044f240 f   MSVCRTD:ftol3.obj
 0001:0004e2a0       __ltod3                    0044f2a0 f   MSVCRTD:ftol3.obj
 0001:0004e3d0       @_guard_check_icall_nop@4  0044f3d0 f i MSVCRTD:guard_support.obj
 0001:0004e3e0       _ReadNoFence               0044f3e0 f i MSVCRTD:guard_support.obj
 0001:0004e400       _ReadPointerNoFence        0044f400 f i MSVCRTD:guard_support.obj
 0001:0004e420       ___castguard_check_failure_debugbreak 0044f420 f i MSVCRTD:guard_support.obj
 0001:0004e440       ___castguard_check_failure_fastfail 0044f440 f i MSVCRTD:guard_support.obj
 0001:0004e470       ___castguard_check_failure_nop 0044f470 f i MSVCRTD:guard_support.obj
 0001:0004e480       ___castguard_check_failure_os_handled 0044f480 f i MSVCRTD:guard_support.obj
 0001:0004e520       ___castguard_slow_path_check_debugbreak 0044f520 f i MSVCRTD:guard_support.obj
 0001:0004e560       ___castguard_slow_path_check_fastfail 0044f560 f i MSVCRTD:guard_support.obj
 0001:0004e5b0       ___castguard_slow_path_check_nop 0044f5b0 f i MSVCRTD:guard_support.obj
 0001:0004e5c0       ___castguard_slow_path_check_os_handled 0044f5c0 f i MSVCRTD:guard_support.obj
 0001:0004e680       __guard_icall_checks_enforced 0044f680 f i MSVCRTD:guard_support.obj
 0001:0004e750       ___security_init_cookie    0044f750 f   MSVCRTD:gs_support.obj
 0001:0004e7f0       __matherr                  0044f7f0 f   MSVCRTD:matherr.obj
 0001:0004e800       __get_startup_argv_mode    0044f800 f   MSVCRTD:argv_mode.obj
 0001:0004e810       __get_startup_commit_mode  0044f810 f   MSVCRTD:commit_mode.obj
 0001:0004e820       __get_startup_file_mode    0044f820 f   MSVCRTD:file_mode.obj
 0001:0004e830       __get_startup_new_mode     0044f830 f   MSVCRTD:new_mode.obj
 0001:0004e840       __get_startup_thread_locale_mode 0044f840 f   MSVCRTD:thread_locale.obj
 0001:0004e850       ?__scrt_initialize_type_info@@YAXXZ 0044f850 f   MSVCRTD:tncleanup.obj
 0001:0004e870       ?__scrt_uninitialize_type_info@@YAXXZ 0044f870 f   MSVCRTD:tncleanup.obj
 0001:0004e890       __should_initialize_environment 0044f890 f   MSVCRTD:env_mode.obj
 0001:0004e8a0       __initialize_default_precision 0044f8a0 f   MSVCRTD:default_precision.obj
 0001:0004e8d0       __initialize_invalid_parameter_handler 0044f8d0 f   MSVCRTD:invalid_parameter_handler.obj
 0001:0004e8e0       __initialize_denormal_control 0044f8e0 f   MSVCRTD:denormal_control.obj
 0001:0004e8f0       ___local_stdio_scanf_options 0044f8f0 f i MSVCRTD:default_local_stdio_options.obj
 0001:0004e900       ___scrt_initialize_default_local_stdio_options 0044f900 f   MSVCRTD:default_local_stdio_options.obj
 0001:0004e950       ___scrt_is_user_matherr_present 0044f950 f   MSVCRTD:matherr_detection.obj
 0001:0004e980       ___scrt_get_dyn_tls_init_callback 0044f980 f   MSVCRTD:dyn_tls_init.obj
 0001:0004e990       ___scrt_get_dyn_tls_dtor_callback 0044f990 f   MSVCRTD:dyn_tls_dtor.obj
 0001:0004e9a0       ___scrt_fastfail           0044f9a0 f   MSVCRTD:utility_desktop.obj
 0001:0004eb30       ___scrt_get_show_window_mode 0044fb30 f   MSVCRTD:utility_desktop.obj
 0001:0004eb80       ___scrt_initialize_mta     0044fb80 f   MSVCRTD:utility_desktop.obj
 0001:0004eb90       ___scrt_initialize_winrt   0044fb90 f   MSVCRTD:utility_desktop.obj
 0001:0004eba0       ___scrt_is_managed_app     0044fba0 f   MSVCRTD:utility_desktop.obj
 0001:0004ec50       ___scrt_set_unhandled_exception_filter 0044fc50 f   MSVCRTD:utility_desktop.obj
 0001:0004ec70       ___scrt_stub_for_initialize_mta 0044fc70 f   MSVCRTD:utility_desktop.obj
 0001:0004ec70       ___scrt_exe_initialize_mta 0044fc70 f   MSVCRTD:utility_desktop.obj
 0001:0004ec80       ___scrt_unhandled_exception_filter@4 0044fc80 f   MSVCRTD:utility_desktop.obj
 0001:0004ed20       __crt_debugger_hook        0044fd20 f   MSVCRTD:utility_desktop.obj
 0001:0004ed40       __RTC_Initialize           0044fd40 f   MSVCRTD:initsect.obj
 0001:0004ed80       __RTC_Terminate            0044fd80 f   MSVCRTD:initsect.obj
 0001:0004edc0       __except_handler4          0044fdc0 f   MSVCRTD:chandler4gs.obj
 0001:0004ee10       ___raise_securityfailure   0044fe10 f   MSVCRTD:gs_report.obj
 0001:0004ee50       ___report_gsfailure        0044fe50 f   MSVCRTD:gs_report.obj
 0001:0004efa0       ___report_rangecheckfailure 0044ffa0 f   MSVCRTD:gs_report.obj
 0001:0004efb0       ___report_securityfailure  0044ffb0 f   MSVCRTD:gs_report.obj
 0001:0004f0c0       ___report_securityfailureEx 004500c0 f   MSVCRTD:gs_report.obj
 0001:0004f230       ??0bad_alloc@std@@QAE@XZ   00450230 f i MSVCRTD:throw_bad_alloc.obj
 0001:0004f260       ?__scrt_throw_std_bad_alloc@@YAXXZ 00450260 f   MSVCRTD:throw_bad_alloc.obj
 0001:0004f290       ?__scrt_throw_std_bad_array_new_length@@YAXXZ 00450290 f   MSVCRTD:throw_bad_alloc.obj
 0001:0004f2c0       ??3@YAXPAX@Z               004502c0 f   MSVCRTD:delete_scalar.obj
 0001:0004f2e0       ___isa_available_init      004502e0 f   MSVCRTD:cpu_disp.obj
 0001:0004f6e0       ___scrt_is_ucrt_dll_in_use 004506e0 f   MSVCRTD:ucrt_detection.obj
 0001:0004f70d       ___CxxFrameHandler3        0045070d f   vcruntimed:VCRUNTIME140D.dll
 0001:0004f713       _memcmp                    00450713 f   vcruntimed:VCRUNTIME140D.dll
 0001:0004f719       _memcpy                    00450719 f   vcruntimed:VCRUNTIME140D.dll
 0001:0004f71f       _memmove                   0045071f f   vcruntimed:VCRUNTIME140D.dll
 0001:0004f725       ___std_exception_copy      00450725 f   vcruntimed:VCRUNTIME140D.dll
 0001:0004f72b       ___std_exception_destroy   0045072b f   vcruntimed:VCRUNTIME140D.dll
 0001:0004f731       __CxxThrowException@8      00450731 f   vcruntimed:VCRUNTIME140D.dll
 0001:0004f737       __purecall                 00450737 f   vcruntimed:VCRUNTIME140D.dll
 0001:0004f73d       _memset                    0045073d f   vcruntimed:VCRUNTIME140D.dll
 0001:0004f743       ___current_exception       00450743 f   vcruntimed:VCRUNTIME140D.dll
 0001:0004f749       ___current_exception_context 00450749 f   vcruntimed:VCRUNTIME140D.dll
 0001:0004f74f       ___std_type_info_destroy_list 0045074f f   vcruntimed:VCRUNTIME140D.dll
 0001:0004f755       __except_handler4_common   00450755 f   vcruntimed:VCRUNTIME140D.dll
 0001:0004f75b       _strlen                    0045075b f   ucrtd:ucrtbased.dll
 0001:0004f761       __invalid_parameter        00450761 f   ucrtd:ucrtbased.dll
 0001:0004f767       __CrtDbgReport             00450767 f   ucrtd:ucrtbased.dll
 0001:0004f76d       ___acrt_iob_func           0045076d f   ucrtd:ucrtbased.dll
 0001:0004f773       ___stdio_common_vfprintf   00450773 f   ucrtd:ucrtbased.dll
 0001:0004f779       _rand                      00450779 f   ucrtd:ucrtbased.dll
 0001:0004f77f       _atan                      0045077f f   ucrtd:ucrtbased.dll
 0001:0004f785       _cos                       00450785 f   ucrtd:ucrtbased.dll
 0001:0004f78b       _sin                       0045078b f   ucrtd:ucrtbased.dll
 0001:0004f791       _sqrt                      00450791 f   ucrtd:ucrtbased.dll
 0001:0004f797       __get_stream_buffer_pointers 00450797 f   ucrtd:ucrtbased.dll
 0001:0004f79d       _fclose                    0045079d f   ucrtd:ucrtbased.dll
 0001:0004f7a3       _fflush                    004507a3 f   ucrtd:ucrtbased.dll
 0001:0004f7a9       _fgetc                     004507a9 f   ucrtd:ucrtbased.dll
 0001:0004f7af       _fgetpos                   004507af f   ucrtd:ucrtbased.dll
 0001:0004f7b5       _fputc                     004507b5 f   ucrtd:ucrtbased.dll
 0001:0004f7bb       _fread                     004507bb f   ucrtd:ucrtbased.dll
 0001:0004f7c1       _fsetpos                   004507c1 f   ucrtd:ucrtbased.dll
 0001:0004f7c7       __fseeki64                 004507c7 f   ucrtd:ucrtbased.dll
 0001:0004f7cd       _fwrite                    004507cd f   ucrtd:ucrtbased.dll
 0001:0004f7d3       _setvbuf                   004507d3 f   ucrtd:ucrtbased.dll
 0001:0004f7d9       _ungetc                    004507d9 f   ucrtd:ucrtbased.dll
 0001:0004f7df       __lock_file                004507df f   ucrtd:ucrtbased.dll
 0001:0004f7e5       __unlock_file              004507e5 f   ucrtd:ucrtbased.dll
 0001:0004f7eb       ___stdio_common_vsprintf   004507eb f   ucrtd:ucrtbased.dll
 0001:0004f7f1       __CrtDumpMemoryLeaks       004507f1 f   ucrtd:ucrtbased.dll
 0001:0004f7f7       _srand                     004507f7 f   ucrtd:ucrtbased.dll
 0001:0004f7fd       __time64                   004507fd f   ucrtd:ucrtbased.dll
 0001:0004f803       _puts                      00450803 f   ucrtd:ucrtbased.dll
 0001:0004f809       _strcmp                    00450809 f   ucrtd:ucrtbased.dll
 0001:0004f80f       _strcpy                    0045080f f   ucrtd:ucrtbased.dll
 0001:0004f815       _pow                       00450815 f   ucrtd:ucrtbased.dll
 0001:0004f81b       _exit                      0045081b f   ucrtd:ucrtbased.dll
 0001:0004f821       __ctime64                  00450821 f   ucrtd:ucrtbased.dll
 0001:0004f827       _ceil                      00450827 f   ucrtd:ucrtbased.dll
 0001:0004f82d       __free_dbg                 0045082d f   ucrtd:ucrtbased.dll
 0001:0004f833       __malloc_dbg               00450833 f   ucrtd:ucrtbased.dll
 0001:0004f839       __seh_filter_exe           00450839 f   ucrtd:ucrtbased.dll
 0001:0004f83f       __set_app_type             0045083f f   ucrtd:ucrtbased.dll
 0001:0004f845       ___setusermatherr          00450845 f   ucrtd:ucrtbased.dll
 0001:0004f84b       __configure_narrow_argv    0045084b f   ucrtd:ucrtbased.dll
 0001:0004f851       __initialize_narrow_environment 00450851 f   ucrtd:ucrtbased.dll
 0001:0004f857       __get_initial_narrow_environment 00450857 f   ucrtd:ucrtbased.dll
 0001:0004f85d       __initterm                 0045085d f   ucrtd:ucrtbased.dll
 0001:0004f863       __initterm_e               00450863 f   ucrtd:ucrtbased.dll
 0001:0004f869       __exit                     00450869 f   ucrtd:ucrtbased.dll
 0001:0004f86f       __set_fmode                0045086f f   ucrtd:ucrtbased.dll
 0001:0004f875       ___p___argc                00450875 f   ucrtd:ucrtbased.dll
 0001:0004f87b       ___p___argv                0045087b f   ucrtd:ucrtbased.dll
 0001:0004f881       __cexit                    00450881 f   ucrtd:ucrtbased.dll
 0001:0004f887       __c_exit                   00450887 f   ucrtd:ucrtbased.dll
 0001:0004f88d       __register_thread_local_exe_atexit_callback 0045088d f   ucrtd:ucrtbased.dll
 0001:0004f893       __configthreadlocale       00450893 f   ucrtd:ucrtbased.dll
 0001:0004f899       __set_new_mode             00450899 f   ucrtd:ucrtbased.dll
 0001:0004f89f       ___p__commode              0045089f f   ucrtd:ucrtbased.dll
 0001:0004f8a5       __callnewh                 004508a5 f   ucrtd:ucrtbased.dll
 0001:0004f8ab       _malloc                    004508ab f   ucrtd:ucrtbased.dll
 0001:0004f8b1       __seh_filter_dll           004508b1 f   ucrtd:ucrtbased.dll
 0001:0004f8b7       __initialize_onexit_table  004508b7 f   ucrtd:ucrtbased.dll
 0001:0004f8bd       __register_onexit_function 004508bd f   ucrtd:ucrtbased.dll
 0001:0004f8c3       __execute_onexit_table     004508c3 f   ucrtd:ucrtbased.dll
 0001:0004f8c9       __crt_atexit               004508c9 f   ucrtd:ucrtbased.dll
 0001:0004f8cf       __crt_at_quick_exit        004508cf f   ucrtd:ucrtbased.dll
 0001:0004f8d5       _terminate                 004508d5 f   ucrtd:ucrtbased.dll
 0001:0004f8db       __except1                  004508db f   ucrtd:ucrtbased.dll
 0001:0004f8e1       __controlfp_s              004508e1 f   ucrtd:ucrtbased.dll
 0001:0004fa30       _WinMain@16                00450a30 f   SDL2main:SDL_windows_main.obj
 0001:0004fa40       _main                      00450a40 f   SDL2main:SDL_windows_main.obj
 0001:0004fb90       _wmain                     00450b90 f   SDL2main:SDL_windows_main.obj
 0001:0004fb95       _QueryPerformanceCounter@4 00450b95 f   kernel32:KERNEL32.dll
 0001:0004fb9b       _GetCurrentProcessId@0     00450b9b f   kernel32:KERNEL32.dll
 0001:0004fba1       _GetCurrentThreadId@0      00450ba1 f   kernel32:KERNEL32.dll
 0001:0004fba7       _GetSystemTimeAsFileTime@4 00450ba7 f   kernel32:KERNEL32.dll
 0001:0004fbad       _InitializeSListHead@4     00450bad f   kernel32:KERNEL32.dll
 0001:0004fbb3       _IsDebuggerPresent@0       00450bb3 f   kernel32:KERNEL32.dll
 0001:0004fbb9       _UnhandledExceptionFilter@4 00450bb9 f   kernel32:KERNEL32.dll
 0001:0004fbbf       _SetUnhandledExceptionFilter@4 00450bbf f   kernel32:KERNEL32.dll
 0001:0004fbc5       _GetStartupInfoW@4         00450bc5 f   kernel32:KERNEL32.dll
 0001:0004fbcb       _IsProcessorFeaturePresent@4 00450bcb f   kernel32:KERNEL32.dll
 0001:0004fbd1       _GetModuleHandleW@4        00450bd1 f   kernel32:KERNEL32.dll
 0001:0004fbd7       _GetCurrentProcess@0       00450bd7 f   kernel32:KERNEL32.dll
 0001:0004fbdd       _TerminateProcess@8        00450bdd f   kernel32:KERNEL32.dll
 0001:0004fbe3       _GetCommandLineW@0         00450be3 f   kernel32:KERNEL32.dll
 0001:0004fbe9       _VirtualAlloc@16           00450be9 f   kernel32:KERNEL32.dll
 0001:0004fbef       _VirtualFree@12            00450bef f   kernel32:KERNEL32.dll
 0001:0004fbf5       _WideCharToMultiByte@32    00450bf5 f   kernel32:KERNEL32.dll
 0001:0004fbfb       _SDL_SetMainReady          00450bfb f   SDL2:SDL2.dll
 0001:0004fc01       _SDL_ShowSimpleMessageBox  00450c01 f   SDL2:SDL2.dll
 0001:0004fc10       ___vcrt_initialize         00450c10 f   MSVCRTD:ucrt_stubs.obj
 0001:0004fc10       ___acrt_initialize         00450c10 f   MSVCRTD:ucrt_stubs.obj
 0001:0004fc10       ___scrt_stub_for_acrt_initialize 00450c10 f   MSVCRTD:ucrt_stubs.obj
 0001:0004fc20       ___vcrt_thread_attach      00450c20 f   MSVCRTD:ucrt_stubs.obj
 0001:0004fc20       ___acrt_thread_attach      00450c20 f   MSVCRTD:ucrt_stubs.obj
 0001:0004fc20       ___scrt_stub_for_acrt_thread_attach 00450c20 f   MSVCRTD:ucrt_stubs.obj
 0001:0004fc30       ___acrt_thread_detach      00450c30 f   MSVCRTD:ucrt_stubs.obj
 0001:0004fc30       ___vcrt_thread_detach      00450c30 f   MSVCRTD:ucrt_stubs.obj
 0001:0004fc30       ___scrt_stub_for_acrt_thread_detach 00450c30 f   MSVCRTD:ucrt_stubs.obj
 0001:0004fc40       ___acrt_uninitialize       00450c40 f   MSVCRTD:ucrt_stubs.obj
 0001:0004fc40       ___vcrt_uninitialize       00450c40 f   MSVCRTD:ucrt_stubs.obj
 0001:0004fc40       ___scrt_stub_for_acrt_uninitialize 00450c40 f   MSVCRTD:ucrt_stubs.obj
 0001:0004fc50       ___scrt_stub_for_acrt_uninitialize_critical 00450c50 f   MSVCRTD:ucrt_stubs.obj
 0001:0004fc50       ___acrt_uninitialize_critical 00450c50 f   MSVCRTD:ucrt_stubs.obj
 0001:0004fc50       ___vcrt_uninitialize_critical 00450c50 f   MSVCRTD:ucrt_stubs.obj
 0001:0004fc60       __is_c_termination_complete 00450c60 f   MSVCRTD:ucrt_stubs.obj
 0001:0004fc60       ___scrt_stub_for_is_c_termination_complete 00450c60 f   MSVCRTD:ucrt_stubs.obj
 0001:0004fc70       __filter_x86_sse2_floating_point_exception_default 00450c70 f   MSVCRTD:x86_exception_filter.obj
 0001:0004fc70       __filter_x86_sse2_floating_point_exception 00450c70 f   MSVCRTD:x86_exception_filter.obj
 0002:00000000       ___xc_a                    00459000     MSVCRTD:initializers.obj
 0002:0000030c       ___xc_z                    0045930c     MSVCRTD:initializers.obj
 0002:00000410       ___xi_a                    00459410     MSVCRTD:initializers.obj
 0002:0000071c       ___xi_z                    0045971c     MSVCRTD:initializers.obj
 0002:00000820       ___xp_a                    00459820     MSVCRTD:initializers.obj
 0002:00000924       ___xp_z                    00459924     MSVCRTD:initializers.obj
 0002:00000a28       ___xt_a                    00459a28     MSVCRTD:initializers.obj
 0002:00000b2c       ___xt_z                    00459b2c     MSVCRTD:initializers.obj
 0002:0000143c       ??_7exception@std@@6B@     0045a43c     bullet.obj
 0002:00001448       ??_C@_0BC@EOODALEL@Unknown?5exception@ 0045a448     bullet.obj
 0002:00001464       ??_7bad_alloc@std@@6B@     0045a464     bullet.obj
 0002:00001474       ??_7bad_array_new_length@std@@6B@ 0045a474     bullet.obj
 0002:00001480       ??_C@_0BF@KINCDENJ@bad?5array?5new?5length@ 0045a480     bullet.obj
 0002:0000149c       ??_C@_0BB@FCMFBGOM@invalid?5argument@ 0045a49c     bullet.obj
 0002:000014b0       ??_C@_02DKCKIIND@?$CFs@    0045a4b0     bullet.obj
 0002:000014b8       ??_C@_0GI@CLKHGMEI@C?3?2Program?5Files?5?$CIx86?$CJ?2Microsof@ 0045a4b8     bullet.obj
 0002:00001538       ??_C@_1NA@PDNNFCLD@?$AAC?$AA?3?$AA?2?$AAP?$AAr?$AAo?$AAg?$AAr?$AAa?$AAm?$AA?5?$AAF?$AAi?$AAl?$AAe@ 0045a538     bullet.obj
 0002:00001638       ??_C@_1EK@NIFDJFDG@?$AAs?$AAt?$AAd?$AA?3?$AA?3?$AA_?$AAA?$AAd?$AAj?$AAu?$AAs?$AAt?$AA_?$AAm?$AAa@ 0045a638     bullet.obj
 0002:00001690       ??_C@_1CG@JNLFBNGN@?$AA?$CC?$AAi?$AAn?$AAv?$AAa?$AAl?$AAi?$AAd?$AA?5?$AAa?$AAr?$AAg?$AAu?$AAm?$AAe@ 0045a690     bullet.obj
 0002:000016c0       ??_C@_0BJ@LFDBABJJ@ITERATOR?5LIST?5CORRUPTED?$CB@ 0045a6c0     bullet.obj
 0002:000016e0       ??_C@_1EE@KLDMFDFL@?$AAs?$AAt?$AAd?$AA?3?$AA?3?$AA_?$AAI?$AAt?$AAe?$AAr?$AAa?$AAt?$AAo?$AAr?$AA_@ 0045a6e0     bullet.obj
 0002:00001734       ??_C@_1DG@PLBPCAEM@?$AA?$CC?$AAI?$AAT?$AAE?$AAR?$AAA?$AAT?$AAO?$AAR?$AA?5?$AAL?$AAI?$AAS?$AAT?$AA?5@ 0045a734     bullet.obj
 0002:00001774       ??_C@_0BA@JFNIOLAK@string?5too?5long@ 0045a774     bullet.obj
 0002:00001788       ??_C@_0BB@GCADKGJO@map?1set?5too?5long@ 0045a788     bullet.obj
 0002:0000179c       ??_C@_0DC@BNOGMHFL@Error?5creating?5surface?5in?5RawIm@ 0045a79c     bullet.obj
 0002:000017d8       ??_C@_0BD@IFIGDDIC@?7?7?$CL?$CL?$CL?5Load?5image?3?5@ 0045a7d8     bullet.obj
 0002:000017f0       ??_C@_0DJ@OJEPJEDH@ImageManager?3?3getImagePtrbyURL?$CI@ 0045a7f0     bullet.obj
 0002:00001834       ??_C@_0BJ@LOCNEGOL@Failed?5to?5load?5image?5?$CFs?6@ 0045a834     bullet.obj
 0002:00001858       ??_7bullet@@6B@            0045a858     bullet.obj
 0002:000018d0       ??_C@_0P@EEEJOFDH@Bullet?5delete?$CB@ 0045a8d0     bullet.obj
 0002:000018e8       ??_C@_0GH@CENCAHKH@C?3?2Program?5Files?5?$CIx86?$CJ?2Microsof@ 0045a8e8     bullet.obj
 0002:00001968       ??_C@_1MO@BFNDGJJP@?$AAC?$AA?3?$AA?2?$AAP?$AAr?$AAo?$AAg?$AAr?$AAa?$AAm?$AA?5?$AAF?$AAi?$AAl?$AAe@ 0045a968     bullet.obj
 0002:00001a60       ??_C@_0BO@PFKOHNJC@vector?5subscript?5out?5of?5range@ 0045aa60     bullet.obj
 0002:00001a88       ??_C@_1MK@PODALHBD@?$AAs?$AAt?$AAd?$AA?3?$AA?3?$AAv?$AAe?$AAc?$AAt?$AAo?$AAr?$AA?$DM?$AAc?$AAl?$AAa@ 0045aa88     bullet.obj
 0002:00001b80       ??_C@_1EA@LEKOKFNB@?$AA?$CC?$AAv?$AAe?$AAc?$AAt?$AAo?$AAr?$AA?5?$AAs?$AAu?$AAb?$AAs?$AAc?$AAr?$AAi@ 0045ab80     bullet.obj
 0002:00001bcc       ??_C@_0BP@OLDKBHLM@map?1set?5iterators?5incompatible@ 0045abcc     bullet.obj
 0002:00001bf8       ??_C@_0GG@LAILNPJG@C?3?2Program?5Files?5?$CIx86?$CJ?2Microsof@ 0045abf8     bullet.obj
 0002:00001c78       ??_C@_1MM@NJOIFEFP@?$AAC?$AA?3?$AA?2?$AAP?$AAr?$AAo?$AAg?$AAr?$AAa?$AAm?$AA?5?$AAF?$AAi?$AAl?$AAe@ 0045ac78     bullet.obj
 0002:00001d70       ??_C@_1EC@JLIDLCDH@?$AA?$CC?$AAm?$AAa?$AAp?$AA?1?$AAs?$AAe?$AAt?$AA?5?$AAi?$AAt?$AAe?$AAr?$AAa?$AAt@ 0045ad70     bullet.obj
 0002:00001dc0       ??_C@_1BPG@KHABJGCD@?$AAs?$AAt?$AAd?$AA?3?$AA?3?$AA_?$AAT?$AAr?$AAe?$AAe?$AA_?$AAc?$AAo?$AAn?$AAs@ 0045adc0     bullet.obj
 0002:0000201c       ??_C@_0DG@LCFNIIPB@cannot?5dereference?5value?9initia@ 0045b01c     bullet.obj
 0002:00002060       ??_C@_1BPE@BBFPAJEC@?$AAs?$AAt?$AAd?$AA?3?$AA?3?$AA_?$AAT?$AAr?$AAe?$AAe?$AA_?$AAc?$AAo?$AAn?$AAs@ 0045b060     bullet.obj
 0002:000022b8       ??_C@_1HA@ILGCNILF@?$AA?$CC?$AAc?$AAa?$AAn?$AAn?$AAo?$AAt?$AA?5?$AAd?$AAe?$AAr?$AAe?$AAf?$AAe?$AAr@ 0045b2b8     bullet.obj
 0002:00002340       ??_C@_0CI@OKFEHCEB@cannot?5dereference?5end?5map?1set?5@ 0045b340     bullet.obj
 0002:00002370       ??_C@_1FE@NKHAAGMB@?$AA?$CC?$AAc?$AAa?$AAn?$AAn?$AAo?$AAt?$AA?5?$AAd?$AAe?$AAr?$AAe?$AAf?$AAe?$AAr@ 0045b370     bullet.obj
 0002:000023d4       ??_C@_0DA@GGPHOHEL@map?1set?5erase?5iterator?5from?5inc@ 0045b3d4     bullet.obj
 0002:00002410       ??_C@_1DJG@KIJFPGMB@?$AAs?$AAt?$AAd?$AA?3?$AA?3?$AA_?$AAT?$AAr?$AAe?$AAe?$AA?$DM?$AAc?$AAl?$AAa?$AAs@ 0045b410     bullet.obj
 0002:00002860       ??_C@_1GE@FENJBJJO@?$AA?$CC?$AAm?$AAa?$AAp?$AA?1?$AAs?$AAe?$AAt?$AA?5?$AAe?$AAr?$AAa?$AAs?$AAe?$AA?5@ 0045b860     bullet.obj
 0002:000028d8       ??_C@_0CE@JAJNKOFK@cannot?5erase?5map?1set?5end?$CI?$CJ?5iter@ 0045b8d8     bullet.obj
 0002:00002908       ??_C@_1EM@MEAEPHLP@?$AA?$CC?$AAc?$AAa?$AAn?$AAn?$AAo?$AAt?$AA?5?$AAe?$AAr?$AAa?$AAs?$AAe?$AA?5?$AAm@ 0045b908     bullet.obj
 0002:00002968       ??_7?$_Ref_count@VRawImageData@@@std@@6B@ 0045b968     bullet.obj
 0002:0000297c       ??_C@_0BA@FOIKENOD@vector?5too?5long@ 0045b97c     bullet.obj
 0002:00002990       ??_C@_0GJ@LLNHGKJO@C?3?2Program?5Files?5?$CIx86?$CJ?2Microsof@ 0045b990     bullet.obj
 0002:00002a10       ??_C@_1NC@EHENBDHM@?$AAC?$AA?3?$AA?2?$AAP?$AAr?$AAo?$AAg?$AAr?$AAa?$AAm?$AA?5?$AAF?$AAi?$AAl?$AAe@ 0045ba10     bullet.obj
 0002:00002b0c       ??_C@_0BD@FEEMDEPI@invalid?5comparator@ 0045bb0c     bullet.obj
 0002:00002b24       ??_C@_1CI@JONCLBEJ@?$AAs?$AAt?$AAd?$AA?3?$AA?3?$AA_?$AAD?$AAe?$AAb?$AAu?$AAg?$AA_?$AAl?$AAt?$AA_@ 0045bb24     bullet.obj
 0002:00002b54       ??_C@_1CK@NDNHPKPI@?$AA?$CC?$AAi?$AAn?$AAv?$AAa?$AAl?$AAi?$AAd?$AA?5?$AAc?$AAo?$AAm?$AAp?$AAa?$AAr@ 0045bb54     bullet.obj
 0002:000033f0       ??_7State@@6B@             0045c3f0     ChooseState.obj
 0002:00003424       ??_7ChooseState@@6B@       0045c424     ChooseState.obj
 0002:00003934       ??_C@_0CN@GHCLOPHF@Error?5in?5setting?5pixel?9?5should?5@ 0045c934     DraggingDemo.obj
 0002:00003970       ??_C@_0JM@GIEKPEHN@WARNING?3?5Attempted?5write?5to?5sur@ 0045c970     DraggingDemo.obj
 0002:00003a30       ??_7DragableBaseClassObject@@6B@ 0045ca30     DraggingDemo.obj
 0002:00003a88       ??_7DragableObject@@6B@    0045ca88     DraggingDemo.obj
 0002:00003ae0       ??_7DragableImageObject@@6B@ 0045cae0     DraggingDemo.obj
 0002:00003b38       ??_7ImageObject@@6B@       0045cb38     DraggingDemo.obj
 0002:00003b78       ?MY_PI@DrawingSurface@@2NB 0045cb78     DrawingSurface.obj
 0002:00004040       ??_C@_0LN@HOLHFHJI@WARNING?3?5Attempted?5blit?5to?5lock@ 0045d040     DrawingSurface.obj
 0002:00004128       __real@3fe0000000000000    0045d128     DrawingSurface.obj
 0002:00004138       __real@3fe0c152382d7365    0045d138     DrawingSurface.obj
 0002:00004148       __real@3ff0000000000000    0045d148     DrawingSurface.obj
 0002:00004158       __real@3ff8000000000000    0045d158     DrawingSurface.obj
 0002:00004168       __real@3ff921fb54442d18    0045d168     DrawingSurface.obj
 0002:00004178       __real@4000000000000000    0045d178     DrawingSurface.obj
 0002:00004188       __real@4008000000000000    0045d188     DrawingSurface.obj
 0002:00004198       __real@400921fb54442d18    0045d198     DrawingSurface.obj
 0002:000041a8       __real@400f6a7a2955385e    0045d1a8     DrawingSurface.obj
 0002:000041b8       __real@4010000000000000    0045d1b8     DrawingSurface.obj
 0002:000041c8       __real@401921fb54442d18    0045d1c8     DrawingSurface.obj
 0002:0000469c       ??_7FlashingDemo@@6BDisplayableObjectContainer@@@ 0045d69c     FlashingDemo.obj
 0002:00004748       ??_7FlashingDemo@@6BFilterPoints@@@ 0045d748     FlashingDemo.obj
 0002:00004c78       ??_7HelpState@@6B@         0045dc78     HelpState.obj
 0002:000051b8       ??_7MappableImageObject@@6B@ 0045e1b8     ImageMappingDemo.obj
 0002:00005210       __real@3f1a36e2eb1c432d    0045e210     ImageMappingDemo.obj
 0002:00005220       __real@4059000000000000    0045e220     ImageMappingDemo.obj
 0002:00005230       __real@c059000000000000    0045e230     ImageMappingDemo.obj
 0002:0000592c       ??_7bad_cast@std@@6B@      0045e92c     LoadState.obj
 0002:00005938       ??_C@_08EPJLHIJG@bad?5cast@ 0045e938     LoadState.obj
 0002:00005948       ??_7LoadState@@6B@         0045e948     LoadState.obj
 0002:0000597c       ??_7?$basic_filebuf@DU?$char_traits@D@std@@@std@@6B@ 0045e97c     LoadState.obj
 0002:000059c8       ??_7?$basic_ifstream@DU?$char_traits@D@std@@@std@@6B@ 0045e9c8     LoadState.obj
 0002:000059d0       ??_8?$basic_ifstream@DU?$char_traits@D@std@@@std@@7B@ 0045e9d0     LoadState.obj
 0002:000059e0       ??_C@_0GI@NCGKGAKB@C?3?2Program?5Files?5?$CIx86?$CJ?2Microsof@ 0045e9e0     LoadState.obj
 0002:00005a60       ??_C@_1NA@BNFBKLGC@?$AAC?$AA?3?$AA?2?$AAP?$AAr?$AAo?$AAg?$AAr?$AAa?$AAm?$AA?5?$AAF?$AAi?$AAl?$AAe@ 0045ea60     LoadState.obj
 0002:00005b5c       ??_C@_0BP@PFIPNLNI@front?$CI?$CJ?5called?5on?5empty?5string@ 0045eb5c     LoadState.obj
 0002:00005b88       ??_C@_1LC@BJDDPGPA@?$AAs?$AAt?$AAd?$AA?3?$AA?3?$AAb?$AAa?$AAs?$AAi?$AAc?$AA_?$AAs?$AAt?$AAr?$AAi@ 0045eb88     LoadState.obj
 0002:00005c60       ??_C@_1EC@DINNLDHA@?$AA?$CC?$AAf?$AAr?$AAo?$AAn?$AAt?$AA?$CI?$AA?$CJ?$AA?5?$AAc?$AAa?$AAl?$AAl?$AAe?$AAd@ 0045ec60     LoadState.obj
 0002:00005cb0       ??_C@_0BI@CFPLBAOH@invalid?5string?5position@ 0045ecb0     LoadState.obj
 0002:000066f0       ??_7FilterPoints@@6B@      0045f6f0     BaseEngine.obj
 0002:0000670c       ??_7DisplayableObjectContainer@@6B@ 0045f70c     BaseEngine.obj
 0002:0000671c       ??_7BaseEngine@@6BDisplayableObjectContainer@@@ 0045f71c     BaseEngine.obj
 0002:000067c8       ??_7BaseEngine@@6BFilterPoints@@@ 0045f7c8     BaseEngine.obj
 0002:000067e0       ??_C@_0DE@CHADHGFF@can?8t?5dereference?5value?9initial@ 0045f7e0     BaseEngine.obj
 0002:00006820       ??_C@_1PA@DMJFJEGO@?$AAs?$AAt?$AAd?$AA?3?$AA?3?$AA_?$AAV?$AAe?$AAc?$AAt?$AAo?$AAr?$AA_?$AAc?$AAo@ 0045f820     BaseEngine.obj
 0002:00006940       ??_C@_1GM@FNBFNBEL@?$AA?$CC?$AAc?$AAa?$AAn?$AA?8?$AAt?$AA?5?$AAd?$AAe?$AAr?$AAe?$AAf?$AAe?$AAr?$AAe@ 0045f940     BaseEngine.obj
 0002:000069c4       ??_C@_0CP@MDHADBHN@can?8t?5dereference?5out?5of?5range?5@ 0045f9c4     BaseEngine.obj
 0002:00006a00       ??_C@_1GC@JDCKOLAC@?$AA?$CC?$AAc?$AAa?$AAn?$AA?8?$AAt?$AA?5?$AAd?$AAe?$AAr?$AAe?$AAf?$AAe?$AAr?$AAe@ 0045fa00     BaseEngine.obj
 0002:00006a78       ??_C@_0DC@KEKNBAEB@can?8t?5increment?5value?9initializ@ 0045fa78     BaseEngine.obj
 0002:00006ab8       ??_C@_1PC@LAHDNGHL@?$AAs?$AAt?$AAd?$AA?3?$AA?3?$AA_?$AAV?$AAe?$AAc?$AAt?$AAo?$AAr?$AA_?$AAc?$AAo@ 0045fab8     BaseEngine.obj
 0002:00006be0       ??_C@_1GI@EDCILPL@?$AA?$CC?$AAc?$AAa?$AAn?$AA?8?$AAt?$AA?5?$AAi?$AAn?$AAc?$AAr?$AAe?$AAm?$AAe?$AAn@ 0045fbe0     BaseEngine.obj
 0002:00006c5c       ??_C@_0CJ@OAAAAGPM@can?8t?5increment?5vector?5iterator@ 0045fc5c     BaseEngine.obj
 0002:00006c90       ??_C@_1FG@LDPPKMGP@?$AA?$CC?$AAc?$AAa?$AAn?$AA?8?$AAt?$AA?5?$AAi?$AAn?$AAc?$AAr?$AAe?$AAm?$AAe?$AAn@ 0045fc90     BaseEngine.obj
 0002:00006cf8       ??_C@_0BO@CAOBBIOC@vector?5iterators?5incompatible@ 0045fcf8     BaseEngine.obj
 0002:00006d20       ??_C@_1OK@EOCJDFAL@?$AAs?$AAt?$AAd?$AA?3?$AA?3?$AA_?$AAV?$AAe?$AAc?$AAt?$AAo?$AAr?$AA_?$AAc?$AAo@ 0045fd20     BaseEngine.obj
 0002:00006e38       ??_C@_1EA@DJDGNIII@?$AA?$CC?$AAv?$AAe?$AAc?$AAt?$AAo?$AAr?$AA?5?$AAi?$AAt?$AAe?$AAr?$AAa?$AAt?$AAo@ 0045fe38     BaseEngine.obj
 0002:00006e84       ??_C@_1CG@LJCPDKEJ@?$AAs?$AAt?$AAd?$AA?3?$AA?3?$AA_?$AAV?$AAe?$AAr?$AAi?$AAf?$AAy?$AA_?$AAr?$AAa@ 0045fe84     BaseEngine.obj
 0002:00006eb4       ??_C@_0DI@PBEELKIF@vector?5iterators?5in?5range?5are?5f@ 0045feb4     BaseEngine.obj
 0002:00006ef8       ??_C@_1HE@KBMFDAFB@?$AA?$CC?$AAv?$AAe?$AAc?$AAt?$AAo?$AAr?$AA?5?$AAi?$AAt?$AAe?$AAr?$AAa?$AAt?$AAo@ 0045fef8     BaseEngine.obj
 0002:00006f84       ??_C@_0CB@LIAHLBAO@vector?5iterator?5range?5transpose@ 0045ff84     BaseEngine.obj
 0002:00006fb0       ??_C@_1EG@ODKBEHFN@?$AA?$CC?$AAv?$AAe?$AAc?$AAt?$AAo?$AAr?$AA?5?$AAi?$AAt?$AAe?$AAr?$AAa?$AAt?$AAo@ 0045ffb0     BaseEngine.obj
 0002:000074cc       ??_7DisplayableObject@@6B@ 004604cc     DisplayableObject.obj
 0002:000077ec       ??_C@_0BI@GMOFELCF@Free?5font?3?5?$CFd?5point?5?$CFs?6@ 004607ec     FontManager.obj
 0002:00007cf8       ??_7MovingPokemon@@6B@     00460cf8     MovingPokemon.obj
 0002:00007d70       ??_C@_0BN@GOIPFJJH@front?$CI?$CJ?5called?5on?5empty?5list@ 00460d70     MovingPokemon.obj
 0002:00007d98       ??_C@_0GF@DJHNGIK@C?3?2Program?5Files?5?$CIx86?$CJ?2Microsof@ 00460d98     MovingPokemon.obj
 0002:00007e18       ??_C@_1MK@JCHMELDC@?$AAC?$AA?3?$AA?2?$AAP?$AAr?$AAo?$AAg?$AAr?$AAa?$AAm?$AA?5?$AAF?$AAi?$AAl?$AAe@ 00460e18     MovingPokemon.obj
 0002:00007f10       ??_C@_1OE@NDHHDIBL@?$AAs?$AAt?$AAd?$AA?3?$AA?3?$AAl?$AAi?$AAs?$AAt?$AA?$DM?$AAc?$AAl?$AAa?$AAs?$AAs@ 00460f10     MovingPokemon.obj
 0002:00008024       ??_C@_1DO@HIOMABHK@?$AA?$CC?$AAf?$AAr?$AAo?$AAn?$AAt?$AA?$CI?$AA?$CJ?$AA?5?$AAc?$AAa?$AAl?$AAl?$AAe?$AAd@ 00461024     MovingPokemon.obj
 0002:00008070       ??_C@_0DB@ENBCPNKO@cannot?5increment?5value?9initiali@ 00461070     MovingPokemon.obj
 0002:000080b0       ??_C@_1BAK@MFIPGCO@?$AAs?$AAt?$AAd?$AA?3?$AA?3?$AA_?$AAL?$AAi?$AAs?$AAt?$AA_?$AAc?$AAo?$AAn?$AAs@ 004610b0     MovingPokemon.obj
 0002:000081f0       ??_C@_1GG@JLMAGPNK@?$AA?$CC?$AAc?$AAa?$AAn?$AAn?$AAo?$AAt?$AA?5?$AAi?$AAn?$AAc?$AAr?$AAe?$AAm?$AAe@ 004611f0     MovingPokemon.obj
 0002:0000826c       ??_C@_0CD@PMFMCEG@cannot?5increment?5end?5list?5itera@ 0046126c     MovingPokemon.obj
 0002:00008298       ??_C@_1EK@OKKCFDJN@?$AA?$CC?$AAc?$AAa?$AAn?$AAn?$AAo?$AAt?$AA?5?$AAi?$AAn?$AAc?$AAr?$AAe?$AAm?$AAe@ 00461298     MovingPokemon.obj
 0002:000082f0       ??_C@_0DD@MBIHGLJE@cannot?5dereference?5value?9initia@ 004612f0     MovingPokemon.obj
 0002:00008330       ??_C@_1BAI@CNLLHNAO@?$AAs?$AAt?$AAd?$AA?3?$AA?3?$AA_?$AAL?$AAi?$AAs?$AAt?$AA_?$AAc?$AAo?$AAn?$AAs@ 00461330     MovingPokemon.obj
 0002:00008470       ??_C@_1GK@NKIMOCIG@?$AA?$CC?$AAc?$AAa?$AAn?$AAn?$AAo?$AAt?$AA?5?$AAd?$AAe?$AAr?$AAe?$AAf?$AAe?$AAr@ 00461470     MovingPokemon.obj
 0002:000084f0       ??_C@_0CF@JCBFHMPL@cannot?5dereference?5end?5list?5ite@ 004614f0     MovingPokemon.obj
 0002:00008520       ??_C@_1EO@CNEFBDCF@?$AA?$CC?$AAc?$AAa?$AAn?$AAn?$AAo?$AAt?$AA?5?$AAd?$AAe?$AAr?$AAe?$AAf?$AAe?$AAr@ 00461520     MovingPokemon.obj
 0002:00008584       ??_7?$_Ref_count_obj2@UPoint@@@std@@6B@ 00461584     MovingPokemon.obj
 0002:0000859c       ??_7?$_Ref_count@UPoint@@@std@@6B@ 0046159c     MovingPokemon.obj
 0002:000085b0       ??_C@_0O@NKNMEGII@list?5too?5long@ 004615b0     MovingPokemon.obj
 0002:000085c0       ??_C@_0BJ@HAJGEHKO@transposed?5pointer?5range@ 004615c0     MovingPokemon.obj
 0002:000085e0       ??_C@_1DG@FJIKMGFD@?$AA?$CC?$AAt?$AAr?$AAa?$AAn?$AAs?$AAp?$AAo?$AAs?$AAe?$AAd?$AA?5?$AAp?$AAo?$AAi@ 004615e0     MovingPokemon.obj
 0002:00008620       __real@0000000000000000    00461620     MovingPokemon.obj
 0002:00008630       __real@4049000000000000    00461630     MovingPokemon.obj
 0002:0000863c       __real@47c35000            0046163c     MovingPokemon.obj
 0002:00008d20       ??_7MovingPokemon2@@6B@    00461d20     MovingPokemon2.obj
 0002:00008d98       ??_C@_0M@BEDDAJIK@fly?5delete?$CB@ 00461d98     MovingPokemon2.obj
 0002:0000929c       ??_7MyObjectB@@6B@         0046229c     MyDemoA.obj
 0002:0000a96c       ??_7TileManager@@6B@       0046396c     RunningState.obj
 0002:0000a97c       ??_7Scyzc3TileManager@@6B@ 0046397c     RunningState.obj
 0002:0000a988       ??_C@_0BB@IPNDCDOA@images?1grass?4png@ 00463988     RunningState.obj
 0002:0000a99c       ??_C@_0BB@HKLLOGBA@images?1floor?4png@ 0046399c     RunningState.obj
 0002:0000a9b0       ??_C@_0BB@MGDJJJKC@images?1water?4png@ 004639b0     RunningState.obj
 0002:0000a9c4       ??_C@_0BB@HFDDIOCN@images?1wall1?4png@ 004639c4     RunningState.obj
 0002:0000a9d8       ??_C@_0BA@PNMNBGNO@images?1tree?4png@ 004639d8     RunningState.obj
 0002:0000a9ec       ??_C@_0BA@MBABNDI@images?1door?4png@ 004639ec     RunningState.obj
 0002:0000aa00       ??_C@_0BB@EOJCPNIK@images?1door2?4png@ 00463a00     RunningState.obj
 0002:0000aa14       ??_C@_0P@MMEEDHDM@images?1key?4png@ 00463a14     RunningState.obj
 0002:0000aa28       ??_C@_0BB@NALGMNJ@images?1heart?4png@ 00463a28     RunningState.obj
 0002:0000aa3c       ??_C@_0BB@EGCPGMJI@images?1sword?4png@ 00463a3c     RunningState.obj
 0002:0000aa50       ??_C@_0BA@ILNPPDAB@images?1sand?4jpg@ 00463a50     RunningState.obj
 0002:0000aa64       ??_C@_0M@LGNBNOLG@delete?5tile@ 00463a64     RunningState.obj
 0002:0000aa78       ??_7RunningState@@6B@      00463a78     RunningState.obj
 0002:0000aaac       ??_7?$basic_ofstream@DU?$char_traits@D@std@@@std@@6B@ 00463aac     RunningState.obj
 0002:0000aab4       ??_8?$basic_ofstream@DU?$char_traits@D@std@@@std@@7B@ 00463ab4     RunningState.obj
 0002:0000aac0       ??_C@_1BME@NCIPHHDN@?$AAs?$AAt?$AAd?$AA?3?$AA?3?$AAv?$AAe?$AAc?$AAt?$AAo?$AAr?$AA?$DM?$AAc?$AAl?$AAa@ 00463ac0     RunningState.obj
 0002:0000ace0       __real@408f400000000000    00463ce0     RunningState.obj
 0002:0000b4c8       ??_7SaveState@@6B@         004644c8     SaveState.obj
 0002:0000bd74       ??_7Scyzc3FilterPoints@@6B@ 00464d74     ScoreState.obj
 0002:0000bd90       ??_7Scyzc3FilterPointsTranslation@@6B@ 00464d90     ScoreState.obj
 0002:0000bdac       ??_7ScoreState@@6B@        00464dac     ScoreState.obj
 0002:0000bddc       ?_Min_buckets@?$_Hash@V?$_Umap_traits@V?$basic_string@DU?$char_traits@D@std@@V?$allocator@D@2@@std@@HV?$_Uhash_compare@V?$basic_string@DU?$char_traits@D@std@@V?$allocator@D@2@@std@@U?$hash@V?$basic_string@DU?$char_traits@D@std@@V?$allocator@D@2@@std@@@2@U?$equal_to@V?$basic_string@DU?$char_traits@D@std@@V?$allocator@D@2@@std@@@2@@2@V?$allocator@U?$pair@$$CBV?$basic_string@DU?$char_traits@D@std@@V?$allocator@D@2@@std@@H@std@@@2@$0A@@std@@@std@@2IB 00464ddc     ScoreState.obj
 0002:0000bde0       ??_C@_1BJM@CJDGHHAM@?$AAs?$AAt?$AAd?$AA?3?$AA?3?$AA_?$AAV?$AAe?$AAc?$AAt?$AAo?$AAr?$AA_?$AAc?$AAo@ 00464de0     ScoreState.obj
 0002:0000bfd0       ??_C@_1BJM@JIKIDDLM@?$AAs?$AAt?$AAd?$AA?3?$AA?3?$AA_?$AAV?$AAe?$AAc?$AAt?$AAo?$AAr?$AA_?$AAc?$AAo@ 00464fd0     ScoreState.obj
 0002:0000c1c0       ??_C@_1BJE@MLJJBKLF@?$AAs?$AAt?$AAd?$AA?3?$AA?3?$AA_?$AAV?$AAe?$AAc?$AAt?$AAo?$AAr?$AA_?$AAc?$AAo@ 004651c0     ScoreState.obj
 0002:0000c3a4       ??_C@_0BL@GOIGLPKN@unordered_map?1set?5too?5long@ 004653a4     ScoreState.obj
 0002:0000c3c4       ??_C@_0BM@BALDKKHE@list?5iterators?5incompatible@ 004653c4     ScoreState.obj
 0002:0000c3e8       ??_C@_1BKM@FKIEAOF@?$AAs?$AAt?$AAd?$AA?3?$AA?3?$AA_?$AAL?$AAi?$AAs?$AAt?$AA_?$AAc?$AAo?$AAn?$AAs@ 004653e8     ScoreState.obj
 0002:0000c5ec       ??_C@_1DM@KDLJAKOP@?$AA?$CC?$AAl?$AAi?$AAs?$AAt?$AA?5?$AAi?$AAt?$AAe?$AAr?$AAa?$AAt?$AAo?$AAr?$AAs@ 004655ec     ScoreState.obj
 0002:0000c638       ??_C@_1BKM@KFFFKJCA@?$AAs?$AAt?$AAd?$AA?3?$AA?3?$AA_?$AAL?$AAi?$AAs?$AAt?$AA_?$AAc?$AAo?$AAn?$AAs@ 00465638     ScoreState.obj
 0002:0000c83c       ??_C@_0BK@OGNNAFAB@invalid?5hash?5bucket?5count@ 0046583c     ScoreState.obj
 0002:0000c860       ??_C@_1BKK@NHAPLFDF@?$AAs?$AAt?$AAd?$AA?3?$AA?3?$AA_?$AAL?$AAi?$AAs?$AAt?$AA_?$AAc?$AAo?$AAn?$AAs@ 00465860     ScoreState.obj
 0002:0000ca60       __real@3f800000            00465a60     ScoreState.obj
 0002:0000ca70       __xmm@41f00000000000000000000000000000 00465a70     ScoreState.obj
 0002:0000cf64       ??_7Scyzc3Engine@@6BDisplayableObjectContainer@@@ 00465f64     Scyzc3Engine.obj
 0002:0000d010       ??_7Scyzc3Engine@@6BFilterPoints@@@ 00466010     Scyzc3Engine.obj
 0002:0000d538       ??_7Scyzc3Object@@6B@      00466538     Scyzc3Object.obj
 0002:0000d5b4       ??_7player@@6B@            004665b4     Scyzc3Object.obj
 0002:0000d630       ??_7rival@@6B@             00466630     Scyzc3Object.obj
 0002:0000d6a8       ??_C@_0BA@JKAHACPH@player2?5delete?$CB@ 004666a8     Scyzc3Object.obj
 0002:0000d6c0       ??_C@_1KC@FFCHHFHE@?$AAs?$AAt?$AAd?$AA?3?$AA?3?$AAv?$AAe?$AAc?$AAt?$AAo?$AAr?$AA?$DM?$AAs?$AAt?$AAr@ 004666c0     Scyzc3Object.obj
 0002:0000dc4c       ??_7CroppedImagePixelMapping@@6B@ 00466c4c     SimpleImage.obj
 0002:0000e690       ??_7BouncingObject@@6B@    00467690     SimpleDemo.obj
 0002:0000e6d0       __real@3f747ae147ae147b    004676d0     SimpleDemo.obj
 0002:0000e6e0       __real@4004000000000000    004676e0     SimpleDemo.obj
 0002:0000e6f0       __real@400c000000000000    004676f0     SimpleDemo.obj
 0002:0000e700       __real@4069000000000000    00467700     SimpleDemo.obj
 0002:0000e710       __real@4072c00000000000    00467710     SimpleDemo.obj
 0002:0000e720       __xmm@80000000000000008000000000000000 00467720     SimpleDemo.obj
 0002:0000ebfc       ??_7StarfieldDemo@@6BDisplayableObjectContainer@@@ 00467bfc     StarfieldDemo.obj
 0002:0000eca8       ??_7StarfieldDemo@@6BFilterPoints@@@ 00467ca8     StarfieldDemo.obj
 0002:0000f2f4       ??_7ImagePixelMapping@@6B@ 004682f4     StartUpState.obj
 0002:0000f304       ??_7Scyzc3ImagePixelMappingRotate@@6B@ 00468304     StartUpState.obj
 0002:0000f314       ??_7Scyzc3ImagePixelMappingShiftXY@@6B@ 00468314     StartUpState.obj
 0002:0000f324       ??_7StartUpState@@6BState@@@ 00468324     StartUpState.obj
 0002:0000f358       ??_7StartUpState@@6BImagePixelMapping@@@ 00468358     StartUpState.obj
 0002:0000fcec       ??_7BouncingBall@@6B@      00468cec     BouncingBall.obj
 0002:0000fd30       ??_7BouncingBall1@@6B@     00468d30     BouncingBall.obj
 0002:0000fd74       ??_7BouncingBall2@@6B@     00468d74     BouncingBall.obj
 0002:0000fdb8       __real@3f847ae147ae147b    00468db8     BouncingBall.obj
 0002:000102d8       ??_7ImagePixelMappingRotate@@6B@ 004692d8     BouncingBallMain.obj
 0002:000102e8       ??_7ImagePixelMappingRotateAndColour@@6B@ 004692e8     BouncingBallMain.obj
 0002:000102f8       __real@3fe999999999999a    004692f8     BouncingBallMain.obj
 0002:00010308       __real@3ff199999999999a    00469308     BouncingBallMain.obj
 0002:00010318       __real@3ff3333333333333    00469318     BouncingBallMain.obj
 0002:00010328       __real@406f400000000000    00469328     BouncingBallMain.obj
 0002:00010338       __real@406fe00000000000    00469338     BouncingBallMain.obj
 0002:00010868       ??_7WinState@@6B@          00469868     WinState.obj
 0002:00010898       ??_C@_0BN@KGJKMKBE@string?5iterator?5incompatible@ 00469898     WinState.obj
 0002:000108c0       ??_C@_1LC@CMMKBHIN@?$AAs?$AAt?$AAd?$AA?3?$AA?3?$AAb?$AAa?$AAs?$AAi?$AAc?$AA_?$AAs?$AAt?$AAr?$AAi@ 004698c0     WinState.obj
 0002:00010998       ??_C@_1DO@LKGFHAO@?$AA?$CC?$AAs?$AAt?$AAr?$AAi?$AAn?$AAg?$AA?5?$AAi?$AAt?$AAe?$AAr?$AAa?$AAt?$AAo@ 00469998     WinState.obj
 0002:000109e4       ??_C@_0CO@HMKHBNHI@cannot?5seek?5value?9initialized?5s@ 004699e4     WinState.obj
 0002:00010a20       ??_C@_1MO@NHFHAAFD@?$AAs?$AAt?$AAd?$AA?3?$AA?3?$AA_?$AAS?$AAt?$AAr?$AAi?$AAn?$AAg?$AA_?$AAc?$AAo@ 00469a20     WinState.obj
 0002:00010b18       ??_C@_1GA@DPDCOHLH@?$AA?$CC?$AAc?$AAa?$AAn?$AAn?$AAo?$AAt?$AA?5?$AAs?$AAe?$AAe?$AAk?$AA?5?$AAv?$AAa@ 00469b18     WinState.obj
 0002:00010b90       ??_C@_0HL@FFBIGJOL@cannot?5seek?5string?5iterator?5bec@ 00469b90     WinState.obj
 0002:00010c28       ??_C@_1BAA@CKOBBKNE@?$AA?$CC?$AAc?$AAa?$AAn?$AAn?$AAo?$AAt?$AA?5?$AAs?$AAe?$AAe?$AAk?$AA?5?$AAs?$AAt@ 00469c28     WinState.obj
 0002:00010d5c       ??_C@_0CJ@CGBGDMPO@cannot?5seek?5string?5iterator?5bef@ 00469d5c     WinState.obj
 0002:00010d90       ??_C@_1FG@EJPDEFGL@?$AA?$CC?$AAc?$AAa?$AAn?$AAn?$AAo?$AAt?$AA?5?$AAs?$AAe?$AAe?$AAk?$AA?5?$AAs?$AAt@ 00469d90     WinState.obj
 0002:00010df8       ??_C@_0CG@BGNOMIGA@cannot?5seek?5string?5iterator?5aft@ 00469df8     WinState.obj
 0002:00010e28       ??_C@_1FA@POFOLIGA@?$AA?$CC?$AAc?$AAa?$AAn?$AAn?$AAo?$AAt?$AA?5?$AAs?$AAe?$AAe?$AAk?$AA?5?$AAs?$AAt@ 00469e28     WinState.obj
 0002:000113f0       ??_7SimpleFlashingDragableImageObject@@6B@ 0046a3f0     ZoomingDemo.obj
 0002:00011a90       ??_7MazeDemoTileManager@@6B@ 0046aa90     MazeDemoMain.obj
 0002:00011aa0       ??_7MazeDemoMain@@6BDisplayableObjectContainer@@@ 0046aaa0     MazeDemoMain.obj
 0002:00011b4c       ??_7MazeDemoMain@@6BFilterPoints@@@ 0046ab4c     MazeDemoMain.obj
 0002:0001202c       ??_7MazeDemoObject@@6B@    0046b02c     MazeDemoObject.obj
 0002:00012530       ??_C@_0DP@JCAEJPK@d?3?2agent?2_work?257?2s?2src?2vctools@ 0046b530     msvcprtd:locale0_implib.obj
 0002:00012580       ??_7type_info@@6B@         0046b580     MSVCRTD:std_type_info_static.obj
 0002:000125c8       ??_C@_0P@GHFPNOJB@bad?5allocation@ 0046b5c8     MSVCRTD:throw_bad_alloc.obj
 0002:000125dc       ??_C@_0BJ@HFNMHALN@Out?5of?5memory?5?9?5aborting@ 0046b5dc     SDL2main:SDL_windows_main.obj
 0002:000125fc       ??_C@_0M@HFFOIJBL@Fatal?5Error@ 0046b5fc     SDL2main:SDL_windows_main.obj
 0002:00012648       __load_config_used         0046b648     MSVCRTD:loadcfg.obj
 0002:00012940       ___CastGuardVftablesStart  0046b940     MSVCRTD:guard_support.obj
 0002:00012a44       ___CastGuardVftablesEnd    0046ba44     MSVCRTD:guard_support.obj
 0002:00012b48       ??_R4exception@std@@6B@    0046bb48     bullet.obj
 0002:00012b60       ??_R3exception@std@@8      0046bb60     bullet.obj
 0002:00012b74       ??_R2exception@std@@8      0046bb74     bullet.obj
 0002:00012b7c       ??_R1A@?0A@EA@exception@std@@8 0046bb7c     bullet.obj
 0002:00012ba0       ??_R4bad_alloc@std@@6B@    0046bba0     bullet.obj
 0002:00012bb8       ??_R3bad_alloc@std@@8      0046bbb8     bullet.obj
 0002:00012bcc       ??_R2bad_alloc@std@@8      0046bbcc     bullet.obj
 0002:00012bd8       ??_R1A@?0A@EA@bad_alloc@std@@8 0046bbd8     bullet.obj
 0002:00012bfc       ??_R4bad_array_new_length@std@@6B@ 0046bbfc     bullet.obj
 0002:00012c14       ??_R3bad_array_new_length@std@@8 0046bc14     bullet.obj
 0002:00012c28       ??_R2bad_array_new_length@std@@8 0046bc28     bullet.obj
 0002:00012c38       ??_R1A@?0A@EA@bad_array_new_length@std@@8 0046bc38     bullet.obj
 0002:00012c5c       ??_R3_Ref_count_base@std@@8 0046bc5c     bullet.obj
 0002:00012c70       ??_R2_Ref_count_base@std@@8 0046bc70     bullet.obj
 0002:00012c78       ??_R1A@?0A@EA@_Ref_count_base@std@@8 0046bc78     bullet.obj
 0002:00012c9c       ??_R1A@?0A@EA@Scyzc3Object@@8 0046bc9c     bullet.obj
 0002:00012cc0       ??_R3Scyzc3Object@@8       0046bcc0     bullet.obj
 0002:00012cd4       ??_R2Scyzc3Object@@8       0046bcd4     bullet.obj
 0002:00012ce0       ??_R1A@?0A@EA@DisplayableObject@@8 0046bce0     bullet.obj
 0002:00012d04       ??_R3DisplayableObject@@8  0046bd04     bullet.obj
 0002:00012d18       ??_R2DisplayableObject@@8  0046bd18     bullet.obj
 0002:00012d20       ??_R4bullet@@6B@           0046bd20     bullet.obj
 0002:00012d38       ??_R3bullet@@8             0046bd38     bullet.obj
 0002:00012d4c       ??_R2bullet@@8             0046bd4c     bullet.obj
 0002:00012d5c       ??_R1A@?0A@EA@bullet@@8    0046bd5c     bullet.obj
 0002:00012d80       ??_R4?$_Ref_count@VRawImageData@@@std@@6B@ 0046bd80     bullet.obj
 0002:00012d98       ??_R3?$_Ref_count@VRawImageData@@@std@@8 0046bd98     bullet.obj
 0002:00012dac       ??_R2?$_Ref_count@VRawImageData@@@std@@8 0046bdac     bullet.obj
 0002:00012db8       ??_R1A@?0A@EA@?$_Ref_count@VRawImageData@@@std@@8 0046bdb8     bullet.obj
 0002:00012ddc       ??_R4State@@6B@            0046bddc     ChooseState.obj
 0002:00012df4       ??_R3State@@8              0046bdf4     ChooseState.obj
 0002:00012e08       ??_R2State@@8              0046be08     ChooseState.obj
 0002:00012e10       ??_R1A@?0A@EA@State@@8     0046be10     ChooseState.obj
 0002:00012e34       ??_R4ChooseState@@6B@      0046be34     ChooseState.obj
 0002:00012e4c       ??_R3ChooseState@@8        0046be4c     ChooseState.obj
 0002:00012e60       ??_R2ChooseState@@8        0046be60     ChooseState.obj
 0002:00012e6c       ??_R1A@?0A@EA@ChooseState@@8 0046be6c     ChooseState.obj
 0002:00012e90       ??_R4DragableBaseClassObject@@6B@ 0046be90     DraggingDemo.obj
 0002:00012ea8       ??_R3DragableBaseClassObject@@8 0046bea8     DraggingDemo.obj
 0002:00012ebc       ??_R2DragableBaseClassObject@@8 0046bebc     DraggingDemo.obj
 0002:00012ec8       ??_R1A@?0A@EA@DragableBaseClassObject@@8 0046bec8     DraggingDemo.obj
 0002:00012eec       ??_R4DragableObject@@6B@   0046beec     DraggingDemo.obj
 0002:00012f04       ??_R3DragableObject@@8     0046bf04     DraggingDemo.obj
 0002:00012f18       ??_R2DragableObject@@8     0046bf18     DraggingDemo.obj
 0002:00012f28       ??_R1A@?0A@EA@DragableObject@@8 0046bf28     DraggingDemo.obj
 0002:00012f4c       ??_R4DragableImageObject@@6B@ 0046bf4c     DraggingDemo.obj
 0002:00012f64       ??_R3DragableImageObject@@8 0046bf64     DraggingDemo.obj
 0002:00012f78       ??_R2DragableImageObject@@8 0046bf78     DraggingDemo.obj
 0002:00012f88       ??_R1A@?0A@EA@DragableImageObject@@8 0046bf88     DraggingDemo.obj
 0002:00012fac       ??_R4ImageObject@@6B@      0046bfac     DraggingDemo.obj
 0002:00012fc4       ??_R3ImageObject@@8        0046bfc4     DraggingDemo.obj
 0002:00012fd8       ??_R2ImageObject@@8        0046bfd8     DraggingDemo.obj
 0002:00012fe4       ??_R1A@?0A@EA@ImageObject@@8 0046bfe4     DraggingDemo.obj
 0002:00013008       ??_R3DisplayableObjectContainer@@8 0046c008     FlashingDemo.obj
 0002:0001301c       ??_R2DisplayableObjectContainer@@8 0046c01c     FlashingDemo.obj
 0002:00013024       ??_R1A@?0A@EA@DisplayableObjectContainer@@8 0046c024     FlashingDemo.obj
 0002:00013048       ??_R4FlashingDemo@@6BDisplayableObjectContainer@@@ 0046c048     FlashingDemo.obj
 0002:00013060       ??_R3FlashingDemo@@8       0046c060     FlashingDemo.obj
 0002:00013074       ??_R2FlashingDemo@@8       0046c074     FlashingDemo.obj
 0002:00013088       ??_R1A@?0A@EA@FlashingDemo@@8 0046c088     FlashingDemo.obj
 0002:000130ac       ??_R1A@?0A@EA@BaseEngine@@8 0046c0ac     FlashingDemo.obj
 0002:000130d0       ??_R3BaseEngine@@8         0046c0d0     FlashingDemo.obj
 0002:000130e4       ??_R2BaseEngine@@8         0046c0e4     FlashingDemo.obj
 0002:000130f4       ??_R1BM@?0A@EA@FilterPoints@@8 0046c0f4     FlashingDemo.obj
 0002:00013118       ??_R3FilterPoints@@8       0046c118     FlashingDemo.obj
 0002:0001312c       ??_R2FilterPoints@@8       0046c12c     FlashingDemo.obj
 0002:00013134       ??_R1A@?0A@EA@FilterPoints@@8 0046c134     FlashingDemo.obj
 0002:00013158       ??_R4FlashingDemo@@6BFilterPoints@@@ 0046c158     FlashingDemo.obj
 0002:00013170       ??_R4HelpState@@6B@        0046c170     HelpState.obj
 0002:00013188       ??_R3HelpState@@8          0046c188     HelpState.obj
 0002:0001319c       ??_R2HelpState@@8          0046c19c     HelpState.obj
 0002:000131a8       ??_R1A@?0A@EA@HelpState@@8 0046c1a8     HelpState.obj
 0002:000131cc       ??_R4MappableImageObject@@6B@ 0046c1cc     ImageMappingDemo.obj
 0002:000131e4       ??_R3MappableImageObject@@8 0046c1e4     ImageMappingDemo.obj
 0002:000131f8       ??_R2MappableImageObject@@8 0046c1f8     ImageMappingDemo.obj
 0002:0001320c       ??_R1A@?0A@EA@MappableImageObject@@8 0046c20c     ImageMappingDemo.obj
 0002:00013230       ??_R4?$basic_filebuf@DU?$char_traits@D@std@@@std@@6B@ 0046c230     LoadState.obj
 0002:00013248       ??_R3?$basic_filebuf@DU?$char_traits@D@std@@@std@@8 0046c248     LoadState.obj
 0002:0001325c       ??_R2?$basic_filebuf@DU?$char_traits@D@std@@@std@@8 0046c25c     LoadState.obj
 0002:00013268       ??_R1A@?0A@EA@?$basic_filebuf@DU?$char_traits@D@std@@@std@@8 0046c268     LoadState.obj
 0002:0001328c       ??_R1A@?0A@EA@?$basic_streambuf@DU?$char_traits@D@std@@@std@@8 0046c28c     LoadState.obj
 0002:000132b0       ??_R3?$basic_streambuf@DU?$char_traits@D@std@@@std@@8 0046c2b0     LoadState.obj
 0002:000132c4       ??_R2?$basic_streambuf@DU?$char_traits@D@std@@@std@@8 0046c2c4     LoadState.obj
 0002:000132cc       ??_R4?$basic_ifstream@DU?$char_traits@D@std@@@std@@6B@ 0046c2cc     LoadState.obj
 0002:000132e4       ??_R3?$basic_ifstream@DU?$char_traits@D@std@@@std@@8 0046c2e4     LoadState.obj
 0002:000132f8       ??_R2?$basic_ifstream@DU?$char_traits@D@std@@@std@@8 0046c2f8     LoadState.obj
 0002:00013314       ??_R1A@?0A@EA@?$basic_ifstream@DU?$char_traits@D@std@@@std@@8 0046c314     LoadState.obj
 0002:00013338       ??_R1A@?0A@EA@?$basic_istream@DU?$char_traits@D@std@@@std@@8 0046c338     LoadState.obj
 0002:0001335c       ??_R3?$basic_istream@DU?$char_traits@D@std@@@std@@8 0046c35c     LoadState.obj
 0002:00013370       ??_R2?$basic_istream@DU?$char_traits@D@std@@@std@@8 0046c370     LoadState.obj
 0002:00013384       ??_R1A@A@3FA@?$basic_ios@DU?$char_traits@D@std@@@std@@8 0046c384     LoadState.obj
 0002:000133a8       ??_R3?$basic_ios@DU?$char_traits@D@std@@@std@@8 0046c3a8     LoadState.obj
 0002:000133bc       ??_R2?$basic_ios@DU?$char_traits@D@std@@@std@@8 0046c3bc     LoadState.obj
 0002:000133cc       ??_R1A@?0A@EA@?$basic_ios@DU?$char_traits@D@std@@@std@@8 0046c3cc     LoadState.obj
 0002:000133f0       ??_R1A@?0A@EA@ios_base@std@@8 0046c3f0     LoadState.obj
 0002:00013414       ??_R3ios_base@std@@8       0046c414     LoadState.obj
 0002:00013428       ??_R2ios_base@std@@8       0046c428     LoadState.obj
 0002:00013434       ??_R17?0A@EA@?$_Iosb@H@std@@8 0046c434     LoadState.obj
 0002:00013458       ??_R3?$_Iosb@H@std@@8      0046c458     LoadState.obj
 0002:0001346c       ??_R2?$_Iosb@H@std@@8      0046c46c     LoadState.obj
 0002:00013474       ??_R1A@?0A@EA@?$_Iosb@H@std@@8 0046c474     LoadState.obj
 0002:00013498       ??_R1A@A@3EA@ios_base@std@@8 0046c498     LoadState.obj
 0002:000134bc       ??_R17A@3EA@?$_Iosb@H@std@@8 0046c4bc     LoadState.obj
 0002:000134e0       ??_R4bad_cast@std@@6B@     0046c4e0     LoadState.obj
 0002:000134f8       ??_R3bad_cast@std@@8       0046c4f8     LoadState.obj
 0002:0001350c       ??_R2bad_cast@std@@8       0046c50c     LoadState.obj
 0002:00013518       ??_R1A@?0A@EA@bad_cast@std@@8 0046c518     LoadState.obj
 0002:0001353c       ??_R4LoadState@@6B@        0046c53c     LoadState.obj
 0002:00013554       ??_R3LoadState@@8          0046c554     LoadState.obj
 0002:00013568       ??_R2LoadState@@8          0046c568     LoadState.obj
 0002:00013574       ??_R1A@?0A@EA@LoadState@@8 0046c574     LoadState.obj
 0002:00013598       ??_R4BaseEngine@@6BDisplayableObjectContainer@@@ 0046c598     BaseEngine.obj
 0002:000135b0       ??_R4BaseEngine@@6BFilterPoints@@@ 0046c5b0     BaseEngine.obj
 0002:000135c8       ??_R4FilterPoints@@6B@     0046c5c8     BaseEngine.obj
 0002:000135e0       ??_R4DisplayableObjectContainer@@6B@ 0046c5e0     BaseEngine.obj
 0002:000135f8       ??_R4DisplayableObject@@6B@ 0046c5f8     DisplayableObject.obj
 0002:00013610       ??_R4MovingPokemon@@6B@    0046c610     MovingPokemon.obj
 0002:00013628       ??_R3MovingPokemon@@8      0046c628     MovingPokemon.obj
 0002:0001363c       ??_R2MovingPokemon@@8      0046c63c     MovingPokemon.obj
 0002:0001364c       ??_R1A@?0A@EA@MovingPokemon@@8 0046c64c     MovingPokemon.obj
 0002:00013670       ??_R4?$_Ref_count_obj2@UPoint@@@std@@6B@ 0046c670     MovingPokemon.obj
 0002:00013688       ??_R3?$_Ref_count_obj2@UPoint@@@std@@8 0046c688     MovingPokemon.obj
 0002:0001369c       ??_R2?$_Ref_count_obj2@UPoint@@@std@@8 0046c69c     MovingPokemon.obj
 0002:000136a8       ??_R1A@?0A@EA@?$_Ref_count_obj2@UPoint@@@std@@8 0046c6a8     MovingPokemon.obj
 0002:000136cc       ??_R4?$_Ref_count@UPoint@@@std@@6B@ 0046c6cc     MovingPokemon.obj
 0002:000136e4       ??_R3?$_Ref_count@UPoint@@@std@@8 0046c6e4     MovingPokemon.obj
 0002:000136f8       ??_R2?$_Ref_count@UPoint@@@std@@8 0046c6f8     MovingPokemon.obj
 0002:00013704       ??_R1A@?0A@EA@?$_Ref_count@UPoint@@@std@@8 0046c704     MovingPokemon.obj
 0002:00013728       ??_R4MovingPokemon2@@6B@   0046c728     MovingPokemon2.obj
 0002:00013740       ??_R3MovingPokemon2@@8     0046c740     MovingPokemon2.obj
 0002:00013754       ??_R2MovingPokemon2@@8     0046c754     MovingPokemon2.obj
 0002:00013764       ??_R1A@?0A@EA@MovingPokemon2@@8 0046c764     MovingPokemon2.obj
 0002:00013788       ??_R4MyObjectB@@6B@        0046c788     MyDemoA.obj
 0002:000137a0       ??_R3MyObjectB@@8          0046c7a0     MyDemoA.obj
 0002:000137b4       ??_R2MyObjectB@@8          0046c7b4     MyDemoA.obj
 0002:000137c0       ??_R1A@?0A@EA@MyObjectB@@8 0046c7c0     MyDemoA.obj
 0002:000137e4       ??_R4?$basic_ofstream@DU?$char_traits@D@std@@@std@@6B@ 0046c7e4     RunningState.obj
 0002:000137fc       ??_R3?$basic_ofstream@DU?$char_traits@D@std@@@std@@8 0046c7fc     RunningState.obj
 0002:00013810       ??_R2?$basic_ofstream@DU?$char_traits@D@std@@@std@@8 0046c810     RunningState.obj
 0002:0001382c       ??_R1A@?0A@EA@?$basic_ofstream@DU?$char_traits@D@std@@@std@@8 0046c82c     RunningState.obj
 0002:00013850       ??_R1A@?0A@EA@?$basic_ostream@DU?$char_traits@D@std@@@std@@8 0046c850     RunningState.obj
 0002:00013874       ??_R3?$basic_ostream@DU?$char_traits@D@std@@@std@@8 0046c874     RunningState.obj
 0002:00013888       ??_R2?$basic_ostream@DU?$char_traits@D@std@@@std@@8 0046c888     RunningState.obj
 0002:0001389c       ??_R4TileManager@@6B@      0046c89c     RunningState.obj
 0002:000138b4       ??_R3TileManager@@8        0046c8b4     RunningState.obj
 0002:000138c8       ??_R2TileManager@@8        0046c8c8     RunningState.obj
 0002:000138d0       ??_R1A@?0A@EA@TileManager@@8 0046c8d0     RunningState.obj
 0002:000138f4       ??_R4Scyzc3TileManager@@6B@ 0046c8f4     RunningState.obj
 0002:0001390c       ??_R3Scyzc3TileManager@@8  0046c90c     RunningState.obj
 0002:00013920       ??_R2Scyzc3TileManager@@8  0046c920     RunningState.obj
 0002:0001392c       ??_R1A@?0A@EA@Scyzc3TileManager@@8 0046c92c     RunningState.obj
 0002:00013950       ??_R4RunningState@@6B@     0046c950     RunningState.obj
 0002:00013968       ??_R3RunningState@@8       0046c968     RunningState.obj
 0002:0001397c       ??_R2RunningState@@8       0046c97c     RunningState.obj
 0002:00013988       ??_R1A@?0A@EA@RunningState@@8 0046c988     RunningState.obj
 0002:000139ac       ??_R4SaveState@@6B@        0046c9ac     SaveState.obj
 0002:000139c4       ??_R3SaveState@@8          0046c9c4     SaveState.obj
 0002:000139d8       ??_R2SaveState@@8          0046c9d8     SaveState.obj
 0002:000139e4       ??_R1A@?0A@EA@SaveState@@8 0046c9e4     SaveState.obj
 0002:00013a08       ??_R4Scyzc3FilterPoints@@6B@ 0046ca08     ScoreState.obj
 0002:00013a20       ??_R3Scyzc3FilterPoints@@8 0046ca20     ScoreState.obj
 0002:00013a34       ??_R2Scyzc3FilterPoints@@8 0046ca34     ScoreState.obj
 0002:00013a40       ??_R1A@?0A@EA@Scyzc3FilterPoints@@8 0046ca40     ScoreState.obj
 0002:00013a64       ??_R4Scyzc3FilterPointsTranslation@@6B@ 0046ca64     ScoreState.obj
 0002:00013a7c       ??_R3Scyzc3FilterPointsTranslation@@8 0046ca7c     ScoreState.obj
 0002:00013a90       ??_R2Scyzc3FilterPointsTranslation@@8 0046ca90     ScoreState.obj
 0002:00013a9c       ??_R1A@?0A@EA@Scyzc3FilterPointsTranslation@@8 0046ca9c     ScoreState.obj
 0002:00013ac0       ??_R4ScoreState@@6B@       0046cac0     ScoreState.obj
 0002:00013ad8       ??_R3ScoreState@@8         0046cad8     ScoreState.obj
 0002:00013aec       ??_R2ScoreState@@8         0046caec     ScoreState.obj
 0002:00013af8       ??_R1A@?0A@EA@ScoreState@@8 0046caf8     ScoreState.obj
 0002:00013b1c       ??_R4Scyzc3Engine@@6BDisplayableObjectContainer@@@ 0046cb1c     Scyzc3Engine.obj
 0002:00013b34       ??_R3Scyzc3Engine@@8       0046cb34     Scyzc3Engine.obj
 0002:00013b48       ??_R2Scyzc3Engine@@8       0046cb48     Scyzc3Engine.obj
 0002:00013b5c       ??_R1A@?0A@EA@Scyzc3Engine@@8 0046cb5c     Scyzc3Engine.obj
 0002:00013b80       ??_R4Scyzc3Engine@@6BFilterPoints@@@ 0046cb80     Scyzc3Engine.obj
 0002:00013b98       ??_R4player@@6B@           0046cb98     Scyzc3Object.obj
 0002:00013bb0       ??_R3player@@8             0046cbb0     Scyzc3Object.obj
 0002:00013bc4       ??_R2player@@8             0046cbc4     Scyzc3Object.obj
 0002:00013bd4       ??_R1A@?0A@EA@player@@8    0046cbd4     Scyzc3Object.obj
 0002:00013bf8       ??_R4rival@@6B@            0046cbf8     Scyzc3Object.obj
 0002:00013c10       ??_R3rival@@8              0046cc10     Scyzc3Object.obj
 0002:00013c24       ??_R2rival@@8              0046cc24     Scyzc3Object.obj
 0002:00013c34       ??_R1A@?0A@EA@rival@@8     0046cc34     Scyzc3Object.obj
 0002:00013c58       ??_R4Scyzc3Object@@6B@     0046cc58     Scyzc3Object.obj
 0002:00013c70       ??_R3ImagePixelMapping@@8  0046cc70     SimpleImage.obj
 0002:00013c84       ??_R2ImagePixelMapping@@8  0046cc84     SimpleImage.obj
 0002:00013c8c       ??_R1A@?0A@EA@ImagePixelMapping@@8 0046cc8c     SimpleImage.obj
 0002:00013cb0       ??_R4CroppedImagePixelMapping@@6B@ 0046ccb0     SimpleImage.obj
 0002:00013cc8       ??_R3CroppedImagePixelMapping@@8 0046ccc8     SimpleImage.obj
 0002:00013cdc       ??_R2CroppedImagePixelMapping@@8 0046ccdc     SimpleImage.obj
 0002:00013ce8       ??_R1A@?0A@EA@CroppedImagePixelMapping@@8 0046cce8     SimpleImage.obj
 0002:00013d0c       ??_R4BouncingObject@@6B@   0046cd0c     SimpleDemo.obj
 0002:00013d24       ??_R3BouncingObject@@8     0046cd24     SimpleDemo.obj
 0002:00013d38       ??_R2BouncingObject@@8     0046cd38     SimpleDemo.obj
 0002:00013d44       ??_R1A@?0A@EA@BouncingObject@@8 0046cd44     SimpleDemo.obj
 0002:00013d68       ??_R4StarfieldDemo@@6BDisplayableObjectContainer@@@ 0046cd68     StarfieldDemo.obj
 0002:00013d80       ??_R3StarfieldDemo@@8      0046cd80     StarfieldDemo.obj
 0002:00013d94       ??_R2StarfieldDemo@@8      0046cd94     StarfieldDemo.obj
 0002:00013da8       ??_R1A@?0A@EA@StarfieldDemo@@8 0046cda8     StarfieldDemo.obj
 0002:00013dcc       ??_R4StarfieldDemo@@6BFilterPoints@@@ 0046cdcc     StarfieldDemo.obj
 0002:00013de4       ??_R4ImagePixelMapping@@6B@ 0046cde4     StartUpState.obj
 0002:00013dfc       ??_R4Scyzc3ImagePixelMappingRotate@@6B@ 0046cdfc     StartUpState.obj
 0002:00013e14       ??_R3Scyzc3ImagePixelMappingRotate@@8 0046ce14     StartUpState.obj
 0002:00013e28       ??_R2Scyzc3ImagePixelMappingRotate@@8 0046ce28     StartUpState.obj
 0002:00013e34       ??_R1A@?0A@EA@Scyzc3ImagePixelMappingRotate@@8 0046ce34     StartUpState.obj
 0002:00013e58       ??_R4Scyzc3ImagePixelMappingShiftXY@@6B@ 0046ce58     StartUpState.obj
 0002:00013e70       ??_R3Scyzc3ImagePixelMappingShiftXY@@8 0046ce70     StartUpState.obj
 0002:00013e84       ??_R2Scyzc3ImagePixelMappingShiftXY@@8 0046ce84     StartUpState.obj
 0002:00013e90       ??_R1A@?0A@EA@Scyzc3ImagePixelMappingShiftXY@@8 0046ce90     StartUpState.obj
 0002:00013eb4       ??_R4StartUpState@@6BState@@@ 0046ceb4     StartUpState.obj
 0002:00013ecc       ??_R3StartUpState@@8       0046cecc     StartUpState.obj
 0002:00013ee0       ??_R2StartUpState@@8       0046cee0     StartUpState.obj
 0002:00013ef0       ??_R1A@?0A@EA@StartUpState@@8 0046cef0     StartUpState.obj
 0002:00013f14       ??_R13?0A@EA@ImagePixelMapping@@8 0046cf14     StartUpState.obj
 0002:00013f38       ??_R4StartUpState@@6BImagePixelMapping@@@ 0046cf38     StartUpState.obj
 0002:00013f50       ??_R4BouncingBall@@6B@     0046cf50     BouncingBall.obj
 0002:00013f68       ??_R3BouncingBall@@8       0046cf68     BouncingBall.obj
 0002:00013f7c       ??_R2BouncingBall@@8       0046cf7c     BouncingBall.obj
 0002:00013f88       ??_R1A@?0A@EA@BouncingBall@@8 0046cf88     BouncingBall.obj
 0002:00013fac       ??_R4BouncingBall1@@6B@    0046cfac     BouncingBall.obj
 0002:00013fc4       ??_R3BouncingBall1@@8      0046cfc4     BouncingBall.obj
 0002:00013fd8       ??_R2BouncingBall1@@8      0046cfd8     BouncingBall.obj
 0002:00013fe8       ??_R1A@?0A@EA@BouncingBall1@@8 0046cfe8     BouncingBall.obj
 0002:0001400c       ??_R4BouncingBall2@@6B@    0046d00c     BouncingBall.obj
 0002:00014024       ??_R3BouncingBall2@@8      0046d024     BouncingBall.obj
 0002:00014038       ??_R2BouncingBall2@@8      0046d038     BouncingBall.obj
 0002:00014048       ??_R1A@?0A@EA@BouncingBall2@@8 0046d048     BouncingBall.obj
 0002:0001406c       ??_R4ImagePixelMappingRotate@@6B@ 0046d06c     BouncingBallMain.obj
 0002:00014084       ??_R3ImagePixelMappingRotate@@8 0046d084     BouncingBallMain.obj
 0002:00014098       ??_R2ImagePixelMappingRotate@@8 0046d098     BouncingBallMain.obj
 0002:000140a4       ??_R1A@?0A@EA@ImagePixelMappingRotate@@8 0046d0a4     BouncingBallMain.obj
 0002:000140c8       ??_R4ImagePixelMappingRotateAndColour@@6B@ 0046d0c8     BouncingBallMain.obj
 0002:000140e0       ??_R3ImagePixelMappingRotateAndColour@@8 0046d0e0     BouncingBallMain.obj
 0002:000140f4       ??_R2ImagePixelMappingRotateAndColour@@8 0046d0f4     BouncingBallMain.obj
 0002:00014104       ??_R1A@?0A@EA@ImagePixelMappingRotateAndColour@@8 0046d104     BouncingBallMain.obj
 0002:00014128       ??_R4WinState@@6B@         0046d128     WinState.obj
 0002:00014140       ??_R3WinState@@8           0046d140     WinState.obj
 0002:00014154       ??_R2WinState@@8           0046d154     WinState.obj
 0002:00014160       ??_R1A@?0A@EA@WinState@@8  0046d160     WinState.obj
 0002:00014184       ??_R4SimpleFlashingDragableImageObject@@6B@ 0046d184     ZoomingDemo.obj
 0002:0001419c       ??_R3SimpleFlashingDragableImageObject@@8 0046d19c     ZoomingDemo.obj
 0002:000141b0       ??_R2SimpleFlashingDragableImageObject@@8 0046d1b0     ZoomingDemo.obj
 0002:000141bc       ??_R1A@?0A@EA@SimpleFlashingDragableImageObject@@8 0046d1bc     ZoomingDemo.obj
 0002:000141e0       ??_R4MazeDemoMain@@6BDisplayableObjectContainer@@@ 0046d1e0     MazeDemoMain.obj
 0002:000141f8       ??_R3MazeDemoMain@@8       0046d1f8     MazeDemoMain.obj
 0002:0001420c       ??_R2MazeDemoMain@@8       0046d20c     MazeDemoMain.obj
 0002:00014220       ??_R1A@?0A@EA@MazeDemoMain@@8 0046d220     MazeDemoMain.obj
 0002:00014244       ??_R4MazeDemoMain@@6BFilterPoints@@@ 0046d244     MazeDemoMain.obj
 0002:0001425c       ??_R4MazeDemoTileManager@@6B@ 0046d25c     MazeDemoMain.obj
 0002:00014274       ??_R3MazeDemoTileManager@@8 0046d274     MazeDemoMain.obj
 0002:00014288       ??_R2MazeDemoTileManager@@8 0046d288     MazeDemoMain.obj
 0002:00014294       ??_R1A@?0A@EA@MazeDemoTileManager@@8 0046d294     MazeDemoMain.obj
 0002:000142b8       ??_R4MazeDemoObject@@6B@   0046d2b8     MazeDemoObject.obj
 0002:000142d0       ??_R3MazeDemoObject@@8     0046d2d0     MazeDemoObject.obj
 0002:000142e4       ??_R2MazeDemoObject@@8     0046d2e4     MazeDemoObject.obj
 0002:000142f0       ??_R1A@?0A@EA@MazeDemoObject@@8 0046d2f0     MazeDemoObject.obj
 0002:00014314       ??_R4type_info@@6B@        0046d314     MSVCRTD:std_type_info_static.obj
 0002:0001432c       ??_R3type_info@@8          0046d32c     MSVCRTD:std_type_info_static.obj
 0002:00014340       ??_R2type_info@@8          0046d340     MSVCRTD:std_type_info_static.obj
 0002:00014348       ??_R1A@?0A@EA@type_info@@8 0046d348     MSVCRTD:std_type_info_static.obj
 0002:00014510       ___safe_se_handler_table   0046d510     <linker-defined>
 0002:00014b84       ___rtc_iaa                 0046db84     MSVCRTD:initsect.obj
 0002:00014c88       ___rtc_izz                 0046dc88     MSVCRTD:initsect.obj
 0002:00014d8c       ___rtc_taa                 0046dd8c     MSVCRTD:initsect.obj
 0002:00014e90       ___rtc_tzz                 0046de90     MSVCRTD:initsect.obj
 0002:000157e0       __TI3?AVbad_array_new_length@std@@ 0046e7e0     bullet.obj
 0002:000157f4       __CTA3?AVbad_array_new_length@std@@ 0046e7f4     bullet.obj
 0002:00015808       __CT??_R0?AVbad_array_new_length@std@@@8??0bad_array_new_length@std@@QAE@ABV01@@Z12 0046e808     bullet.obj
 0002:00015828       __CT??_R0?AVbad_alloc@std@@@8??0bad_alloc@std@@QAE@ABV01@@Z12 0046e828     bullet.obj
 0002:00015848       __CT??_R0?AVexception@std@@@8??0exception@std@@QAE@ABV01@@Z12 0046e848     bullet.obj
 0002:00016064       __TI2?AVbad_cast@std@@     0046f064     LoadState.obj
 0002:00016078       __CTA2?AVbad_cast@std@@    0046f078     LoadState.obj
 0002:00016088       __CT??_R0?AVbad_cast@std@@@8??0bad_cast@std@@QAE@ABV01@@Z12 0046f088     LoadState.obj
 0002:00018070       __TI2?AVbad_alloc@std@@    00471070     MSVCRTD:throw_bad_alloc.obj
 0002:00018084       __CTA2?AVbad_alloc@std@@   00471084     MSVCRTD:throw_bad_alloc.obj
 0003:00000008       ___security_cookie_complement 00472008     MSVCRTD:gs_cookie.obj
 0003:0000000c       ___security_cookie         0047200c     MSVCRTD:gs_cookie.obj
 0003:00000014       __fltused                  00472014     MSVCRTD:fltused.obj
 0003:00000018       ___scrt_native_dllmain_reason 00472018     MSVCRTD:utility.obj
 0003:00000020       ___scrt_default_matherr    00472020     MSVCRTD:matherr.obj
 0003:00000024       ___isa_enabled             00472024     MSVCRTD:cpu_disp.obj
 0003:00000028       ___scrt_ucrt_dll_is_in_use 00472028     MSVCRTD:ucrt_stubs.obj
 0003:00000134       ??_R0?AVbad_array_new_length@std@@@8 00472134     bullet.obj
 0003:00000164       ??_R0?AVbad_alloc@std@@@8  00472164     bullet.obj
 0003:00000188       ??_R0?AVexception@std@@@8  00472188     bullet.obj
 0003:000001ac       ??_R0?AVbad_cast@std@@@8   004721ac     LoadState.obj
 0003:000001cc       ??_R0?AVtype_info@@@8      004721cc     MSVCRTD:std_type_info_static.obj
 0003:000002ec       ??_R0?AV_Ref_count_base@std@@@8 004722ec     bullet.obj
 0003:00000314       ??_R0?AVScyzc3Object@@@8   00472314     bullet.obj
 0003:00000334       ??_R0?AVDisplayableObject@@@8 00472334     bullet.obj
 0003:0000035c       ??_R0?AVbullet@@@8         0047235c     bullet.obj
 0003:00000378       ??_R0?AV?$_Ref_count@VRawImageData@@@std@@@8 00472378     bullet.obj
 0003:000003b0       ??_R0?AVState@@@8          004723b0     ChooseState.obj
 0003:000003c8       ??_R0?AVChooseState@@@8    004723c8     ChooseState.obj
 0003:000003e8       ??_R0?AVDragableBaseClassObject@@@8 004723e8     DraggingDemo.obj
 0003:00000418       ??_R0?AVDragableObject@@@8 00472418     DraggingDemo.obj
 0003:0000043c       ??_R0?AVDragableImageObject@@@8 0047243c     DraggingDemo.obj
 0003:00000464       ??_R0?AVImageObject@@@8    00472464     DraggingDemo.obj
 0003:00000484       ??_R0?AVDisplayableObjectContainer@@@8 00472484     FlashingDemo.obj
 0003:000004b8       ??_R0?AVFlashingDemo@@@8   004724b8     FlashingDemo.obj
 0003:000004d8       ??_R0?AVBaseEngine@@@8     004724d8     FlashingDemo.obj
 0003:000004f8       ??_R0?AVFilterPoints@@@8   004724f8     FlashingDemo.obj
 0003:00000518       ??_R0?AVHelpState@@@8      00472518     HelpState.obj
 0003:00000534       ??_R0?AVMappableImageObject@@@8 00472534     ImageMappingDemo.obj
 0003:0000055c       ??_R0?AV?$basic_filebuf@DU?$char_traits@D@std@@@std@@@8 0047255c     LoadState.obj
 0003:000005a4       ??_R0?AV?$basic_streambuf@DU?$char_traits@D@std@@@std@@@8 004725a4     LoadState.obj
 0003:000005ec       ??_R0?AV?$basic_ifstream@DU?$char_traits@D@std@@@std@@@8 004725ec     LoadState.obj
 0003:00000634       ??_R0?AV?$basic_istream@DU?$char_traits@D@std@@@std@@@8 00472634     LoadState.obj
 0003:0000067c       ??_R0?AV?$basic_ios@DU?$char_traits@D@std@@@std@@@8 0047267c     LoadState.obj
 0003:000006bc       ??_R0?AVios_base@std@@@8   004726bc     LoadState.obj
 0003:000006dc       ??_R0?AV?$_Iosb@H@std@@@8  004726dc     LoadState.obj
 0003:00000700       ??_R0?AVLoadState@@@8      00472700     LoadState.obj
 0003:0000071c       ??_R0?AVMovingPokemon@@@8  0047271c     MovingPokemon.obj
 0003:00000740       ??_R0?AV?$_Ref_count_obj2@UPoint@@@std@@@8 00472740     MovingPokemon.obj
 0003:00000778       ??_R0?AV?$_Ref_count@UPoint@@@std@@@8 00472778     MovingPokemon.obj
 0003:000007a8       ??_R0?AVMovingPokemon2@@@8 004727a8     MovingPokemon2.obj
 0003:000007cc       ??_R0?AVMyObjectB@@@8      004727cc     MyDemoA.obj
 0003:000007e8       ??_R0?AV?$basic_ofstream@DU?$char_traits@D@std@@@std@@@8 004727e8     RunningState.obj
 0003:00000830       ??_R0?AV?$basic_ostream@DU?$char_traits@D@std@@@std@@@8 00472830     RunningState.obj
 0003:00000878       ??_R0?AVTileManager@@@8    00472878     RunningState.obj
 0003:00000898       ??_R0?AVScyzc3TileManager@@@8 00472898     RunningState.obj
 0003:000008c0       ??_R0?AVRunningState@@@8   004728c0     RunningState.obj
 0003:000008e0       ??_R0?AVSaveState@@@8      004728e0     SaveState.obj
 0003:000008fc       ??_R0?AVScyzc3FilterPoints@@@8 004728fc     ScoreState.obj
 0003:00000924       ??_R0?AVScyzc3FilterPointsTranslation@@@8 00472924     ScoreState.obj
 0003:00000958       ??_R0?AVScoreState@@@8     00472958     ScoreState.obj
 0003:00000978       ??_R0?AVScyzc3Engine@@@8   00472978     Scyzc3Engine.obj
 0003:00000998       ??_R0?AVplayer@@@8         00472998     Scyzc3Object.obj
 0003:000009b4       ??_R0?AVrival@@@8          004729b4     Scyzc3Object.obj
 0003:000009cc       ??_R0?AVImagePixelMapping@@@8 004729cc     SimpleImage.obj
 0003:000009f4       ??_R0?AVCroppedImagePixelMapping@@@8 004729f4     SimpleImage.obj
 0003:00000a24       ??_R0?AVBouncingObject@@@8 00472a24     SimpleDemo.obj
 0003:00000a48       ??_R0?AVStarfieldDemo@@@8  00472a48     StarfieldDemo.obj
 0003:00000a6c       ??_R0?AVScyzc3ImagePixelMappingRotate@@@8 00472a6c     StartUpState.obj
 0003:00000aa0       ??_R0?AVScyzc3ImagePixelMappingShiftXY@@@8 00472aa0     StartUpState.obj
 0003:00000ad8       ??_R0?AVStartUpState@@@8   00472ad8     StartUpState.obj
 0003:00000af8       ??_R0?AVBouncingBall@@@8   00472af8     BouncingBall.obj
 0003:00000b18       ??_R0?AVBouncingBall1@@@8  00472b18     BouncingBall.obj
 0003:00000b3c       ??_R0?AVBouncingBall2@@@8  00472b3c     BouncingBall.obj
 0003:00000b60       ??_R0?AVImagePixelMappingRotate@@@8 00472b60     BouncingBallMain.obj
 0003:00000b90       ??_R0?AVImagePixelMappingRotateAndColour@@@8 00472b90     BouncingBallMain.obj
 0003:00000bc8       ??_R0?AVWinState@@@8       00472bc8     WinState.obj
 0003:00000be4       ??_R0?AVSimpleFlashingDragableImageObject@@@8 00472be4     ZoomingDemo.obj
 0003:00000c20       ??_R0?AVMazeDemoMain@@@8   00472c20     MazeDemoMain.obj
 0003:00000c40       ??_R0?AVMazeDemoTileManager@@@8 00472c40     MazeDemoMain.obj
 0003:00000c68       ??_R0?AVMazeDemoObject@@@8 00472c68     MazeDemoObject.obj
 0003:00000db8       ?_OptionsStorage@?1??__local_stdio_printf_options@@9@4_KA 00472db8     bullet.obj
 0003:00000dc4       ?_Stinit@?1??_Init@?$basic_filebuf@DU?$char_traits@D@std@@@std@@IAEXPAU_iobuf@@W4_Initfl@23@@Z@4U_Mbstatet@@A 00472dc4     LoadState.obj
 0003:00000dd0       ?_Psave@?$_Facetptr@V?$ctype@D@std@@@std@@2PBVfacet@locale@2@B 00472dd0     LoadState.obj
 0003:00000dd4       ?_Psave@?$_Facetptr@V?$codecvt@DDU_Mbstatet@@@std@@@std@@2PBVfacet@locale@2@B 00472dd4     LoadState.obj
 0003:00000dd8       ?g_pManager@ImageManager@@0PAV1@A 00472dd8     SimpleImage.obj
 0003:00000de4       ___scrt_current_native_startup_state 00472de4     MSVCRTD:utility.obj
 0003:00000de8       ___scrt_native_startup_lock 00472de8     MSVCRTD:utility.obj
 0003:00000e10       ___castguard_check_failure_os_handled_fptr 00472e10     MSVCRTD:guard_support.obj
 0003:00000e18       ?__type_info_root_node@@3U__type_info_node@@A 00472e18     MSVCRTD:tncleanup.obj
 0003:00000e28       ?_OptionsStorage@?1??__local_stdio_scanf_options@@9@4_KA 00472e28     MSVCRTD:default_local_stdio_options.obj
 0003:00000e34       ___scrt_debugger_hook_flag 00472e34     MSVCRTD:utility_desktop.obj
 0003:000011f4       ___isa_available           004731f4     MSVCRTD:cpu_disp.obj
 0003:000011f8       ___favor                   004731f8     MSVCRTD:cpu_disp.obj
 0003:00001200       ___dyn_tls_dtor_callback   00473200     <common>
 0003:0000120c       ___dyn_tls_init_callback   0047320c     <common>
 0004:00000000       __imp__QueryPerformanceCounter@4 00474000     kernel32:KERNEL32.dll
 0004:00000004       __imp__GetCurrentThreadId@0 00474004     kernel32:KERNEL32.dll
 0004:00000008       __imp__GetSystemTimeAsFileTime@4 00474008     kernel32:KERNEL32.dll
 0004:0000000c       __imp__InitializeSListHead@4 0047400c     kernel32:KERNEL32.dll
 0004:00000010       __imp__IsDebuggerPresent@0 00474010     kernel32:KERNEL32.dll
 0004:00000014       __imp__UnhandledExceptionFilter@4 00474014     kernel32:KERNEL32.dll
 0004:00000018       __imp__SetUnhandledExceptionFilter@4 00474018     kernel32:KERNEL32.dll
 0004:0000001c       __imp__GetStartupInfoW@4   0047401c     kernel32:KERNEL32.dll
 0004:00000020       __imp__IsProcessorFeaturePresent@4 00474020     kernel32:KERNEL32.dll
 0004:00000024       __imp__GetModuleHandleW@4  00474024     kernel32:KERNEL32.dll
 0004:00000028       __imp__GetCurrentProcess@0 00474028     kernel32:KERNEL32.dll
 0004:0000002c       __imp__TerminateProcess@8  0047402c     kernel32:KERNEL32.dll
 0004:00000030       __imp__GetCommandLineW@0   00474030     kernel32:KERNEL32.dll
 0004:00000034       __imp__VirtualAlloc@16     00474034     kernel32:KERNEL32.dll
 0004:00000038       __imp__VirtualFree@12      00474038     kernel32:KERNEL32.dll
 0004:0000003c       __imp__WideCharToMultiByte@32 0047403c     kernel32:KERNEL32.dll
 0004:00000040       __imp__GetCurrentProcessId@0 00474040     kernel32:KERNEL32.dll
 0004:00000044       \177KERNEL32_NULL_THUNK_DATA 00474044     kernel32:KERNEL32.dll
 0004:0000007c       __imp_?_Init@?$basic_streambuf@DU?$char_traits@D@std@@@std@@IAEXXZ 0047407c     msvcprtd:MSVCP140D.dll
 0004:00000080       __imp_?_Gnavail@?$basic_streambuf@DU?$char_traits@D@std@@@std@@IBE_JXZ 00474080     msvcprtd:MSVCP140D.dll
 0004:00000084       __imp_?_Gninc@?$basic_streambuf@DU?$char_traits@D@std@@@std@@IAEPADXZ 00474084     msvcprtd:MSVCP140D.dll
 0004:00000088       __imp_?_Pninc@?$basic_streambuf@DU?$char_traits@D@std@@@std@@IAEPADXZ 00474088     msvcprtd:MSVCP140D.dll
 0004:0000008c       __imp_?_Pnavail@?$basic_streambuf@DU?$char_traits@D@std@@@std@@IBE_JXZ 0047408c     msvcprtd:MSVCP140D.dll
 0004:00000090       __imp_?_Init@?$basic_streambuf@DU?$char_traits@D@std@@@std@@IAEXPAPAD0PAH001@Z 00474090     msvcprtd:MSVCP140D.dll
 0004:00000094       __imp_?xsgetn@?$basic_streambuf@DU?$char_traits@D@std@@@std@@MAE_JPAD_J@Z 00474094     msvcprtd:MSVCP140D.dll
 0004:00000098       __imp_?xsputn@?$basic_streambuf@DU?$char_traits@D@std@@@std@@MAE_JPBD_J@Z 00474098     msvcprtd:MSVCP140D.dll
 0004:0000009c       __imp_??1?$basic_ios@DU?$char_traits@D@std@@@std@@UAE@XZ 0047409c     msvcprtd:MSVCP140D.dll
 0004:000000a0       __imp_?clear@?$basic_ios@DU?$char_traits@D@std@@@std@@QAEXH_N@Z 004740a0     msvcprtd:MSVCP140D.dll
 0004:000000a4       __imp_??0?$basic_ios@DU?$char_traits@D@std@@@std@@IAE@XZ 004740a4     msvcprtd:MSVCP140D.dll
 0004:000000a8       __imp_??0?$basic_istream@DU?$char_traits@D@std@@@std@@QAE@PAV?$basic_streambuf@DU?$char_traits@D@std@@@1@_N@Z 004740a8     msvcprtd:MSVCP140D.dll
 0004:000000ac       __imp_??1?$basic_istream@DU?$char_traits@D@std@@@std@@UAE@XZ 004740ac     msvcprtd:MSVCP140D.dll
 0004:000000b0       __imp_?_Ipfx@?$basic_istream@DU?$char_traits@D@std@@@std@@QAE_N_N@Z 004740b0     msvcprtd:MSVCP140D.dll
 0004:000000b4       __imp_??5?$basic_istream@DU?$char_traits@D@std@@@std@@QAEAAV01@AAH@Z 004740b4     msvcprtd:MSVCP140D.dll
 0004:000000b8       __imp_?_Fiopen@std@@YAPAU_iobuf@@PBDHH@Z 004740b8     msvcprtd:MSVCP140D.dll
 0004:000000bc       __imp_?showmanyc@?$basic_streambuf@DU?$char_traits@D@std@@@std@@MAE_JXZ 004740bc     msvcprtd:MSVCP140D.dll
 0004:000000c0       __imp_?id@?$ctype@D@std@@2V0locale@2@A 004740c0     msvcprtd:MSVCP140D.dll
 0004:000000c4       __imp_??Bios_base@std@@QBE_NXZ 004740c4     msvcprtd:MSVCP140D.dll
 0004:000000c8       __imp_?sbumpc@?$basic_streambuf@DU?$char_traits@D@std@@@std@@QAEHXZ 004740c8     msvcprtd:MSVCP140D.dll
 0004:000000cc       __imp_?pbump@?$basic_streambuf@DU?$char_traits@D@std@@@std@@IAEXH@Z 004740cc     msvcprtd:MSVCP140D.dll
 0004:000000d0       __imp_?id@?$codecvt@DDU_Mbstatet@@@std@@2V0locale@2@A 004740d0     msvcprtd:MSVCP140D.dll
 0004:000000d4       __imp_?_Gndec@?$basic_streambuf@DU?$char_traits@D@std@@@std@@IAEPADXZ 004740d4     msvcprtd:MSVCP140D.dll
 0004:000000d8       __imp_?_Xbad_alloc@std@@YAXXZ 004740d8     msvcprtd:MSVCP140D.dll
 0004:000000dc       __imp_??6?$basic_ostream@DU?$char_traits@D@std@@@std@@QAEAAV01@H@Z 004740dc     msvcprtd:MSVCP140D.dll
 0004:000000e0       __imp_??1?$basic_ostream@DU?$char_traits@D@std@@@std@@UAE@XZ 004740e0     msvcprtd:MSVCP140D.dll
 0004:000000e4       __imp_?uncaught_exception@std@@YA_NXZ 004740e4     msvcprtd:MSVCP140D.dll
 0004:000000e8       __imp_?good@ios_base@std@@QBE_NXZ 004740e8     msvcprtd:MSVCP140D.dll
 0004:000000ec       __imp_?flags@ios_base@std@@QBEHXZ 004740ec     msvcprtd:MSVCP140D.dll
 0004:000000f0       __imp_?width@ios_base@std@@QBE_JXZ 004740f0     msvcprtd:MSVCP140D.dll
 0004:000000f4       __imp_?width@ios_base@std@@QAE_J_J@Z 004740f4     msvcprtd:MSVCP140D.dll
 0004:000000f8       __imp_?sputc@?$basic_streambuf@DU?$char_traits@D@std@@@std@@QAEHD@Z 004740f8     msvcprtd:MSVCP140D.dll
 0004:000000fc       __imp_?sputn@?$basic_streambuf@DU?$char_traits@D@std@@@std@@QAE_JPBD_J@Z 004740fc     msvcprtd:MSVCP140D.dll
 0004:00000100       __imp_?setstate@?$basic_ios@DU?$char_traits@D@std@@@std@@QAEXH_N@Z 00474100     msvcprtd:MSVCP140D.dll
 0004:00000104       __imp_?tie@?$basic_ios@DU?$char_traits@D@std@@@std@@QBEPAV?$basic_ostream@DU?$char_traits@D@std@@@2@XZ 00474104     msvcprtd:MSVCP140D.dll
 0004:00000108       __imp_?rdbuf@?$basic_ios@DU?$char_traits@D@std@@@std@@QBEPAV?$basic_streambuf@DU?$char_traits@D@std@@@2@XZ 00474108     msvcprtd:MSVCP140D.dll
 0004:0000010c       __imp_?fill@?$basic_ios@DU?$char_traits@D@std@@@std@@QBEDXZ 0047410c     msvcprtd:MSVCP140D.dll
 0004:00000110       __imp_?widen@?$basic_ios@DU?$char_traits@D@std@@@std@@QBEDD@Z 00474110     msvcprtd:MSVCP140D.dll
 0004:00000114       __imp_?_Osfx@?$basic_ostream@DU?$char_traits@D@std@@@std@@QAEXXZ 00474114     msvcprtd:MSVCP140D.dll
 0004:00000118       __imp_??6?$basic_ostream@DU?$char_traits@D@std@@@std@@QAEAAV01@P6AAAV01@AAV01@@Z@Z 00474118     msvcprtd:MSVCP140D.dll
 0004:0000011c       __imp_?put@?$basic_ostream@DU?$char_traits@D@std@@@std@@QAEAAV12@D@Z 0047411c     msvcprtd:MSVCP140D.dll
 0004:00000120       __imp_?flush@?$basic_ostream@DU?$char_traits@D@std@@@std@@QAEAAV12@XZ 00474120     msvcprtd:MSVCP140D.dll
 0004:00000124       __imp_?cout@std@@3V?$basic_ostream@DU?$char_traits@D@std@@@1@A 00474124     msvcprtd:MSVCP140D.dll
 0004:00000128       __imp_??0_Lockit@std@@QAE@H@Z 00474128     msvcprtd:MSVCP140D.dll
 0004:0000012c       __imp_??1_Lockit@std@@QAE@XZ 0047412c     msvcprtd:MSVCP140D.dll
 0004:00000130       __imp_?_Xlength_error@std@@YAXPBD@Z 00474130     msvcprtd:MSVCP140D.dll
 0004:00000134       __imp_?_Xout_of_range@std@@YAXPBD@Z 00474134     msvcprtd:MSVCP140D.dll
 0004:00000138       __imp_??Bid@locale@std@@QAEIXZ 00474138     msvcprtd:MSVCP140D.dll
 0004:0000013c       __imp_?_Getgloballocale@locale@std@@CAPAV_Locimp@12@XZ 0047413c     msvcprtd:MSVCP140D.dll
 0004:00000140       __imp_?always_noconv@codecvt_base@std@@QBE_NXZ 00474140     msvcprtd:MSVCP140D.dll
 0004:00000144       __imp_?is@?$ctype@D@std@@QBE_NFD@Z 00474144     msvcprtd:MSVCP140D.dll
 0004:00000148       __imp_?_Getcat@?$ctype@D@std@@SAIPAPBVfacet@locale@2@PBV42@@Z 00474148     msvcprtd:MSVCP140D.dll
 0004:0000014c       __imp_?in@?$codecvt@DDU_Mbstatet@@@std@@QBEHAAU_Mbstatet@@PBD1AAPBDPAD3AAPAD@Z 0047414c     msvcprtd:MSVCP140D.dll
 0004:00000150       __imp_?out@?$codecvt@DDU_Mbstatet@@@std@@QBEHAAU_Mbstatet@@PBD1AAPBDPAD3AAPAD@Z 00474150     msvcprtd:MSVCP140D.dll
 0004:00000154       __imp_?unshift@?$codecvt@DDU_Mbstatet@@@std@@QBEHAAU_Mbstatet@@PAD1AAPAD@Z 00474154     msvcprtd:MSVCP140D.dll
 0004:00000158       __imp_?_Getcat@?$codecvt@DDU_Mbstatet@@@std@@SAIPAPBVfacet@locale@2@PBV42@@Z 00474158     msvcprtd:MSVCP140D.dll
 0004:0000015c       __imp_?eof@ios_base@std@@QBE_NXZ 0047415c     msvcprtd:MSVCP140D.dll
 0004:00000160       __imp_?getloc@ios_base@std@@QBE?AVlocale@2@XZ 00474160     msvcprtd:MSVCP140D.dll
 0004:00000164       __imp_??0?$basic_streambuf@DU?$char_traits@D@std@@@std@@IAE@XZ 00474164     msvcprtd:MSVCP140D.dll
 0004:00000168       __imp_??1?$basic_streambuf@DU?$char_traits@D@std@@@std@@UAE@XZ 00474168     msvcprtd:MSVCP140D.dll
 0004:0000016c       __imp_?getloc@?$basic_streambuf@DU?$char_traits@D@std@@@std@@QBE?AVlocale@2@XZ 0047416c     msvcprtd:MSVCP140D.dll
 0004:00000170       __imp_?sgetc@?$basic_streambuf@DU?$char_traits@D@std@@@std@@QAEHXZ 00474170     msvcprtd:MSVCP140D.dll
 0004:00000174       __imp_?snextc@?$basic_streambuf@DU?$char_traits@D@std@@@std@@QAEHXZ 00474174     msvcprtd:MSVCP140D.dll
 0004:00000178       __imp_?eback@?$basic_streambuf@DU?$char_traits@D@std@@@std@@IBEPADXZ 00474178     msvcprtd:MSVCP140D.dll
 0004:0000017c       __imp_?gptr@?$basic_streambuf@DU?$char_traits@D@std@@@std@@IBEPADXZ 0047417c     msvcprtd:MSVCP140D.dll
 0004:00000180       __imp_?pptr@?$basic_streambuf@DU?$char_traits@D@std@@@std@@IBEPADXZ 00474180     msvcprtd:MSVCP140D.dll
 0004:00000184       __imp_?egptr@?$basic_streambuf@DU?$char_traits@D@std@@@std@@IBEPADXZ 00474184     msvcprtd:MSVCP140D.dll
 0004:00000188       __imp_?gbump@?$basic_streambuf@DU?$char_traits@D@std@@@std@@IAEXH@Z 00474188     msvcprtd:MSVCP140D.dll
 0004:0000018c       __imp_?setg@?$basic_streambuf@DU?$char_traits@D@std@@@std@@IAEXPAD00@Z 0047418c     msvcprtd:MSVCP140D.dll
 0004:00000190       __imp_?epptr@?$basic_streambuf@DU?$char_traits@D@std@@@std@@IBEPADXZ 00474190     msvcprtd:MSVCP140D.dll
 0004:00000194       __imp_??0?$basic_ostream@DU?$char_traits@D@std@@@std@@QAE@PAV?$basic_streambuf@DU?$char_traits@D@std@@@1@_N@Z 00474194     msvcprtd:MSVCP140D.dll
 0004:00000198       \177MSVCP140D_NULL_THUNK_DATA 00474198     msvcprtd:MSVCP140D.dll
 0004:000001fc       __imp__SDL_UpperBlitScaled 004741fc     SDL2:SDL2.dll
 0004:00000200       __imp__SDL_SetClipRect     00474200     SDL2:SDL2.dll
 0004:00000204       __imp__SDL_Quit            00474204     SDL2:SDL2.dll
 0004:00000208       __imp__SDL_GetTicks        00474208     SDL2:SDL2.dll
 0004:0000020c       __imp__SDL_RenderPresent   0047420c     SDL2:SDL2.dll
 0004:00000210       __imp__SDL_RenderCopy      00474210     SDL2:SDL2.dll
 0004:00000214       __imp__SDL_UpdateTexture   00474214     SDL2:SDL2.dll
 0004:00000218       __imp__SDL_CreateTexture   00474218     SDL2:SDL2.dll
 0004:0000021c       __imp__SDL_CreateRenderer  0047421c     SDL2:SDL2.dll
 0004:00000220       __imp__SDL_WaitEvent       00474220     SDL2:SDL2.dll
 0004:00000224       __imp__SDL_SetMainReady    00474224     SDL2:SDL2.dll
 0004:00000228       __imp__SDL_CreateWindow    00474228     SDL2:SDL2.dll
 0004:0000022c       __imp__SDL_FillRect        0047422c     SDL2:SDL2.dll
 0004:00000230       __imp__SDL_UnlockSurface   00474230     SDL2:SDL2.dll
 0004:00000234       __imp__SDL_LockSurface     00474234     SDL2:SDL2.dll
 0004:00000238       __imp__SDL_UpperBlit       00474238     SDL2:SDL2.dll
 0004:0000023c       __imp__SDL_FreeSurface     0047423c     SDL2:SDL2.dll
 0004:00000240       __imp__SDL_CreateRGBSurface 00474240     SDL2:SDL2.dll
 0004:00000244       __imp__SDL_GetError        00474244     SDL2:SDL2.dll
 0004:00000248       __imp__SDL_Init            00474248     SDL2:SDL2.dll
 0004:0000024c       __imp__SDL_RWFromFile      0047424c     SDL2:SDL2.dll
 0004:00000250       __imp__SDL_PollEvent       00474250     SDL2:SDL2.dll
 0004:00000254       __imp__SDL_ShowSimpleMessageBox 00474254     SDL2:SDL2.dll
 0004:00000258       \177SDL2_NULL_THUNK_DATA   00474258     SDL2:SDL2.dll
 0004:00000294       __imp__IMG_Load            00474294     SDL2_image:SDL2_image.dll
 0004:00000298       \177SDL2_image_NULL_THUNK_DATA 00474298     SDL2_image:SDL2_image.dll
 0004:000002c4       __imp__Mix_ResumeMusic     004742c4     SDL2_mixer:SDL2_mixer.dll
 0004:000002c8       __imp__Mix_CloseAudio      004742c8     SDL2_mixer:SDL2_mixer.dll
 0004:000002cc       __imp__Mix_PausedMusic     004742cc     SDL2_mixer:SDL2_mixer.dll
 0004:000002d0       __imp__Mix_Quit            004742d0     SDL2_mixer:SDL2_mixer.dll
 0004:000002d4       __imp__Mix_OpenAudio       004742d4     SDL2_mixer:SDL2_mixer.dll
 0004:000002d8       __imp__Mix_LoadWAV_RW      004742d8     SDL2_mixer:SDL2_mixer.dll
 0004:000002dc       __imp__Mix_LoadMUS         004742dc     SDL2_mixer:SDL2_mixer.dll
 0004:000002e0       __imp__Mix_FreeChunk       004742e0     SDL2_mixer:SDL2_mixer.dll
 0004:000002e4       __imp__Mix_PlayChannelTimed 004742e4     SDL2_mixer:SDL2_mixer.dll
 0004:000002e8       __imp__Mix_PlayMusic       004742e8     SDL2_mixer:SDL2_mixer.dll
 0004:000002ec       __imp__Mix_Pause           004742ec     SDL2_mixer:SDL2_mixer.dll
 0004:000002f0       __imp__Mix_Resume          004742f0     SDL2_mixer:SDL2_mixer.dll
 0004:000002f4       __imp__Mix_PauseMusic      004742f4     SDL2_mixer:SDL2_mixer.dll
 0004:000002f8       \177SDL2_mixer_NULL_THUNK_DATA 004742f8     SDL2_mixer:SDL2_mixer.dll
 0004:0000032c       __imp__TTF_RenderText_Solid 0047432c     SDL2_ttf:SDL2_ttf.dll
 0004:00000330       __imp__TTF_Init            00474330     SDL2_ttf:SDL2_ttf.dll
 0004:00000334       __imp__TTF_Quit            00474334     SDL2_ttf:SDL2_ttf.dll
 0004:00000338       __imp__TTF_OpenFont        00474338     SDL2_ttf:SDL2_ttf.dll
 0004:0000033c       __imp__TTF_CloseFont       0047433c     SDL2_ttf:SDL2_ttf.dll
 0004:00000340       \177SDL2_ttf_NULL_THUNK_DATA 00474340     SDL2_ttf:SDL2_ttf.dll
 0004:00000370       __imp__memcmp              00474370     vcruntimed:VCRUNTIME140D.dll
 0004:00000374       __imp__memmove             00474374     vcruntimed:VCRUNTIME140D.dll
 0004:00000378       __imp____std_exception_copy 00474378     vcruntimed:VCRUNTIME140D.dll
 0004:0000037c       __imp____std_exception_destroy 0047437c     vcruntimed:VCRUNTIME140D.dll
 0004:00000380       __imp___CxxThrowException@8 00474380     vcruntimed:VCRUNTIME140D.dll
 0004:00000384       __imp___purecall           00474384     vcruntimed:VCRUNTIME140D.dll
 0004:00000388       __imp__memset              00474388     vcruntimed:VCRUNTIME140D.dll
 0004:0000038c       __imp____current_exception 0047438c     vcruntimed:VCRUNTIME140D.dll
 0004:00000390       __imp____current_exception_context 00474390     vcruntimed:VCRUNTIME140D.dll
 0004:00000394       __imp____std_type_info_destroy_list 00474394     vcruntimed:VCRUNTIME140D.dll
 0004:00000398       __imp___except_handler4_common 00474398     vcruntimed:VCRUNTIME140D.dll
 0004:0000039c       __imp____CxxFrameHandler3  0047439c     vcruntimed:VCRUNTIME140D.dll
 0004:000003a0       __imp__memcpy              004743a0     vcruntimed:VCRUNTIME140D.dll
 0004:000003a4       \177VCRUNTIME140D_NULL_THUNK_DATA 004743a4     vcruntimed:VCRUNTIME140D.dll
 0004:000003d8       __imp__setvbuf             004743d8     ucrtd:ucrtbased.dll
 0004:000003dc       __imp__ungetc              004743dc     ucrtd:ucrtbased.dll
 0004:000003e0       __imp___lock_file          004743e0     ucrtd:ucrtbased.dll
 0004:000003e4       __imp___unlock_file        004743e4     ucrtd:ucrtbased.dll
 0004:000003e8       __imp____stdio_common_vsprintf 004743e8     ucrtd:ucrtbased.dll
 0004:000003ec       __imp___CrtDumpMemoryLeaks 004743ec     ucrtd:ucrtbased.dll
 0004:000003f0       __imp__srand               004743f0     ucrtd:ucrtbased.dll
 0004:000003f4       __imp___time64             004743f4     ucrtd:ucrtbased.dll
 0004:000003f8       __imp__puts                004743f8     ucrtd:ucrtbased.dll
 0004:000003fc       __imp__strcmp              004743fc     ucrtd:ucrtbased.dll
 0004:00000400       __imp__strcpy              00474400     ucrtd:ucrtbased.dll
 0004:00000404       __imp__pow                 00474404     ucrtd:ucrtbased.dll
 0004:00000408       __imp__exit                00474408     ucrtd:ucrtbased.dll
 0004:0000040c       __imp___ctime64            0047440c     ucrtd:ucrtbased.dll
 0004:00000410       __imp__fwrite              00474410     ucrtd:ucrtbased.dll
 0004:00000414       __imp___free_dbg           00474414     ucrtd:ucrtbased.dll
 0004:00000418       __imp___malloc_dbg         00474418     ucrtd:ucrtbased.dll
 0004:0000041c       __imp___seh_filter_exe     0047441c     ucrtd:ucrtbased.dll
 0004:00000420       __imp___set_app_type       00474420     ucrtd:ucrtbased.dll
 0004:00000424       __imp____setusermatherr    00474424     ucrtd:ucrtbased.dll
 0004:00000428       __imp___configure_narrow_argv 00474428     ucrtd:ucrtbased.dll
 0004:0000042c       __imp___initialize_narrow_environment 0047442c     ucrtd:ucrtbased.dll
 0004:00000430       __imp___fseeki64           00474430     ucrtd:ucrtbased.dll
 0004:00000434       __imp___initterm           00474434     ucrtd:ucrtbased.dll
 0004:00000438       __imp___initterm_e         00474438     ucrtd:ucrtbased.dll
 0004:0000043c       __imp___exit               0047443c     ucrtd:ucrtbased.dll
 0004:00000440       __imp___set_fmode          00474440     ucrtd:ucrtbased.dll
 0004:00000444       __imp____p___argc          00474444     ucrtd:ucrtbased.dll
 0004:00000448       __imp____p___argv          00474448     ucrtd:ucrtbased.dll
 0004:0000044c       __imp___cexit              0047444c     ucrtd:ucrtbased.dll
 0004:00000450       __imp___c_exit             00474450     ucrtd:ucrtbased.dll
 0004:00000454       __imp___register_thread_local_exe_atexit_callback 00474454     ucrtd:ucrtbased.dll
 0004:00000458       __imp___configthreadlocale 00474458     ucrtd:ucrtbased.dll
 0004:0000045c       __imp___set_new_mode       0047445c     ucrtd:ucrtbased.dll
 0004:00000460       __imp____p__commode        00474460     ucrtd:ucrtbased.dll
 0004:00000464       __imp___callnewh           00474464     ucrtd:ucrtbased.dll
 0004:00000468       __imp__malloc              00474468     ucrtd:ucrtbased.dll
 0004:0000046c       __imp___seh_filter_dll     0047446c     ucrtd:ucrtbased.dll
 0004:00000470       __imp___initialize_onexit_table 00474470     ucrtd:ucrtbased.dll
 0004:00000474       __imp___register_onexit_function 00474474     ucrtd:ucrtbased.dll
 0004:00000478       __imp___execute_onexit_table 00474478     ucrtd:ucrtbased.dll
 0004:0000047c       __imp___crt_atexit         0047447c     ucrtd:ucrtbased.dll
 0004:00000480       __imp___crt_at_quick_exit  00474480     ucrtd:ucrtbased.dll
 0004:00000484       __imp__terminate           00474484     ucrtd:ucrtbased.dll
 0004:00000488       __imp___except1            00474488     ucrtd:ucrtbased.dll
 0004:0000048c       __imp___controlfp_s        0047448c     ucrtd:ucrtbased.dll
 0004:00000490       __imp__fsetpos             00474490     ucrtd:ucrtbased.dll
 0004:00000494       __imp__fread               00474494     ucrtd:ucrtbased.dll
 0004:00000498       __imp__fputc               00474498     ucrtd:ucrtbased.dll
 0004:0000049c       __imp__fgetpos             0047449c     ucrtd:ucrtbased.dll
 0004:000004a0       __imp__fgetc               004744a0     ucrtd:ucrtbased.dll
 0004:000004a4       __imp__fflush              004744a4     ucrtd:ucrtbased.dll
 0004:000004a8       __imp__fclose              004744a8     ucrtd:ucrtbased.dll
 0004:000004ac       __imp___get_stream_buffer_pointers 004744ac     ucrtd:ucrtbased.dll
 0004:000004b0       __imp__sqrt                004744b0     ucrtd:ucrtbased.dll
 0004:000004b4       __imp__sin                 004744b4     ucrtd:ucrtbased.dll
 0004:000004b8       __imp__cos                 004744b8     ucrtd:ucrtbased.dll
 0004:000004bc       __imp__atan                004744bc     ucrtd:ucrtbased.dll
 0004:000004c0       __imp__rand                004744c0     ucrtd:ucrtbased.dll
 0004:000004c4       __imp____stdio_common_vfprintf 004744c4     ucrtd:ucrtbased.dll
 0004:000004c8       __imp____acrt_iob_func     004744c8     ucrtd:ucrtbased.dll
 0004:000004cc       __imp___CrtDbgReport       004744cc     ucrtd:ucrtbased.dll
 0004:000004d0       __imp___invalid_parameter  004744d0     ucrtd:ucrtbased.dll
 0004:000004d4       __imp___get_initial_narrow_environment 004744d4     ucrtd:ucrtbased.dll
 0004:000004d8       __imp__strlen              004744d8     ucrtd:ucrtbased.dll
 0004:000004dc       __imp__ceil                004744dc     ucrtd:ucrtbased.dll
 0004:000004e0       \177ucrtbased_NULL_THUNK_DATA 004744e0     ucrtd:ucrtbased.dll
 0004:00000540       __IMPORT_DESCRIPTOR_SDL2   00474540     SDL2:SDL2.dll
 0004:00000554       __IMPORT_DESCRIPTOR_SDL2_image 00474554     SDL2_image:SDL2_image.dll
 0004:00000568       __IMPORT_DESCRIPTOR_SDL2_ttf 00474568     SDL2_ttf:SDL2_ttf.dll
 0004:0000057c       __IMPORT_DESCRIPTOR_SDL2_mixer 0047457c     SDL2_mixer:SDL2_mixer.dll
 0004:00000590       __IMPORT_DESCRIPTOR_MSVCP140D 00474590     msvcprtd:MSVCP140D.dll
 0004:000005a4       __IMPORT_DESCRIPTOR_VCRUNTIME140D 004745a4     vcruntimed:VCRUNTIME140D.dll
 0004:000005b8       __IMPORT_DESCRIPTOR_ucrtbased 004745b8     ucrtd:ucrtbased.dll
 0004:000005cc       __IMPORT_DESCRIPTOR_KERNEL32 004745cc     kernel32:KERNEL32.dll
 0004:000005e0       __NULL_IMPORT_DESCRIPTOR   004745e0     SDL2:SDL2.dll
 0005:00000000       ___guard_check_icall_fptr  00477000     MSVCRTD:guard_support.obj
 0005:00000004       ___guard_xfg_check_icall_fptr 00477004     MSVCRTD:guard_support.obj

 entry point at        0001:000000eb

 Static symbols

 0002:fffa7000       __ehfuncinfo$??$_Deallocate@$07$0A@@std@@YAXPAXI@Z 00400000     BaseEngine.obj
 0002:fffa7000       __ehfuncinfo$??$_Deallocate_plain@V?$allocator@U_Container_proxy@std@@@std@@@std@@YAXAAV?$allocator@U_Container_proxy@std@@@0@QAU_Container_proxy@0@@Z 00400000     BaseEngine.obj
 0001:fffff000       __ehhandler$??$_Deallocate@$07$0A@@std@@YAXPAXI@Z 00400000 f   BaseEngine.obj
 0001:fffff000       __ehhandler$??$_Deallocate_plain@V?$allocator@U_Container_proxy@std@@@std@@@std@@YAXAAV?$allocator@U_Container_proxy@std@@@0@QAU_Container_proxy@0@@Z 00400000 f   BaseEngine.obj
 0002:fffa7000       __catchsym$??$?6U?$char_traits@D@std@@@std@@YAAAV?$basic_ostream@DU?$char_traits@D@std@@@0@AAV10@PBD@Z$3 00400000     BouncingBall.obj
 0002:fffa7000       __ehfuncinfo$??1_Sentry_base@?$basic_ostream@DU?$char_traits@D@std@@@std@@QAE@XZ 00400000     BouncingBall.obj
 0002:fffa7000       __ehfuncinfo$??1sentry@?$basic_ostream@DU?$char_traits@D@std@@@std@@QAE@XZ 00400000     BouncingBall.obj
 0001:fffff000       __ehhandler$??1_Sentry_base@?$basic_ostream@DU?$char_traits@D@std@@@std@@QAE@XZ 00400000 f   BouncingBall.obj
 0001:fffff000       __ehhandler$??1sentry@?$basic_ostream@DU?$char_traits@D@std@@@std@@QAE@XZ 00400000 f   BouncingBall.obj
 0001:fffff000       __unwindfunclet$??$?6U?$char_traits@D@std@@@std@@YAAAV?$basic_ostream@DU?$char_traits@D@std@@@0@AAV10@PBD@Z$2 00400000 f   BouncingBall.obj
 0001:fffff000       __unwindfunclet$??0sentry@?$basic_ostream@DU?$char_traits@D@std@@@std@@QAE@AAV12@@Z$0 00400000 f   BouncingBall.obj
 0002:fffa7000       __unwindtable$??0sentry@?$basic_ostream@DU?$char_traits@D@std@@@std@@QAE@AAV12@@Z 00400000     BouncingBall.obj
 0002:fffa7000       __catchsym$??$?6U?$char_traits@D@std@@@std@@YAAAV?$basic_ostream@DU?$char_traits@D@std@@@0@AAV10@PBD@Z$3 00400000     BouncingBallMain.obj
 0002:fffa7000       __catchsym$??$_Insert_string@DU?$char_traits@D@std@@I@std@@YAAAV?$basic_ostream@DU?$char_traits@D@std@@@0@AAV10@QBDI@Z$3 00400000     BouncingBallMain.obj
 0002:fffa7000       __catchsym$??$_Resize_reallocate@U_Value_init_tag@std@@@?$vector@PAVDisplayableObject@@V?$allocator@PAVDisplayableObject@@@std@@@std@@AAEXIABU_Value_init_tag@1@@Z$2 00400000     BouncingBallMain.obj
 0002:fffa7000       __ehfuncinfo$??$_Deallocate@$07$0A@@std@@YAXPAXI@Z 00400000     BouncingBallMain.obj
 0002:fffa7000       __ehfuncinfo$??$_Deallocate_plain@V?$allocator@U_Container_proxy@std@@@std@@@std@@YAXAAV?$allocator@U_Container_proxy@std@@@0@QAU_Container_proxy@0@@Z 00400000     BouncingBallMain.obj
 0002:fffa7000       __ehfuncinfo$??$_Freenode0@V?$allocator@U?$_Tree_node@U?$pair@$$CBV?$basic_string@DU?$char_traits@D@std@@V?$allocator@D@2@@std@@V?$weak_ptr@VRawImageData@@@2@@std@@PAX@std@@@std@@@?$_Tree_node@U?$pair@$$CBV?$basic_string@DU?$char_traits@D@std@@V?$allocator@D@2@@std@@V?$weak_ptr@VRawImageData@@@2@@std@@PAX@std@@SAXAAV?$allocator@U?$_Tree_node@U?$pair@$$CBV?$basic_string@DU?$char_traits@D@std@@V?$allocator@D@2@@std@@V?$weak_ptr@VRawImageData@@@2@@std@@PAX@std@@@1@PAU01@@Z 00400000     BouncingBallMain.obj
 0002:fffa7000       __ehfuncinfo$??$_Freenode@V?$allocator@U?$_Tree_node@U?$pair@$$CBV?$basic_string@DU?$char_traits@D@std@@V?$allocator@D@2@@std@@V?$weak_ptr@VRawImageData@@@2@@std@@PAX@std@@@std@@@?$_Tree_node@U?$pair@$$CBV?$basic_string@DU?$char_traits@D@std@@V?$allocator@D@2@@std@@V?$weak_ptr@VRawImageData@@@2@@std@@PAX@std@@SAXAAV?$allocator@U?$_Tree_node@U?$pair@$$CBV?$basic_string@DU?$char_traits@D@std@@V?$allocator@D@2@@std@@V?$weak_ptr@VRawImageData@@@2@@std@@PAX@std@@@1@PAU01@@Z 00400000     BouncingBallMain.obj
 0002:fffa7000       __ehfuncinfo$??0?$basic_string@DU?$char_traits@D@std@@V?$allocator@D@2@@std@@QAE@$$QAV01@@Z 00400000     BouncingBallMain.obj
 0002:fffa7000       __ehfuncinfo$??1?$_Alloc_construct_ptr@V?$allocator@U?$_Tree_node@U?$pair@$$CBV?$basic_string@DU?$char_traits@D@std@@V?$allocator@D@2@@std@@V?$shared_ptr@VRawImageData@@@2@@std@@PAX@std@@@std@@@std@@QAE@XZ 00400000     BouncingBallMain.obj
 0002:fffa7000       __ehfuncinfo$??1?$_Alloc_construct_ptr@V?$allocator@U?$_Tree_node@U?$pair@$$CBV?$basic_string@DU?$char_traits@D@std@@V?$allocator@D@2@@std@@V?$weak_ptr@VRawImageData@@@2@@std@@PAX@std@@@std@@@std@@QAE@XZ 00400000     BouncingBallMain.obj
 0002:fffa7000       __ehfuncinfo$??1?$_Tree_temp_node@V?$allocator@U?$_Tree_node@U?$pair@$$CBV?$basic_string@DU?$char_traits@D@std@@V?$allocator@D@2@@std@@V?$shared_ptr@VRawImageData@@@2@@std@@PAX@std@@@std@@@std@@QAE@XZ 00400000     BouncingBallMain.obj
 0002:fffa7000       __ehfuncinfo$??1?$_Tree_temp_node@V?$allocator@U?$_Tree_node@U?$pair@$$CBV?$basic_string@DU?$char_traits@D@std@@V?$allocator@D@2@@std@@V?$weak_ptr@VRawImageData@@@2@@std@@PAX@std@@@std@@@std@@QAE@XZ 00400000     BouncingBallMain.obj
 0002:fffa7000       __ehfuncinfo$??1RawImageData@@QAE@XZ 00400000     BouncingBallMain.obj
 0002:fffa7000       __ehfuncinfo$??1_Sentry_base@?$basic_ostream@DU?$char_traits@D@std@@@std@@QAE@XZ 00400000     BouncingBallMain.obj
 0002:fffa7000       __ehfuncinfo$??1sentry@?$basic_ostream@DU?$char_traits@D@std@@@std@@QAE@XZ 00400000     BouncingBallMain.obj
 0002:fffa7000       __ehfuncinfo$?_Take_contents@?$basic_string@DU?$char_traits@D@std@@V?$allocator@D@2@@std@@AAEXAAV12@U?$integral_constant@_N$00@2@@Z 00400000     BouncingBallMain.obj
 0002:fffa7000       __ehfuncinfo$?_Tidy_deallocate@?$basic_string@DU?$char_traits@D@std@@V?$allocator@D@2@@std@@AAEXXZ 00400000     BouncingBallMain.obj
 0002:fffa7000       __ehfuncinfo$?getImagePtrbyURL@ImageManager@@QAE?AV?$shared_ptr@VRawImageData@@@std@@V?$basic_string@DU?$char_traits@D@std@@V?$allocator@D@2@@3@_N1@Z 00400000     BouncingBallMain.obj
 0001:fffff000       __ehhandler$??$_Deallocate@$07$0A@@std@@YAXPAXI@Z 00400000 f   BouncingBallMain.obj
 0001:fffff000       __ehhandler$??$_Deallocate_plain@V?$allocator@U_Container_proxy@std@@@std@@@std@@YAXAAV?$allocator@U_Container_proxy@std@@@0@QAU_Container_proxy@0@@Z 00400000 f   BouncingBallMain.obj
 0001:fffff000       __ehhandler$??$_Freenode0@V?$allocator@U?$_Tree_node@U?$pair@$$CBV?$basic_string@DU?$char_traits@D@std@@V?$allocator@D@2@@std@@V?$weak_ptr@VRawImageData@@@2@@std@@PAX@std@@@std@@@?$_Tree_node@U?$pair@$$CBV?$basic_string@DU?$char_traits@D@std@@V?$allocator@D@2@@std@@V?$weak_ptr@VRawImageData@@@2@@std@@PAX@std@@SAXAAV?$allocator@U?$_Tree_node@U?$pair@$$CBV?$basic_string@DU?$char_traits@D@std@@V?$allocator@D@2@@std@@V?$weak_ptr@VRawImageData@@@2@@std@@PAX@std@@@1@PAU01@@Z 00400000 f   BouncingBallMain.obj
 0001:fffff000       __ehhandler$??$_Freenode@V?$allocator@U?$_Tree_node@U?$pair@$$CBV?$basic_string@DU?$char_traits@D@std@@V?$allocator@D@2@@std@@V?$weak_ptr@VRawImageData@@@2@@std@@PAX@std@@@std@@@?$_Tree_node@U?$pair@$$CBV?$basic_string@DU?$char_traits@D@std@@V?$allocator@D@2@@std@@V?$weak_ptr@VRawImageData@@@2@@std@@PAX@std@@SAXAAV?$allocator@U?$_Tree_node@U?$pair@$$CBV?$basic_string@DU?$char_traits@D@std@@V?$allocator@D@2@@std@@V?$weak_ptr@VRawImageData@@@2@@std@@PAX@std@@@1@PAU01@@Z 00400000 f   BouncingBallMain.obj
 0001:fffff000       __ehhandler$??$_Resize_reallocate@U_Value_init_tag@std@@@?$vector@PAVDisplayableObject@@V?$allocator@PAVDisplayableObject@@@std@@@std@@AAEXIABU_Value_init_tag@1@@Z 00400000 f   BouncingBallMain.obj
 0001:fffff000       __ehhandler$??0?$basic_string@DU?$char_traits@D@std@@V?$allocator@D@2@@std@@QAE@$$QAV01@@Z 00400000 f   BouncingBallMain.obj
 0001:fffff000       __ehhandler$??1?$_Alloc_construct_ptr@V?$allocator@U?$_Tree_node@U?$pair@$$CBV?$basic_string@DU?$char_traits@D@std@@V?$allocator@D@2@@std@@V?$shared_ptr@VRawImageData@@@2@@std@@PAX@std@@@std@@@std@@QAE@XZ 00400000 f   BouncingBallMain.obj
 0001:fffff000       __ehhandler$??1?$_Alloc_construct_ptr@V?$allocator@U?$_Tree_node@U?$pair@$$CBV?$basic_string@DU?$char_traits@D@std@@V?$allocator@D@2@@std@@V?$weak_ptr@VRawImageData@@@2@@std@@PAX@std@@@std@@@std@@QAE@XZ 00400000 f   BouncingBallMain.obj
 0001:fffff000       __ehhandler$??1?$_Tree_temp_node@V?$allocator@U?$_Tree_node@U?$pair@$$CBV?$basic_string@DU?$char_traits@D@std@@V?$allocator@D@2@@std@@V?$shared_ptr@VRawImageData@@@2@@std@@PAX@std@@@std@@@std@@QAE@XZ 00400000 f   BouncingBallMain.obj
 0001:fffff000       __ehhandler$??1?$_Tree_temp_node@V?$allocator@U?$_Tree_node@U?$pair@$$CBV?$basic_string@DU?$char_traits@D@std@@V?$allocator@D@2@@std@@V?$weak_ptr@VRawImageData@@@2@@std@@PAX@std@@@std@@@std@@QAE@XZ 00400000 f   BouncingBallMain.obj
 0001:fffff000       __ehhandler$??1RawImageData@@QAE@XZ 00400000 f   BouncingBallMain.obj
 0001:fffff000       __ehhandler$??1_Sentry_base@?$basic_ostream@DU?$char_traits@D@std@@@std@@QAE@XZ 00400000 f   BouncingBallMain.obj
 0001:fffff000       __ehhandler$??1sentry@?$basic_ostream@DU?$char_traits@D@std@@@std@@QAE@XZ 00400000 f   BouncingBallMain.obj
 0001:fffff000       __ehhandler$?_Take_contents@?$basic_string@DU?$char_traits@D@std@@V?$allocator@D@2@@std@@AAEXAAV12@U?$integral_constant@_N$00@2@@Z 00400000 f   BouncingBallMain.obj
 0001:fffff000       __ehhandler$?_Tidy_deallocate@?$basic_string@DU?$char_traits@D@std@@V?$allocator@D@2@@std@@AAEXXZ 00400000 f   BouncingBallMain.obj
 0001:fffff000       __unwindfunclet$??$?0U?$pair@V?$basic_string@DU?$char_traits@D@std@@V?$allocator@D@2@@std@@V?$shared_ptr@VRawImageData@@@2@@std@@@?$_Tree_temp_node@V?$allocator@U?$_Tree_node@U?$pair@$$CBV?$basic_string@DU?$char_traits@D@std@@V?$allocator@D@2@@std@@V?$shared_ptr@VRawImageData@@@2@@std@@PAX@std@@@std@@@std@@QAE@AAV?$allocator@U?$_Tree_node@U?$pair@$$CBV?$basic_string@DU?$char_traits@D@std@@V?$allocator@D@2@@std@@V?$shared_ptr@VRawImageData@@@2@@std@@PAX@std@@@1@PAU?$_Tree_node@U?$pair@$$CBV?$basic_string@DU?$char_traits@D@std@@V?$allocator@D@2@@std@@V?$shared_ptr@VRawImageData@@@2@@std@@PAX@1@$$QAU?$pair@V?$basic_string@DU?$char_traits@D@std@@V?$allocator@D@2@@std@@V?$shared_ptr@VRawImageData@@@2@@1@@Z$0 00400000 f   BouncingBallMain.obj
